
RME.elf:     file format elf32-littlearm


Disassembly of section .text:

80100000 <_start>:
80100000:	e59f013c 	ldr	r0, [pc, #316]	; 80100144 <fill_pgtbl+0x74>
80100004:	e59f113c 	ldr	r1, [pc, #316]	; 80100148 <fill_pgtbl+0x78>
80100008:	e59f213c 	ldr	r2, [pc, #316]	; 8010014c <fill_pgtbl+0x7c>
8010000c:	e0400002 	sub	r0, r0, r2
80100010:	e0411002 	sub	r1, r1, r2
80100014:	e3a02000 	mov	r2, #0

80100018 <clear_bss>:
80100018:	e1500001 	cmp	r0, r1
8010001c:	0a000002 	beq	8010002c <clear_done>
80100020:	e5802000 	str	r2, [r0]
80100024:	e2800004 	add	r0, r0, #4
80100028:	eafffffa 	b	80100018 <clear_bss>

8010002c <clear_done>:
8010002c:	e59f411c 	ldr	r4, [pc, #284]	; 80100150 <fill_pgtbl+0x80>
80100030:	e2844801 	add	r4, r4, #65536	; 0x10000
80100034:	e59f0118 	ldr	r0, [pc, #280]	; 80100154 <fill_pgtbl+0x84>
80100038:	e129f000 	msr	CPSR_fc, r0
8010003c:	e1a0d004 	mov	sp, r4
80100040:	e59f0110 	ldr	r0, [pc, #272]	; 80100158 <fill_pgtbl+0x88>
80100044:	e129f000 	msr	CPSR_fc, r0
80100048:	e1a0d004 	mov	sp, r4
8010004c:	e59f0108 	ldr	r0, [pc, #264]	; 8010015c <fill_pgtbl+0x8c>
80100050:	e129f000 	msr	CPSR_fc, r0
80100054:	e1a0d004 	mov	sp, r4
80100058:	e59f0100 	ldr	r0, [pc, #256]	; 80100160 <fill_pgtbl+0x90>
8010005c:	e129f000 	msr	CPSR_fc, r0
80100060:	e1a0d004 	mov	sp, r4
80100064:	e59f00f4 	ldr	r0, [pc, #244]	; 80100160 <fill_pgtbl+0x90>
80100068:	e129f000 	msr	CPSR_fc, r0
8010006c:	e1a0d004 	mov	sp, r4
80100070:	e59f00ec 	ldr	r0, [pc, #236]	; 80100164 <fill_pgtbl+0x94>
80100074:	e129f000 	msr	CPSR_fc, r0
80100078:	e1a0d004 	mov	sp, r4
8010007c:	ee110f10 	mrc	15, 0, r0, cr1, cr0, {0}
80100080:	e3e01001 	mvn	r1, #1
80100084:	e0000001 	and	r0, r0, r1
80100088:	ee010f10 	mcr	15, 0, r0, cr1, cr0, {0}
8010008c:	f57ff06f 	isb	sy
80100090:	e3a00000 	mov	r0, #0
80100094:	ee080f17 	mcr	15, 0, r0, cr8, cr7, {0}
80100098:	f57ff06f 	isb	sy
8010009c:	e59f00c4 	ldr	r0, [pc, #196]	; 80100168 <fill_pgtbl+0x98>
801000a0:	e59f10c4 	ldr	r1, [pc, #196]	; 8010016c <fill_pgtbl+0x9c>
801000a4:	e59f20a0 	ldr	r2, [pc, #160]	; 8010014c <fill_pgtbl+0x7c>
801000a8:	e0400002 	sub	r0, r0, r2
801000ac:	e0411002 	sub	r1, r1, r2
801000b0:	e5903000 	ldr	r3, [r0]
801000b4:	e0801003 	add	r1, r0, r3
801000b8:	e2800004 	add	r0, r0, #4

801000bc <load_config>:
801000bc:	e8b00078 	ldm	r0!, {r3, r4, r5, r6}
801000c0:	e3a07000 	mov	r7, #0
801000c4:	e1a08924 	lsr	r8, r4, #18
801000c8:	e0818008 	add	r8, r1, r8
801000cc:	e1839006 	orr	r9, r3, r6

801000d0 <fill_pgtbl>:
801000d0:	e5889000 	str	r9, [r8]
801000d4:	e2888004 	add	r8, r8, #4
801000d8:	e2877001 	add	r7, r7, #1
801000dc:	e2899601 	add	r9, r9, #1048576	; 0x100000
801000e0:	e1570005 	cmp	r7, r5
801000e4:	1afffff9 	bne	801000d0 <fill_pgtbl>
801000e8:	eb0135d6 	bl	8014d848 <main>
801000ec:	e1500002 	cmp	r0, r2
801000f0:	1afffff1 	bne	801000bc <load_config>
801000f4:	e3a00000 	mov	r0, #0
801000f8:	ee020f50 	mcr	15, 0, r0, cr2, cr0, {2}
801000fc:	e59f006c 	ldr	r0, [pc, #108]	; 80100170 <fill_pgtbl+0xa0>
80100100:	ee030f10 	mcr	15, 0, r0, cr3, cr0, {0}
80100104:	e59f0068 	ldr	r0, [pc, #104]	; 80100174 <fill_pgtbl+0xa4>
80100108:	ee0a0f12 	mcr	15, 0, r0, cr10, cr2, {0}
8010010c:	e59f0064 	ldr	r0, [pc, #100]	; 80100178 <fill_pgtbl+0xa8>
80100110:	ee0a0f32 	mcr	15, 0, r0, cr10, cr2, {1}
80100114:	e59f0050 	ldr	r0, [pc, #80]	; 8010016c <fill_pgtbl+0x9c>
80100118:	e59f102c 	ldr	r1, [pc, #44]	; 8010014c <fill_pgtbl+0x7c>
8010011c:	e0400001 	sub	r0, r0, r1
80100120:	ee020f10 	mcr	15, 0, r0, cr2, cr0, {0}
80100124:	e59f3050 	ldr	r3, [pc, #80]	; 8010017c <fill_pgtbl+0xac>
80100128:	f57ff06f 	isb	sy
8010012c:	ee110f10 	mrc	15, 0, r0, cr1, cr0, {0}
80100130:	e59f1048 	ldr	r1, [pc, #72]	; 80100180 <fill_pgtbl+0xb0>
80100134:	e1800001 	orr	r0, r0, r1
80100138:	ee010f10 	mcr	15, 0, r0, cr1, cr0, {0}
8010013c:	f57ff06f 	isb	sy
80100140:	e12fff13 	bx	r3
80100144:	8014e000 	.word	0x8014e000
80100148:	8094e118 	.word	0x8094e118
8010014c:	80000000 	.word	0x80000000
80100150:	80100200 	.word	0x80100200
80100154:	600f00d2 	.word	0x600f00d2
80100158:	600f00d7 	.word	0x600f00d7
8010015c:	600f00d1 	.word	0x600f00d1
80100160:	600f00db 	.word	0x600f00db
80100164:	600f00d3 	.word	0x600f00d3
80100168:	8014def8 	.word	0x8014def8
8010016c:	80144000 	.word	0x80144000
80100170:	55555555 	.word	0x55555555
80100174:	000a00a4 	.word	0x000a00a4
80100178:	006c006c 	.word	0x006c006c
8010017c:	8014d848 	.word	0x8014d848
80100180:	30001005 	.word	0x30001005
80100184:	e320f000 	nop	{0}
80100188:	e320f000 	nop	{0}
8010018c:	e320f000 	nop	{0}
80100190:	e320f000 	nop	{0}
80100194:	e320f000 	nop	{0}
80100198:	e320f000 	nop	{0}
8010019c:	e320f000 	nop	{0}
801001a0:	e320f000 	nop	{0}
801001a4:	e320f000 	nop	{0}
801001a8:	e320f000 	nop	{0}
801001ac:	e320f000 	nop	{0}
801001b0:	e320f000 	nop	{0}
801001b4:	e320f000 	nop	{0}
801001b8:	e320f000 	nop	{0}
801001bc:	e320f000 	nop	{0}
	...

80100200 <__RME_A7A_Stack_Start>:
	...

80140200 <__RME_A7A_Stack_End>:
	...

80144000 <__RME_A7A_Kern_Pgt>:
	...

80148000 <__RME_A7A_Vector_Table>:
80148000:	ea0001d6 	b	80148760 <Reset_Handler>
80148004:	ea0001d6 	b	80148764 <Undefined_Handler>
80148008:	ea0001ff 	b	8014880c <SVC_Handler>
8014800c:	ea0001e2 	b	8014879c <Prefetch_Abort_Handler>
80148010:	ea0001ef 	b	801487d4 <Data_Abort_Handler>
80148014:	ea0001d1 	b	80148760 <Reset_Handler>
80148018:	ea000209 	b	80148844 <IRQ_Handler>
8014801c:	ea00021a 	b	8014888c <FIQ_Handler>

80148020 <__RME_A7A_CPSR_Get>:
80148020:	e10f0000 	mrs	r0, CPSR
80148024:	e12fff1e 	bx	lr

80148028 <__RME_A7A_SPSR_Get>:
80148028:	e14f0000 	mrs	r0, SPSR
8014802c:	e12fff1e 	bx	lr

80148030 <__RME_A7A_MIDR_Get>:
80148030:	ee100f10 	mrc	15, 0, r0, cr0, cr0, {0}
80148034:	e12fff1e 	bx	lr

80148038 <__RME_A7A_CTR_Get>:
80148038:	ee100f30 	mrc	15, 0, r0, cr0, cr0, {1}
8014803c:	e12fff1e 	bx	lr

80148040 <__RME_A7A_TCMTR_Get>:
80148040:	ee100f50 	mrc	15, 0, r0, cr0, cr0, {2}
80148044:	e12fff1e 	bx	lr

80148048 <__RME_A7A_TLBTR_Get>:
80148048:	ee100f70 	mrc	15, 0, r0, cr0, cr0, {3}
8014804c:	e12fff1e 	bx	lr

80148050 <__RME_A7A_MPIDR_Get>:
80148050:	ee100fb0 	mrc	15, 0, r0, cr0, cr0, {5}
80148054:	e12fff1e 	bx	lr

80148058 <__RME_A7A_REVIDR_Get>:
80148058:	ee100fd0 	mrc	15, 0, r0, cr0, cr0, {6}
8014805c:	e12fff1e 	bx	lr

80148060 <__RME_A7A_ID_PFR0_Get>:
80148060:	ee100f11 	mrc	15, 0, r0, cr0, cr1, {0}
80148064:	e12fff1e 	bx	lr

80148068 <__RME_A7A_ID_PFR1_Get>:
80148068:	ee100f31 	mrc	15, 0, r0, cr0, cr1, {1}
8014806c:	e12fff1e 	bx	lr

80148070 <__RME_A7A_ID_DFR0_Get>:
80148070:	ee100f51 	mrc	15, 0, r0, cr0, cr1, {2}
80148074:	e12fff1e 	bx	lr

80148078 <__RME_A7A_ID_AFR0_Get>:
80148078:	ee100f71 	mrc	15, 0, r0, cr0, cr1, {3}
8014807c:	e12fff1e 	bx	lr

80148080 <__RME_A7A_ID_MMFR0_Get>:
80148080:	ee100f91 	mrc	15, 0, r0, cr0, cr1, {4}
80148084:	e12fff1e 	bx	lr

80148088 <__RME_A7A_ID_MMFR1_Get>:
80148088:	ee100fb1 	mrc	15, 0, r0, cr0, cr1, {5}
8014808c:	e12fff1e 	bx	lr

80148090 <__RME_A7A_ID_MMFR2_Get>:
80148090:	ee100fd1 	mrc	15, 0, r0, cr0, cr1, {6}
80148094:	e12fff1e 	bx	lr

80148098 <__RME_A7A_ID_MMFR3_Get>:
80148098:	ee100ff1 	mrc	15, 0, r0, cr0, cr1, {7}
8014809c:	e12fff1e 	bx	lr

801480a0 <__RME_A7A_ID_ISAR0_Get>:
801480a0:	ee100f12 	mrc	15, 0, r0, cr0, cr2, {0}
801480a4:	e12fff1e 	bx	lr

801480a8 <__RME_A7A_ID_ISAR1_Get>:
801480a8:	ee100f32 	mrc	15, 0, r0, cr0, cr2, {1}
801480ac:	e12fff1e 	bx	lr

801480b0 <__RME_A7A_ID_ISAR2_Get>:
801480b0:	ee100f52 	mrc	15, 0, r0, cr0, cr2, {2}
801480b4:	e12fff1e 	bx	lr

801480b8 <__RME_A7A_ID_ISAR3_Get>:
801480b8:	ee100f72 	mrc	15, 0, r0, cr0, cr2, {3}
801480bc:	e12fff1e 	bx	lr

801480c0 <__RME_A7A_ID_ISAR4_Get>:
801480c0:	ee100f92 	mrc	15, 0, r0, cr0, cr2, {4}
801480c4:	e12fff1e 	bx	lr

801480c8 <__RME_A7A_ID_ISAR5_Get>:
801480c8:	ee100fb2 	mrc	15, 0, r0, cr0, cr2, {5}
801480cc:	e12fff1e 	bx	lr

801480d0 <__RME_A7A_ID_CCSIDR_Get>:
801480d0:	ee300f10 	mrc	15, 1, r0, cr0, cr0, {0}
801480d4:	e12fff1e 	bx	lr

801480d8 <__RME_A7A_ID_CLIDR_Get>:
801480d8:	ee300f30 	mrc	15, 1, r0, cr0, cr0, {1}
801480dc:	e12fff1e 	bx	lr

801480e0 <__RME_A7A_ID_AIDR_Get>:
801480e0:	ee300ff0 	mrc	15, 1, r0, cr0, cr0, {7}
801480e4:	e12fff1e 	bx	lr

801480e8 <__RME_A7A_ID_CSSELR_Get>:
801480e8:	ee500f10 	mrc	15, 2, r0, cr0, cr0, {0}
801480ec:	e12fff1e 	bx	lr

801480f0 <__RME_A7A_ID_VPIDR_Get>:
801480f0:	ee900f10 	mrc	15, 4, r0, cr0, cr0, {0}
801480f4:	e12fff1e 	bx	lr

801480f8 <__RME_A7A_ID_VMPIDR_Get>:
801480f8:	ee900fb0 	mrc	15, 4, r0, cr0, cr0, {5}
801480fc:	e12fff1e 	bx	lr

80148100 <__RME_A7A_SCTLR_Get>:
80148100:	ee110f10 	mrc	15, 0, r0, cr1, cr0, {0}
80148104:	e12fff1e 	bx	lr

80148108 <__RME_A7A_ACTLR_Get>:
80148108:	ee110f30 	mrc	15, 0, r0, cr1, cr0, {1}
8014810c:	e12fff1e 	bx	lr

80148110 <__RME_A7A_CPACR_Get>:
80148110:	ee110f50 	mrc	15, 0, r0, cr1, cr0, {2}
80148114:	e12fff1e 	bx	lr

80148118 <__RME_A7A_SCR_Get>:
80148118:	ee110f11 	mrc	15, 0, r0, cr1, cr1, {0}
8014811c:	e12fff1e 	bx	lr

80148120 <__RME_A7A_SDER_Get>:
80148120:	ee110f31 	mrc	15, 0, r0, cr1, cr1, {1}
80148124:	e12fff1e 	bx	lr

80148128 <__RME_A7A_NSACR_Get>:
80148128:	ee110f51 	mrc	15, 0, r0, cr1, cr1, {2}
8014812c:	e12fff1e 	bx	lr

80148130 <__RME_A7A_HSCTLR_Get>:
80148130:	ee910f10 	mrc	15, 4, r0, cr1, cr0, {0}
80148134:	e12fff1e 	bx	lr

80148138 <__RME_A7A_HACTLR_Get>:
80148138:	ee910f30 	mrc	15, 4, r0, cr1, cr0, {1}
8014813c:	e12fff1e 	bx	lr

80148140 <__RME_A7A_HCR_Get>:
80148140:	ee910f11 	mrc	15, 4, r0, cr1, cr1, {0}
80148144:	e12fff1e 	bx	lr

80148148 <__RME_A7A_HDCR_Get>:
80148148:	ee910f31 	mrc	15, 4, r0, cr1, cr1, {1}
8014814c:	e12fff1e 	bx	lr

80148150 <__RME_A7A_HCPTR_Get>:
80148150:	ee910f51 	mrc	15, 4, r0, cr1, cr1, {2}
80148154:	e12fff1e 	bx	lr

80148158 <__RME_A7A_HSTR_Get>:
80148158:	ee910f71 	mrc	15, 4, r0, cr1, cr1, {3}
8014815c:	e12fff1e 	bx	lr

80148160 <__RME_A7A_HACR_Get>:
80148160:	ee910ff1 	mrc	15, 4, r0, cr1, cr1, {7}
80148164:	e12fff1e 	bx	lr

80148168 <__RME_A7A_TTBR0_Get>:
80148168:	ee120f10 	mrc	15, 0, r0, cr2, cr0, {0}
8014816c:	e12fff1e 	bx	lr

80148170 <__RME_A7A_TTBR1_Get>:
80148170:	ee120f30 	mrc	15, 0, r0, cr2, cr0, {1}
80148174:	e12fff1e 	bx	lr

80148178 <__RME_A7A_TTBCR_Get>:
80148178:	ee120f50 	mrc	15, 0, r0, cr2, cr0, {2}
8014817c:	e12fff1e 	bx	lr

80148180 <__RME_A7A_HTCR_Get>:
80148180:	ee920f50 	mrc	15, 4, r0, cr2, cr0, {2}
80148184:	e12fff1e 	bx	lr

80148188 <__RME_A7A_VTCR_Get>:
80148188:	ee920f51 	mrc	15, 4, r0, cr2, cr1, {2}
8014818c:	e12fff1e 	bx	lr

80148190 <__RME_A7A_DACR_Get>:
80148190:	ee130f10 	mrc	15, 0, r0, cr3, cr0, {0}
80148194:	e12fff1e 	bx	lr

80148198 <__RME_A7A_DFSR_Get>:
80148198:	ee150f10 	mrc	15, 0, r0, cr5, cr0, {0}
8014819c:	e12fff1e 	bx	lr

801481a0 <__RME_A7A_IFSR_Get>:
801481a0:	ee150f30 	mrc	15, 0, r0, cr5, cr0, {1}
801481a4:	e12fff1e 	bx	lr

801481a8 <__RME_A7A_ADFSR_Get>:
801481a8:	ee150f11 	mrc	15, 0, r0, cr5, cr1, {0}
801481ac:	e12fff1e 	bx	lr

801481b0 <__RME_A7A_AIFSR_Get>:
801481b0:	ee150f31 	mrc	15, 0, r0, cr5, cr1, {1}
801481b4:	e12fff1e 	bx	lr

801481b8 <__RME_A7A_HADFSR_Get>:
801481b8:	ee950f11 	mrc	15, 4, r0, cr5, cr1, {0}
801481bc:	e12fff1e 	bx	lr

801481c0 <__RME_A7A_HAIFSR_Get>:
801481c0:	ee950f31 	mrc	15, 4, r0, cr5, cr1, {1}
801481c4:	e12fff1e 	bx	lr

801481c8 <__RME_A7A_HSR_Get>:
801481c8:	ee950f12 	mrc	15, 4, r0, cr5, cr2, {0}
801481cc:	e12fff1e 	bx	lr

801481d0 <__RME_A7A_DFAR_Get>:
801481d0:	ee160f10 	mrc	15, 0, r0, cr6, cr0, {0}
801481d4:	e12fff1e 	bx	lr

801481d8 <__RME_A7A_IFAR_Get>:
801481d8:	ee160f50 	mrc	15, 0, r0, cr6, cr0, {2}
801481dc:	e12fff1e 	bx	lr

801481e0 <__RME_A7A_HDFAR_Get>:
801481e0:	ee960f10 	mrc	15, 4, r0, cr6, cr0, {0}
801481e4:	e12fff1e 	bx	lr

801481e8 <__RME_A7A_HIFAR_Get>:
801481e8:	ee960f50 	mrc	15, 4, r0, cr6, cr0, {2}
801481ec:	e12fff1e 	bx	lr

801481f0 <__RME_A7A_HPFAR_Get>:
801481f0:	ee960f90 	mrc	15, 4, r0, cr6, cr0, {4}
801481f4:	e12fff1e 	bx	lr

801481f8 <__RME_A7A_PAR_Get>:
801481f8:	ee170f14 	mrc	15, 0, r0, cr7, cr4, {0}
801481fc:	e12fff1e 	bx	lr

80148200 <__RME_A7A_TLBLR_Get>:
80148200:	ee1a0f10 	mrc	15, 0, r0, cr10, cr0, {0}
80148204:	e12fff1e 	bx	lr

80148208 <__RME_A7A_PRRR_Get>:
80148208:	ee1a0f12 	mrc	15, 0, r0, cr10, cr2, {0}
8014820c:	e12fff1e 	bx	lr

80148210 <__RME_A7A_NMRR_Get>:
80148210:	ee1a0f32 	mrc	15, 0, r0, cr10, cr2, {1}
80148214:	e12fff1e 	bx	lr

80148218 <__RME_A7A_AMAIR0_Get>:
80148218:	ee1a0f13 	mrc	15, 0, r0, cr10, cr3, {0}
8014821c:	e12fff1e 	bx	lr

80148220 <__RME_A7A_AMAIR1_Get>:
80148220:	ee1a0f33 	mrc	15, 0, r0, cr10, cr3, {1}
80148224:	e12fff1e 	bx	lr

80148228 <__RME_A7A_HMAIR0_Get>:
80148228:	ee9a0f12 	mrc	15, 4, r0, cr10, cr2, {0}
8014822c:	e12fff1e 	bx	lr

80148230 <__RME_A7A_HMAIR1_Get>:
80148230:	ee9a0f32 	mrc	15, 4, r0, cr10, cr2, {1}
80148234:	e12fff1e 	bx	lr

80148238 <__RME_A7A_HAMAIR0_Get>:
80148238:	ee9a0f13 	mrc	15, 4, r0, cr10, cr3, {0}
8014823c:	e12fff1e 	bx	lr

80148240 <__RME_A7A_HAMAIR1_Get>:
80148240:	ee9a0f33 	mrc	15, 4, r0, cr10, cr3, {1}
80148244:	e12fff1e 	bx	lr

80148248 <__RME_A7A_VBAR_Get>:
80148248:	ee1c0f10 	mrc	15, 0, r0, cr12, cr0, {0}
8014824c:	e12fff1e 	bx	lr

80148250 <__RME_A7A_MVBAR_Get>:
80148250:	ee1c0f30 	mrc	15, 0, r0, cr12, cr0, {1}
80148254:	e12fff1e 	bx	lr

80148258 <__RME_A7A_ISR_Get>:
80148258:	ee1c0f11 	mrc	15, 0, r0, cr12, cr1, {0}
8014825c:	e12fff1e 	bx	lr

80148260 <__RME_A7A_HVBAR_Get>:
80148260:	ee9c0f10 	mrc	15, 4, r0, cr12, cr0, {0}
80148264:	e12fff1e 	bx	lr

80148268 <__RME_A7A_FCSEIDR_Get>:
80148268:	ee1d0f10 	mrc	15, 0, r0, cr13, cr0, {0}
8014826c:	e12fff1e 	bx	lr

80148270 <__RME_A7A_CONTEXTIDR_Get>:
80148270:	ee1d0f30 	mrc	15, 0, r0, cr13, cr0, {1}
80148274:	e12fff1e 	bx	lr

80148278 <__RME_A7A_TPIDRURW_Get>:
80148278:	ee1d0f50 	mrc	15, 0, r0, cr13, cr0, {2}
8014827c:	e12fff1e 	bx	lr

80148280 <__RME_A7A_TPIDRURO_Get>:
80148280:	ee1d0f70 	mrc	15, 0, r0, cr13, cr0, {3}
80148284:	e12fff1e 	bx	lr

80148288 <__RME_A7A_TPIDRPRW_Get>:
80148288:	ee1d0f90 	mrc	15, 0, r0, cr13, cr0, {4}
8014828c:	e12fff1e 	bx	lr

80148290 <__RME_A7A_HTPIDR_Get>:
80148290:	ee9d0f50 	mrc	15, 4, r0, cr13, cr0, {2}
80148294:	e12fff1e 	bx	lr

80148298 <__RME_A7A_CNTFRQ_Get>:
80148298:	ee1e0f10 	mrc	15, 0, r0, cr14, cr0, {0}
8014829c:	e12fff1e 	bx	lr

801482a0 <__RME_A7A_CNTKCTL_Get>:
801482a0:	ee1e0f11 	mrc	15, 0, r0, cr14, cr1, {0}
801482a4:	e12fff1e 	bx	lr

801482a8 <__RME_A7A_CNTP_TVAL_Get>:
801482a8:	ee1e0f12 	mrc	15, 0, r0, cr14, cr2, {0}
801482ac:	e12fff1e 	bx	lr

801482b0 <__RME_A7A_CNTP_CTL_Get>:
801482b0:	ee1e0f32 	mrc	15, 0, r0, cr14, cr2, {1}
801482b4:	e12fff1e 	bx	lr

801482b8 <__RME_A7A_CNTV_TVAL_Get>:
801482b8:	ee1e0f13 	mrc	15, 0, r0, cr14, cr3, {0}
801482bc:	e12fff1e 	bx	lr

801482c0 <__RME_A7A_CNTV_CTL_Get>:
801482c0:	ee1e0f33 	mrc	15, 0, r0, cr14, cr3, {1}
801482c4:	e12fff1e 	bx	lr

801482c8 <__RME_A7A_CNTHCTL_Get>:
801482c8:	ee9e0f11 	mrc	15, 4, r0, cr14, cr1, {0}
801482cc:	e12fff1e 	bx	lr

801482d0 <__RME_A7A_CNTHP_TVAL_Get>:
801482d0:	ee9e0f12 	mrc	15, 4, r0, cr14, cr2, {0}
801482d4:	e12fff1e 	bx	lr

801482d8 <__RME_A7A_CNTHP_CTL_Get>:
801482d8:	ee9e0f32 	mrc	15, 4, r0, cr14, cr2, {1}
801482dc:	e12fff1e 	bx	lr

801482e0 <__RME_A7A_CNTPCT_DW_Get>:
801482e0:	ec532f0e 	mrrc	15, 0, r2, r3, cr14
801482e4:	e5802000 	str	r2, [r0]
801482e8:	e5813000 	str	r3, [r1]
801482ec:	e12fff1e 	bx	lr

801482f0 <__RME_A7A_CNTVCT_DW_Get>:
801482f0:	ec532f1e 	mrrc	15, 1, r2, r3, cr14
801482f4:	e5802000 	str	r2, [r0]
801482f8:	e5813000 	str	r3, [r1]
801482fc:	e12fff1e 	bx	lr

80148300 <__RME_A7A_CNTP_CVAL_DW_Get>:
80148300:	ec532f2e 	mrrc	15, 2, r2, r3, cr14
80148304:	e5802000 	str	r2, [r0]
80148308:	e5813000 	str	r3, [r1]
8014830c:	e12fff1e 	bx	lr

80148310 <__RME_A7A_CNTV_CVAL_DW_Get>:
80148310:	ec532f3e 	mrrc	15, 3, r2, r3, cr14
80148314:	e5802000 	str	r2, [r0]
80148318:	e5813000 	str	r3, [r1]
8014831c:	e12fff1e 	bx	lr

80148320 <__RME_A7A_CNTVOFF_DW_Get>:
80148320:	ec532f4e 	mrrc	15, 4, r2, r3, cr14
80148324:	e5802000 	str	r2, [r0]
80148328:	e5813000 	str	r3, [r1]
8014832c:	e12fff1e 	bx	lr

80148330 <__RME_A7A_CNTHP_CVAL_DW_Get>:
80148330:	ec532f6e 	mrrc	15, 6, r2, r3, cr14
80148334:	e5802000 	str	r2, [r0]
80148338:	e5813000 	str	r3, [r1]
8014833c:	e12fff1e 	bx	lr

80148340 <__RME_A7A_CPSR_Set>:
80148340:	e129f000 	msr	CPSR_fc, r0
80148344:	e12fff1e 	bx	lr

80148348 <__RME_A7A_SPSR_Set>:
80148348:	e169f000 	msr	SPSR_fc, r0
8014834c:	e12fff1e 	bx	lr

80148350 <__RME_A7A_ID_CSSELR_Set>:
80148350:	ee400f10 	mcr	15, 2, r0, cr0, cr0, {0}
80148354:	e12fff1e 	bx	lr

80148358 <__RME_A7A_ID_VPIDR_Set>:
80148358:	ee800f10 	mcr	15, 4, r0, cr0, cr0, {0}
8014835c:	e12fff1e 	bx	lr

80148360 <__RME_A7A_ID_VMPIDR_Set>:
80148360:	ee800fb0 	mcr	15, 4, r0, cr0, cr0, {5}
80148364:	e12fff1e 	bx	lr

80148368 <__RME_A7A_SCTLR_Set>:
80148368:	ee010f10 	mcr	15, 0, r0, cr1, cr0, {0}
8014836c:	e12fff1e 	bx	lr

80148370 <__RME_A7A_ACTLR_Set>:
80148370:	ee010f30 	mcr	15, 0, r0, cr1, cr0, {1}
80148374:	e12fff1e 	bx	lr

80148378 <__RME_A7A_CPACR_Set>:
80148378:	ee010f50 	mcr	15, 0, r0, cr1, cr0, {2}
8014837c:	e12fff1e 	bx	lr

80148380 <__RME_A7A_SCR_Set>:
80148380:	ee010f11 	mcr	15, 0, r0, cr1, cr1, {0}
80148384:	e12fff1e 	bx	lr

80148388 <__RME_A7A_SDER_Set>:
80148388:	ee010f31 	mcr	15, 0, r0, cr1, cr1, {1}
8014838c:	e12fff1e 	bx	lr

80148390 <__RME_A7A_NSACR_Set>:
80148390:	ee010f51 	mcr	15, 0, r0, cr1, cr1, {2}
80148394:	e12fff1e 	bx	lr

80148398 <__RME_A7A_HSCTLR_Set>:
80148398:	ee810f10 	mcr	15, 4, r0, cr1, cr0, {0}
8014839c:	e12fff1e 	bx	lr

801483a0 <__RME_A7A_HACTLR_Set>:
801483a0:	ee810f30 	mcr	15, 4, r0, cr1, cr0, {1}
801483a4:	e12fff1e 	bx	lr

801483a8 <__RME_A7A_HCR_Set>:
801483a8:	ee810f11 	mcr	15, 4, r0, cr1, cr1, {0}
801483ac:	e12fff1e 	bx	lr

801483b0 <__RME_A7A_HDCR_Set>:
801483b0:	ee810f31 	mcr	15, 4, r0, cr1, cr1, {1}
801483b4:	e12fff1e 	bx	lr

801483b8 <__RME_A7A_HCPTR_Set>:
801483b8:	ee810f51 	mcr	15, 4, r0, cr1, cr1, {2}
801483bc:	e12fff1e 	bx	lr

801483c0 <__RME_A7A_HSTR_Set>:
801483c0:	ee810f71 	mcr	15, 4, r0, cr1, cr1, {3}
801483c4:	e12fff1e 	bx	lr

801483c8 <__RME_A7A_HACR_Set>:
801483c8:	ee810ff1 	mcr	15, 4, r0, cr1, cr1, {7}
801483cc:	e12fff1e 	bx	lr

801483d0 <__RME_A7A_Pgt_Set>:
801483d0:	ee020f10 	mcr	15, 0, r0, cr2, cr0, {0}
801483d4:	e12fff1e 	bx	lr

801483d8 <__RME_A7A_TTBR1_Set>:
801483d8:	ee020f30 	mcr	15, 0, r0, cr2, cr0, {1}
801483dc:	e12fff1e 	bx	lr

801483e0 <__RME_A7A_TTBCR_Set>:
801483e0:	ee020f50 	mcr	15, 0, r0, cr2, cr0, {2}
801483e4:	e12fff1e 	bx	lr

801483e8 <__RME_A7A_HTCR_Set>:
801483e8:	ee820f50 	mcr	15, 4, r0, cr2, cr0, {2}
801483ec:	e12fff1e 	bx	lr

801483f0 <__RME_A7A_VTCR_Set>:
801483f0:	ee820f51 	mcr	15, 4, r0, cr2, cr1, {2}
801483f4:	e12fff1e 	bx	lr

801483f8 <__RME_A7A_DACR_Set>:
801483f8:	ee030f10 	mcr	15, 0, r0, cr3, cr0, {0}
801483fc:	e12fff1e 	bx	lr

80148400 <__RME_A7A_DFSR_Set>:
80148400:	ee050f10 	mcr	15, 0, r0, cr5, cr0, {0}
80148404:	e12fff1e 	bx	lr

80148408 <__RME_A7A_IFSR_Set>:
80148408:	ee050f30 	mcr	15, 0, r0, cr5, cr0, {1}
8014840c:	e12fff1e 	bx	lr

80148410 <__RME_A7A_ADFSR_Set>:
80148410:	ee050f11 	mcr	15, 0, r0, cr5, cr1, {0}
80148414:	e12fff1e 	bx	lr

80148418 <__RME_A7A_AIFSR_Set>:
80148418:	ee050f31 	mcr	15, 0, r0, cr5, cr1, {1}
8014841c:	e12fff1e 	bx	lr

80148420 <__RME_A7A_HADFSR_Set>:
80148420:	ee850f11 	mcr	15, 4, r0, cr5, cr1, {0}
80148424:	e12fff1e 	bx	lr

80148428 <__RME_A7A_HAIFSR_Set>:
80148428:	ee850f31 	mcr	15, 4, r0, cr5, cr1, {1}
8014842c:	e12fff1e 	bx	lr

80148430 <__RME_A7A_HSR_Set>:
80148430:	ee850f12 	mcr	15, 4, r0, cr5, cr2, {0}
80148434:	e12fff1e 	bx	lr

80148438 <__RME_A7A_DFAR_Set>:
80148438:	ee060f10 	mcr	15, 0, r0, cr6, cr0, {0}
8014843c:	e12fff1e 	bx	lr

80148440 <__RME_A7A_IFAR_Set>:
80148440:	ee060f50 	mcr	15, 0, r0, cr6, cr0, {2}
80148444:	e12fff1e 	bx	lr

80148448 <__RME_A7A_HDFAR_Set>:
80148448:	ee860f10 	mcr	15, 4, r0, cr6, cr0, {0}
8014844c:	e12fff1e 	bx	lr

80148450 <__RME_A7A_HIFAR_Set>:
80148450:	ee860f50 	mcr	15, 4, r0, cr6, cr0, {2}
80148454:	e12fff1e 	bx	lr

80148458 <__RME_A7A_HPFAR_Set>:
80148458:	ee860f90 	mcr	15, 4, r0, cr6, cr0, {4}
8014845c:	e12fff1e 	bx	lr

80148460 <__RME_A7A_ICIALLUIS_Set>:
80148460:	ee070f11 	mcr	15, 0, r0, cr7, cr1, {0}
80148464:	e12fff1e 	bx	lr

80148468 <__RME_A7A_BPIALLIS_Set>:
80148468:	ee070fd1 	mcr	15, 0, r0, cr7, cr1, {6}
8014846c:	e12fff1e 	bx	lr

80148470 <__RME_A7A_PAR_Set>:
80148470:	ee070fd4 	mcr	15, 0, r0, cr7, cr4, {6}
80148474:	e12fff1e 	bx	lr

80148478 <__RME_A7A_ICIALLU_Set>:
80148478:	ee070f15 	mcr	15, 0, r0, cr7, cr5, {0}
8014847c:	e12fff1e 	bx	lr

80148480 <__RME_A7A_ICIMVAU_Set>:
80148480:	ee070f35 	mcr	15, 0, r0, cr7, cr5, {1}
80148484:	e12fff1e 	bx	lr

80148488 <__RME_A7A_CP15ISB_Set>:
80148488:	ee070f95 	mcr	15, 0, r0, cr7, cr5, {4}
8014848c:	e12fff1e 	bx	lr

80148490 <__RME_A7A_BPIALL_Set>:
80148490:	ee070fd5 	mcr	15, 0, r0, cr7, cr5, {6}
80148494:	e12fff1e 	bx	lr

80148498 <__RME_A7A_BPIMVA_Set>:
80148498:	ee070ff5 	mcr	15, 0, r0, cr7, cr5, {7}
8014849c:	e12fff1e 	bx	lr

801484a0 <__RME_A7A_DCIMVAC_Set>:
801484a0:	ee070f36 	mcr	15, 0, r0, cr7, cr6, {1}
801484a4:	e12fff1e 	bx	lr

801484a8 <__RME_A7A_DCISW_Set>:
801484a8:	ee070f56 	mcr	15, 0, r0, cr7, cr6, {2}
801484ac:	e12fff1e 	bx	lr

801484b0 <__RME_A7A_ATS1CPR_Set>:
801484b0:	ee070f18 	mcr	15, 0, r0, cr7, cr8, {0}
801484b4:	e12fff1e 	bx	lr

801484b8 <__RME_A7A_ATS1CPW_Set>:
801484b8:	ee070f38 	mcr	15, 0, r0, cr7, cr8, {1}
801484bc:	e12fff1e 	bx	lr

801484c0 <__RME_A7A_ATS1CUR_Set>:
801484c0:	ee070f58 	mcr	15, 0, r0, cr7, cr8, {2}
801484c4:	e12fff1e 	bx	lr

801484c8 <__RME_A7A_ATS1CUW_Set>:
801484c8:	ee070f78 	mcr	15, 0, r0, cr7, cr8, {3}
801484cc:	e12fff1e 	bx	lr

801484d0 <__RME_A7A_ATS12NSOPR_Set>:
801484d0:	ee070f98 	mcr	15, 0, r0, cr7, cr8, {4}
801484d4:	e12fff1e 	bx	lr

801484d8 <__RME_A7A_ATS12NSOPW_Set>:
801484d8:	ee070fb8 	mcr	15, 0, r0, cr7, cr8, {5}
801484dc:	e12fff1e 	bx	lr

801484e0 <__RME_A7A_ATS12NSOUR_Set>:
801484e0:	ee070fd8 	mcr	15, 0, r0, cr7, cr8, {6}
801484e4:	e12fff1e 	bx	lr

801484e8 <__RME_A7A_ATS12NSOUW_Set>:
801484e8:	ee070ff8 	mcr	15, 0, r0, cr7, cr8, {7}
801484ec:	e12fff1e 	bx	lr

801484f0 <__RME_A7A_DCCMVAC_Set>:
801484f0:	ee070f3a 	mcr	15, 0, r0, cr7, cr10, {1}
801484f4:	e12fff1e 	bx	lr

801484f8 <__RME_A7A_DCCSW_Set>:
801484f8:	ee070f5a 	mcr	15, 0, r0, cr7, cr10, {2}
801484fc:	e12fff1e 	bx	lr

80148500 <__RME_A7A_CP15DSB_Set>:
80148500:	ee070f9a 	mcr	15, 0, r0, cr7, cr10, {4}
80148504:	e12fff1e 	bx	lr

80148508 <__RME_A7A_CP15DMB_Set>:
80148508:	ee070fba 	mcr	15, 0, r0, cr7, cr10, {5}
8014850c:	e12fff1e 	bx	lr

80148510 <__RME_A7A_DCCMVAU_Set>:
80148510:	ee070f3b 	mcr	15, 0, r0, cr7, cr11, {1}
80148514:	e12fff1e 	bx	lr

80148518 <__RME_A7A_DCCIMVAC_Set>:
80148518:	ee070f3e 	mcr	15, 0, r0, cr7, cr14, {1}
8014851c:	e12fff1e 	bx	lr

80148520 <__RME_A7A_DCCISW_Set>:
80148520:	ee070f5e 	mcr	15, 0, r0, cr7, cr14, {2}
80148524:	e12fff1e 	bx	lr

80148528 <__RME_A7A_ATS1HR_Set>:
80148528:	ee870f18 	mcr	15, 4, r0, cr7, cr8, {0}
8014852c:	e12fff1e 	bx	lr

80148530 <__RME_A7A_ATS1HW_Set>:
80148530:	ee870f38 	mcr	15, 4, r0, cr7, cr8, {1}
80148534:	e12fff1e 	bx	lr

80148538 <__RME_A7A_TLBIALLIS_Set>:
80148538:	ee080f13 	mcr	15, 0, r0, cr8, cr3, {0}
8014853c:	e12fff1e 	bx	lr

80148540 <__RME_A7A_TLBIMVAIS_Set>:
80148540:	ee080f33 	mcr	15, 0, r0, cr8, cr3, {1}
80148544:	e12fff1e 	bx	lr

80148548 <__RME_A7A_TLBIASIDIS_Set>:
80148548:	ee080f53 	mcr	15, 0, r0, cr8, cr3, {2}
8014854c:	e12fff1e 	bx	lr

80148550 <__RME_A7A_TLBIMVAAIS_Set>:
80148550:	ee080f73 	mcr	15, 0, r0, cr8, cr3, {3}
80148554:	e12fff1e 	bx	lr

80148558 <__RME_A7A_ITLBIALL_Set>:
80148558:	ee080f15 	mcr	15, 0, r0, cr8, cr5, {0}
8014855c:	e12fff1e 	bx	lr

80148560 <__RME_A7A_ITLBIMVA_Set>:
80148560:	ee080f35 	mcr	15, 0, r0, cr8, cr5, {1}
80148564:	e12fff1e 	bx	lr

80148568 <__RME_A7A_ITLBIASID_Set>:
80148568:	ee080f55 	mcr	15, 0, r0, cr8, cr5, {2}
8014856c:	e12fff1e 	bx	lr

80148570 <__RME_A7A_DTLBIALL_Set>:
80148570:	ee080f16 	mcr	15, 0, r0, cr8, cr6, {0}
80148574:	e12fff1e 	bx	lr

80148578 <__RME_A7A_DTLBIMVA_Set>:
80148578:	ee080f36 	mcr	15, 0, r0, cr8, cr6, {1}
8014857c:	e12fff1e 	bx	lr

80148580 <__RME_A7A_DTLBIASID_Set>:
80148580:	ee080f56 	mcr	15, 0, r0, cr8, cr6, {2}
80148584:	e12fff1e 	bx	lr

80148588 <__RME_A7A_TLBIALL_Set>:
80148588:	ee080f17 	mcr	15, 0, r0, cr8, cr7, {0}
8014858c:	e12fff1e 	bx	lr

80148590 <__RME_A7A_TLBIMVA_Set>:
80148590:	ee080f37 	mcr	15, 0, r0, cr8, cr7, {1}
80148594:	e12fff1e 	bx	lr

80148598 <__RME_A7A_TLBIASID_Set>:
80148598:	ee080f57 	mcr	15, 0, r0, cr8, cr7, {2}
8014859c:	e12fff1e 	bx	lr

801485a0 <__RME_A7A_TLBIMVAA_Set>:
801485a0:	ee080f77 	mcr	15, 0, r0, cr8, cr7, {3}
801485a4:	e12fff1e 	bx	lr

801485a8 <__RME_A7A_TLBIALLHIS_Set>:
801485a8:	ee880f13 	mcr	15, 4, r0, cr8, cr3, {0}
801485ac:	e12fff1e 	bx	lr

801485b0 <__RME_A7A_TLBIMVAHIS_Set>:
801485b0:	ee880f33 	mcr	15, 4, r0, cr8, cr3, {1}
801485b4:	e12fff1e 	bx	lr

801485b8 <__RME_A7A_TLBIALLNSNHIS_Set>:
801485b8:	ee880f93 	mcr	15, 4, r0, cr8, cr3, {4}
801485bc:	e12fff1e 	bx	lr

801485c0 <__RME_A7A_TLBIALLH_Set>:
801485c0:	ee880f17 	mcr	15, 4, r0, cr8, cr7, {0}
801485c4:	e12fff1e 	bx	lr

801485c8 <__RME_A7A_TLBIMVAH_Set>:
801485c8:	ee880f37 	mcr	15, 4, r0, cr8, cr7, {1}
801485cc:	e12fff1e 	bx	lr

801485d0 <__RME_A7A_TLBIALLNSNH_Set>:
801485d0:	ee880f97 	mcr	15, 4, r0, cr8, cr7, {4}
801485d4:	e12fff1e 	bx	lr

801485d8 <__RME_A7A_TLBLR_Set>:
801485d8:	ee0a0f10 	mcr	15, 0, r0, cr10, cr0, {0}
801485dc:	e12fff1e 	bx	lr

801485e0 <__RME_A7A_PRRR_Set>:
801485e0:	ee0a0f12 	mcr	15, 0, r0, cr10, cr2, {0}
801485e4:	e12fff1e 	bx	lr

801485e8 <__RME_A7A_NMRR_Set>:
801485e8:	ee0a0f32 	mcr	15, 0, r0, cr10, cr2, {1}
801485ec:	e12fff1e 	bx	lr

801485f0 <__RME_A7A_AMAIR0_Set>:
801485f0:	ee0a0f13 	mcr	15, 0, r0, cr10, cr3, {0}
801485f4:	e12fff1e 	bx	lr

801485f8 <__RME_A7A_AMAIR1_Set>:
801485f8:	ee0a0f33 	mcr	15, 0, r0, cr10, cr3, {1}
801485fc:	e12fff1e 	bx	lr

80148600 <__RME_A7A_HMAIR0_Set>:
80148600:	ee8a0f12 	mcr	15, 4, r0, cr10, cr2, {0}
80148604:	e12fff1e 	bx	lr

80148608 <__RME_A7A_HMAIR1_Set>:
80148608:	ee8a0f32 	mcr	15, 4, r0, cr10, cr2, {1}
8014860c:	e12fff1e 	bx	lr

80148610 <__RME_A7A_HAMAIR0_Set>:
80148610:	ee8a0f13 	mcr	15, 4, r0, cr10, cr3, {0}
80148614:	e12fff1e 	bx	lr

80148618 <__RME_A7A_HAMAIR1_Set>:
80148618:	ee8a0f33 	mcr	15, 4, r0, cr10, cr3, {1}
8014861c:	e12fff1e 	bx	lr

80148620 <__RME_A7A_VBAR_Set>:
80148620:	ee0c0f10 	mcr	15, 0, r0, cr12, cr0, {0}
80148624:	e12fff1e 	bx	lr

80148628 <__RME_A7A_MVBAR_Set>:
80148628:	ee0c0f30 	mcr	15, 0, r0, cr12, cr0, {1}
8014862c:	e12fff1e 	bx	lr

80148630 <__RME_A7A_HVBAR_Set>:
80148630:	ee8c0f10 	mcr	15, 4, r0, cr12, cr0, {0}
80148634:	e12fff1e 	bx	lr

80148638 <__RME_A7A_CONTEXTIDR_Set>:
80148638:	ee0d0f30 	mcr	15, 0, r0, cr13, cr0, {1}
8014863c:	e12fff1e 	bx	lr

80148640 <__RME_A7A_TPIDRURW_Set>:
80148640:	ee0d0f50 	mcr	15, 0, r0, cr13, cr0, {2}
80148644:	e12fff1e 	bx	lr

80148648 <__RME_A7A_TPIDRURO_Set>:
80148648:	ee0d0f70 	mcr	15, 0, r0, cr13, cr0, {3}
8014864c:	e12fff1e 	bx	lr

80148650 <__RME_A7A_TPIDRPRW_Set>:
80148650:	ee0d0f90 	mcr	15, 0, r0, cr13, cr0, {4}
80148654:	e12fff1e 	bx	lr

80148658 <__RME_A7A_HTPIDR_Set>:
80148658:	ee8d0f50 	mcr	15, 4, r0, cr13, cr0, {2}
8014865c:	e12fff1e 	bx	lr

80148660 <__RME_A7A_CNTFRQ_Set>:
80148660:	ee0e0f10 	mcr	15, 0, r0, cr14, cr0, {0}
80148664:	e12fff1e 	bx	lr

80148668 <__RME_A7A_CNTKCTL_Set>:
80148668:	ee0e0f11 	mcr	15, 0, r0, cr14, cr1, {0}
8014866c:	e12fff1e 	bx	lr

80148670 <__RME_A7A_CNTP_TVAL_Set>:
80148670:	ee0e0f12 	mcr	15, 0, r0, cr14, cr2, {0}
80148674:	e12fff1e 	bx	lr

80148678 <__RME_A7A_CNTP_CTL_Set>:
80148678:	ee0e0f32 	mcr	15, 0, r0, cr14, cr2, {1}
8014867c:	e12fff1e 	bx	lr

80148680 <__RME_A7A_CNTV_TVAL_Set>:
80148680:	ee0e0f13 	mcr	15, 0, r0, cr14, cr3, {0}
80148684:	e12fff1e 	bx	lr

80148688 <__RME_A7A_CNTV_CTL_Set>:
80148688:	ee0e0f33 	mcr	15, 0, r0, cr14, cr3, {1}
8014868c:	e12fff1e 	bx	lr

80148690 <__RME_A7A_CNTHCTL_Set>:
80148690:	ee8e0f11 	mcr	15, 4, r0, cr14, cr1, {0}
80148694:	e12fff1e 	bx	lr

80148698 <__RME_A7A_CNTHP_TVAL_Set>:
80148698:	ee8e0f12 	mcr	15, 4, r0, cr14, cr2, {0}
8014869c:	e12fff1e 	bx	lr

801486a0 <__RME_A7A_CNTHP_CTL_Set>:
801486a0:	ee8e0f32 	mcr	15, 4, r0, cr14, cr2, {1}
801486a4:	e12fff1e 	bx	lr

801486a8 <__RME_A7A_CNTP_CVAL_DW_Set>:
801486a8:	ec400f2e 	mcrr	15, 2, r0, r0, cr14
801486ac:	e12fff1e 	bx	lr

801486b0 <__RME_A7A_CNTV_CVAL_DW_Set>:
801486b0:	ec400f3e 	mcrr	15, 3, r0, r0, cr14
801486b4:	e12fff1e 	bx	lr

801486b8 <__RME_A7A_CNTVOFF_DW_Set>:
801486b8:	ec400f4e 	mcrr	15, 4, r0, r0, cr14
801486bc:	e12fff1e 	bx	lr

801486c0 <__RME_A7A_CNTHP_CVAL_DW_Set>:
801486c0:	ec400f6e 	mcrr	15, 6, r0, r0, cr14
801486c4:	e12fff1e 	bx	lr

801486c8 <__RME_A7A_Fetch_Add>:
801486c8:	e1902f9f 	ldrex	r2, [r0]
801486cc:	e0823001 	add	r3, r2, r1
801486d0:	e180cf93 	strex	ip, r3, [r0]
801486d4:	e35c0000 	cmp	ip, #0
801486d8:	1afffffa 	bne	801486c8 <__RME_A7A_Fetch_Add>
801486dc:	e1a00002 	mov	r0, r2
801486e0:	e12fff1e 	bx	lr

801486e4 <__RME_A7A_Fetch_And>:
801486e4:	e1902f9f 	ldrex	r2, [r0]
801486e8:	e0023001 	and	r3, r2, r1
801486ec:	e180cf93 	strex	ip, r3, [r0]
801486f0:	e35c0000 	cmp	ip, #0
801486f4:	1afffff3 	bne	801486c8 <__RME_A7A_Fetch_Add>
801486f8:	e1a00002 	mov	r0, r2
801486fc:	e12fff1e 	bx	lr

80148700 <__RME_A7A_Read_Acquire>:
80148700:	e5900000 	ldr	r0, [r0]
80148704:	f57ff05f 	dmb	sy
80148708:	e12fff1e 	bx	lr

8014870c <__RME_A7A_Write_Release>:
8014870c:	f57ff05f 	dmb	sy
80148710:	e5801000 	str	r1, [r0]
80148714:	e12fff1e 	bx	lr

80148718 <__RME_Int_Disable>:
80148718:	f10c0080 	cpsid	i
8014871c:	e12fff1e 	bx	lr

80148720 <__RME_Int_Enable>:
80148720:	f1080080 	cpsie	i
80148724:	e12fff1e 	bx	lr

80148728 <__RME_A7A_Halt>:
80148728:	e320f003 	wfi
8014872c:	e12fff1e 	bx	lr

80148730 <_RME_Kmain>:
80148730:	e1a0000d 	mov	r0, sp
80148734:	eb000624 	bl	80149fcc <RME_Kmain>

80148738 <__RME_A7A_MSB_Get>:
80148738:	e16f1f10 	clz	r1, r0
8014873c:	e3a0001f 	mov	r0, #31
80148740:	e0400001 	sub	r0, r0, r1
80148744:	e12fff1e 	bx	lr

80148748 <__RME_User_Enter>:
80148748:	e52d0004 	push	{r0}		; (str r0, [sp, #-4]!)
8014874c:	e1a00002 	mov	r0, r2
80148750:	e3a02010 	mov	r2, #16
80148754:	e169f002 	msr	SPSR_fc, r2
80148758:	e125f201 	msr	SP_usr, r1
8014875c:	e8fd8000 	ldm	sp!, {pc}^

80148760 <Reset_Handler>:
80148760:	eafffffe 	b	80148760 <Reset_Handler>

80148764 <Undefined_Handler>:
80148764:	e52de004 	push	{lr}		; (str lr, [sp, #-4]!)
80148768:	e94d6000 	stmdb	sp, {sp, lr}^
8014876c:	e24dd008 	sub	sp, sp, #8
80148770:	e92d1fff 	push	{r0, r1, r2, r3, r4, r5, r6, r7, r8, r9, sl, fp, ip}
80148774:	e14f0000 	mrs	r0, SPSR
80148778:	e52d0004 	push	{r0}		; (str r0, [sp, #-4]!)
8014877c:	e1a0000d 	mov	r0, sp
80148780:	eb001513 	bl	8014dbd4 <__RME_A7A_Undefined_Handler>
80148784:	e49d0004 	pop	{r0}		; (ldr r0, [sp], #4)
80148788:	e16ff000 	msr	SPSR_fsxc, r0
8014878c:	e8bd1fff 	pop	{r0, r1, r2, r3, r4, r5, r6, r7, r8, r9, sl, fp, ip}
80148790:	e8dd6000 	ldm	sp, {sp, lr}^
80148794:	e28dd008 	add	sp, sp, #8
80148798:	e8fd8000 	ldm	sp!, {pc}^

8014879c <Prefetch_Abort_Handler>:
8014879c:	e52de004 	push	{lr}		; (str lr, [sp, #-4]!)
801487a0:	e94d6000 	stmdb	sp, {sp, lr}^
801487a4:	e24dd008 	sub	sp, sp, #8
801487a8:	e92d1fff 	push	{r0, r1, r2, r3, r4, r5, r6, r7, r8, r9, sl, fp, ip}
801487ac:	e14f0000 	mrs	r0, SPSR
801487b0:	e52d0004 	push	{r0}		; (str r0, [sp, #-4]!)
801487b4:	e1a0000d 	mov	r0, sp
801487b8:	eb001506 	bl	8014dbd8 <__RME_A7A_Prefetch_Abort_Handler>
801487bc:	e49d0004 	pop	{r0}		; (ldr r0, [sp], #4)
801487c0:	e16ff000 	msr	SPSR_fsxc, r0
801487c4:	e8bd1fff 	pop	{r0, r1, r2, r3, r4, r5, r6, r7, r8, r9, sl, fp, ip}
801487c8:	e8dd6000 	ldm	sp, {sp, lr}^
801487cc:	e28dd008 	add	sp, sp, #8
801487d0:	e8fd8000 	ldm	sp!, {pc}^

801487d4 <Data_Abort_Handler>:
801487d4:	e52de004 	push	{lr}		; (str lr, [sp, #-4]!)
801487d8:	e94d6000 	stmdb	sp, {sp, lr}^
801487dc:	e24dd008 	sub	sp, sp, #8
801487e0:	e92d1fff 	push	{r0, r1, r2, r3, r4, r5, r6, r7, r8, r9, sl, fp, ip}
801487e4:	e14f0000 	mrs	r0, SPSR
801487e8:	e52d0004 	push	{r0}		; (str r0, [sp, #-4]!)
801487ec:	e1a0000d 	mov	r0, sp
801487f0:	eb0014f9 	bl	8014dbdc <__RME_A7A_Data_Abort_Handler>
801487f4:	e49d0004 	pop	{r0}		; (ldr r0, [sp], #4)
801487f8:	e16ff000 	msr	SPSR_fsxc, r0
801487fc:	e8bd1fff 	pop	{r0, r1, r2, r3, r4, r5, r6, r7, r8, r9, sl, fp, ip}
80148800:	e8dd6000 	ldm	sp, {sp, lr}^
80148804:	e28dd008 	add	sp, sp, #8
80148808:	e8fd8000 	ldm	sp!, {pc}^

8014880c <SVC_Handler>:
8014880c:	e52de004 	push	{lr}		; (str lr, [sp, #-4]!)
80148810:	e94d6000 	stmdb	sp, {sp, lr}^
80148814:	e24dd008 	sub	sp, sp, #8
80148818:	e92d1fff 	push	{r0, r1, r2, r3, r4, r5, r6, r7, r8, r9, sl, fp, ip}
8014881c:	e14f0000 	mrs	r0, SPSR
80148820:	e52d0004 	push	{r0}		; (str r0, [sp, #-4]!)
80148824:	e1a0000d 	mov	r0, sp
80148828:	eb000b1c 	bl	8014b4a0 <_RME_Svc_Handler>
8014882c:	e49d0004 	pop	{r0}		; (ldr r0, [sp], #4)
80148830:	e16ff000 	msr	SPSR_fsxc, r0
80148834:	e8bd1fff 	pop	{r0, r1, r2, r3, r4, r5, r6, r7, r8, r9, sl, fp, ip}
80148838:	e8dd6000 	ldm	sp, {sp, lr}^
8014883c:	e28dd008 	add	sp, sp, #8
80148840:	e8fd8000 	ldm	sp!, {pc}^

80148844 <IRQ_Handler>:
80148844:	e59f0044 	ldr	r0, [pc, #68]	; 80148890 <FIQ_Handler+0x4>
80148848:	e59f1044 	ldr	r1, [pc, #68]	; 80148894 <FIQ_Handler+0x8>
8014884c:	e5801000 	str	r1, [r0]
80148850:	eafffffe 	b	80148850 <IRQ_Handler+0xc>
80148854:	e52de004 	push	{lr}		; (str lr, [sp, #-4]!)
80148858:	e94d6000 	stmdb	sp, {sp, lr}^
8014885c:	e24dd008 	sub	sp, sp, #8
80148860:	e92d1fff 	push	{r0, r1, r2, r3, r4, r5, r6, r7, r8, r9, sl, fp, ip}
80148864:	e14f0000 	mrs	r0, SPSR
80148868:	e52d0004 	push	{r0}		; (str r0, [sp, #-4]!)
8014886c:	e1a0000d 	mov	r0, sp
80148870:	eb0014da 	bl	8014dbe0 <__RME_A7A_IRQ_Handler>
80148874:	e49d0004 	pop	{r0}		; (ldr r0, [sp], #4)
80148878:	e16ff000 	msr	SPSR_fsxc, r0
8014887c:	e8bd1fff 	pop	{r0, r1, r2, r3, r4, r5, r6, r7, r8, r9, sl, fp, ip}
80148880:	e8dd6000 	ldm	sp, {sp, lr}^
80148884:	e28dd008 	add	sp, sp, #8
80148888:	e8fd8000 	ldm	sp!, {pc}^

8014888c <FIQ_Handler>:
8014888c:	eafffffe 	b	8014888c <FIQ_Handler>
80148890:	41210000 	.word	0x41210000
80148894:	55555555 	.word	0x55555555

80148898 <_RME_Cpt_Add>:
80148898:	e3110080 	tst	r1, #128	; 0x80
8014889c:	e92d47f0 	push	{r4, r5, r6, r7, r8, r9, sl, lr}
801488a0:	e1a04001 	mov	r4, r1
801488a4:	e59d9020 	ldr	r9, [sp, #32]
801488a8:	e1a06000 	mov	r6, r0
801488ac:	e59d8024 	ldr	r8, [sp, #36]	; 0x24
801488b0:	e1a07002 	mov	r7, r2
801488b4:	e1a05003 	mov	r5, r3
801488b8:	1a00005b 	bne	80148a2c <_RME_Cpt_Add+0x194>
801488bc:	e5903014 	ldr	r3, [r0, #20]
801488c0:	e1510003 	cmp	r1, r3
801488c4:	3590100c 	ldrcc	r1, [r0, #12]
801488c8:	2a000055 	bcs	80148a24 <_RME_Cpt_Add+0x18c>
801488cc:	e0814284 	add	r4, r1, r4, lsl #5
801488d0:	e1a00004 	mov	r0, r4
801488d4:	ebffff89 	bl	80148700 <__RME_A7A_Read_Acquire>
801488d8:	e7e73850 	ubfx	r3, r0, #16, #8
801488dc:	e3530002 	cmp	r3, #2
801488e0:	0a0000d0 	beq	80148c28 <_RME_Cpt_Add+0x390>
801488e4:	e1a00c20 	lsr	r0, r0, #24
801488e8:	e3500003 	cmp	r0, #3
801488ec:	1a0000cb 	bne	80148c20 <_RME_Cpt_Add+0x388>
801488f0:	e3150080 	tst	r5, #128	; 0x80
801488f4:	0a000047 	beq	80148a18 <_RME_Cpt_Add+0x180>
801488f8:	e5962014 	ldr	r2, [r6, #20]
801488fc:	e1a03425 	lsr	r3, r5, #8
80148900:	e1530002 	cmp	r3, r2
80148904:	2a000046 	bcs	80148a24 <_RME_Cpt_Add+0x18c>
80148908:	e596600c 	ldr	r6, [r6, #12]
8014890c:	e0866283 	add	r6, r6, r3, lsl #5
80148910:	e1a00006 	mov	r0, r6
80148914:	ebffff79 	bl	80148700 <__RME_A7A_Read_Acquire>
80148918:	e7e73850 	ubfx	r3, r0, #16, #8
8014891c:	e3530002 	cmp	r3, #2
80148920:	0a0000c0 	beq	80148c28 <_RME_Cpt_Add+0x390>
80148924:	e1a00c20 	lsr	r0, r0, #24
80148928:	e3500003 	cmp	r0, #3
8014892c:	1a0000bb 	bne	80148c20 <_RME_Cpt_Add+0x388>
80148930:	e5963014 	ldr	r3, [r6, #20]
80148934:	e205507f 	and	r5, r5, #127	; 0x7f
80148938:	e1550003 	cmp	r5, r3
8014893c:	2a000038 	bcs	80148a24 <_RME_Cpt_Add+0x18c>
80148940:	e596300c 	ldr	r3, [r6, #12]
80148944:	e0835285 	add	r5, r3, r5, lsl #5
80148948:	e1a00005 	mov	r0, r5
8014894c:	ebffff6b 	bl	80148700 <__RME_A7A_Read_Acquire>
80148950:	e7e73850 	ubfx	r3, r0, #16, #8
80148954:	e3530002 	cmp	r3, #2
80148958:	0a0000b2 	beq	80148c28 <_RME_Cpt_Add+0x390>
8014895c:	e1a00c20 	lsr	r0, r0, #24
80148960:	e3500003 	cmp	r0, #3
80148964:	1a0000ad 	bne	80148c20 <_RME_Cpt_Add+0x388>
80148968:	e5943008 	ldr	r3, [r4, #8]
8014896c:	e3130010 	tst	r3, #16
80148970:	0a000053 	beq	80148ac4 <_RME_Cpt_Add+0x22c>
80148974:	e5953008 	ldr	r3, [r5, #8]
80148978:	e3130008 	tst	r3, #8
8014897c:	0a000050 	beq	80148ac4 <_RME_Cpt_Add+0x22c>
80148980:	e5943014 	ldr	r3, [r4, #20]
80148984:	e1530007 	cmp	r3, r7
80148988:	9a000025 	bls	80148a24 <_RME_Cpt_Add+0x18c>
8014898c:	e5953014 	ldr	r3, [r5, #20]
80148990:	e594600c 	ldr	r6, [r4, #12]
80148994:	e1530009 	cmp	r3, r9
80148998:	e086a287 	add	sl, r6, r7, lsl #5
8014899c:	9a000020 	bls	80148a24 <_RME_Cpt_Add+0x18c>
801489a0:	e595500c 	ldr	r5, [r5, #12]
801489a4:	e0854289 	add	r4, r5, r9, lsl #5
801489a8:	e1a00004 	mov	r0, r4
801489ac:	ebffff53 	bl	80148700 <__RME_A7A_Read_Acquire>
801489b0:	e7e73850 	ubfx	r3, r0, #16, #8
801489b4:	e1a01004 	mov	r1, r4
801489b8:	e3530002 	cmp	r3, #2
801489bc:	0a000099 	beq	80148c28 <_RME_Cpt_Add+0x390>
801489c0:	e3500000 	cmp	r0, #0
801489c4:	0a000099 	beq	80148c30 <_RME_Cpt_Add+0x398>
801489c8:	e1a03c20 	lsr	r3, r0, #24
801489cc:	e3530004 	cmp	r3, #4
801489d0:	0a000029 	beq	80148a7c <_RME_Cpt_Add+0x1e4>
801489d4:	e3530001 	cmp	r3, #1
801489d8:	0a00003b 	beq	80148acc <_RME_Cpt_Add+0x234>
801489dc:	e3530002 	cmp	r3, #2
801489e0:	0a000067 	beq	80148b84 <_RME_Cpt_Add+0x2ec>
801489e4:	e3580000 	cmp	r8, #0
801489e8:	0a000035 	beq	80148ac4 <_RME_Cpt_Add+0x22c>
801489ec:	e5942008 	ldr	r2, [r4, #8]
801489f0:	e1d82002 	bics	r2, r8, r2
801489f4:	1a000032 	bne	80148ac4 <_RME_Cpt_Add+0x22c>
801489f8:	e7962287 	ldr	r2, [r6, r7, lsl #5]
801489fc:	e3520000 	cmp	r2, #0
80148a00:	1a000002 	bne	80148a10 <_RME_Cpt_Add+0x178>
80148a04:	e7962287 	ldr	r2, [r6, r7, lsl #5]
80148a08:	e3520000 	cmp	r2, #0
80148a0c:	0a000039 	beq	80148af8 <_RME_Cpt_Add+0x260>
80148a10:	e3e00004 	mvn	r0, #4
80148a14:	e8bd87f0 	pop	{r4, r5, r6, r7, r8, r9, sl, pc}
80148a18:	e5963014 	ldr	r3, [r6, #20]
80148a1c:	e1550003 	cmp	r5, r3
80148a20:	3affffc6 	bcc	80148940 <_RME_Cpt_Add+0xa8>
80148a24:	e3e00002 	mvn	r0, #2
80148a28:	e8bd87f0 	pop	{r4, r5, r6, r7, r8, r9, sl, pc}
80148a2c:	e5902014 	ldr	r2, [r0, #20]
80148a30:	e1a03421 	lsr	r3, r1, #8
80148a34:	e1530002 	cmp	r3, r2
80148a38:	2afffff9 	bcs	80148a24 <_RME_Cpt_Add+0x18c>
80148a3c:	e590a00c 	ldr	sl, [r0, #12]
80148a40:	e08aa283 	add	sl, sl, r3, lsl #5
80148a44:	e1a0000a 	mov	r0, sl
80148a48:	ebffff2c 	bl	80148700 <__RME_A7A_Read_Acquire>
80148a4c:	e7e73850 	ubfx	r3, r0, #16, #8
80148a50:	e3530002 	cmp	r3, #2
80148a54:	0a000073 	beq	80148c28 <_RME_Cpt_Add+0x390>
80148a58:	e1a00c20 	lsr	r0, r0, #24
80148a5c:	e3500003 	cmp	r0, #3
80148a60:	1a00006e 	bne	80148c20 <_RME_Cpt_Add+0x388>
80148a64:	e59a3014 	ldr	r3, [sl, #20]
80148a68:	e204407f 	and	r4, r4, #127	; 0x7f
80148a6c:	e1540003 	cmp	r4, r3
80148a70:	2affffeb 	bcs	80148a24 <_RME_Cpt_Add+0x18c>
80148a74:	e59a100c 	ldr	r1, [sl, #12]
80148a78:	eaffff93 	b	801488cc <_RME_Cpt_Add+0x34>
80148a7c:	e5942008 	ldr	r2, [r4, #8]
80148a80:	e1a0ca28 	lsr	ip, r8, #20
80148a84:	e15c0a22 	cmp	ip, r2, lsr #20
80148a88:	8a00000d 	bhi	80148ac4 <_RME_Cpt_Add+0x22c>
80148a8c:	e5942008 	ldr	r2, [r4, #8]
80148a90:	e7ebe458 	ubfx	lr, r8, #8, #12
80148a94:	e7eb2452 	ubfx	r2, r2, #8, #12
80148a98:	e15c000e 	cmp	ip, lr
80148a9c:	215e0002 	cmpcs	lr, r2
80148aa0:	3a000007 	bcc	80148ac4 <_RME_Cpt_Add+0x22c>
80148aa4:	e6ef2078 	uxtb	r2, r8
80148aa8:	e3520000 	cmp	r2, #0
80148aac:	0a000004 	beq	80148ac4 <_RME_Cpt_Add+0x22c>
80148ab0:	e5942008 	ldr	r2, [r4, #8]
80148ab4:	e1c82002 	bic	r2, r8, r2
80148ab8:	e20220ff 	and	r2, r2, #255	; 0xff
80148abc:	e3520000 	cmp	r2, #0
80148ac0:	0affffcc 	beq	801489f8 <_RME_Cpt_Add+0x160>
80148ac4:	e3e00006 	mvn	r0, #6
80148ac8:	e8bd87f0 	pop	{r4, r5, r6, r7, r8, r9, sl, pc}
80148acc:	e5942008 	ldr	r2, [r4, #8]
80148ad0:	e1a0c828 	lsr	ip, r8, #16
80148ad4:	e15c0822 	cmp	ip, r2, lsr #16
80148ad8:	8afffff9 	bhi	80148ac4 <_RME_Cpt_Add+0x22c>
80148adc:	e5942008 	ldr	r2, [r4, #8]
80148ae0:	e6ffe078 	uxth	lr, r8
80148ae4:	e6ff2072 	uxth	r2, r2
80148ae8:	e15c000e 	cmp	ip, lr
80148aec:	215e0002 	cmpcs	lr, r2
80148af0:	2affffc0 	bcs	801489f8 <_RME_Cpt_Add+0x160>
80148af4:	eafffff2 	b	80148ac4 <_RME_Cpt_Add+0x22c>
80148af8:	e30ec114 	movw	ip, #57620	; 0xe114
80148afc:	e3a0e801 	mov	lr, #65536	; 0x10000
80148b00:	e348c094 	movt	ip, #32916	; 0x8094
80148b04:	e3530002 	cmp	r3, #2
80148b08:	e786e287 	str	lr, [r6, r7, lsl #5]
80148b0c:	e59cc000 	ldr	ip, [ip]
80148b10:	e58ac010 	str	ip, [sl, #16]
80148b14:	0a000032 	beq	80148be4 <_RME_Cpt_Add+0x34c>
80148b18:	e58a8008 	str	r8, [sl, #8]
80148b1c:	e2433001 	sub	r3, r3, #1
80148b20:	e594200c 	ldr	r2, [r4, #12]
80148b24:	e3530001 	cmp	r3, #1
80148b28:	e58a200c 	str	r2, [sl, #12]
80148b2c:	e5943014 	ldr	r3, [r4, #20]
80148b30:	e58a3014 	str	r3, [sl, #20]
80148b34:	e5943018 	ldr	r3, [r4, #24]
80148b38:	e58a3018 	str	r3, [sl, #24]
80148b3c:	e594301c 	ldr	r3, [r4, #28]
80148b40:	e58a301c 	str	r3, [sl, #28]
80148b44:	9a000032 	bls	80148c14 <_RME_Cpt_Add+0x37c>
80148b48:	e7953289 	ldr	r3, [r5, r9, lsl #5]
80148b4c:	e6ff3073 	uxth	r3, r3
80148b50:	e3530000 	cmp	r3, #0
80148b54:	15941004 	ldrne	r1, [r4, #4]
80148b58:	e58a1004 	str	r1, [sl, #4]
80148b5c:	e59a2004 	ldr	r2, [sl, #4]
80148b60:	e5923004 	ldr	r3, [r2, #4]
80148b64:	e2833001 	add	r3, r3, #1
80148b68:	e5823004 	str	r3, [r2, #4]
80148b6c:	e20014ff 	and	r1, r0, #-16777216	; 0xff000000
80148b70:	e1a0000a 	mov	r0, sl
80148b74:	e3811001 	orr	r1, r1, #1
80148b78:	ebfffee3 	bl	8014870c <__RME_A7A_Write_Release>
80148b7c:	e3a00000 	mov	r0, #0
80148b80:	e8bd87f0 	pop	{r4, r5, r6, r7, r8, r9, sl, pc}
80148b84:	e59d3028 	ldr	r3, [sp, #40]	; 0x28
80148b88:	e1a02828 	lsr	r2, r8, #16
80148b8c:	e1a03823 	lsr	r3, r3, #16
80148b90:	e3c3303f 	bic	r3, r3, #63	; 0x3f
80148b94:	e1a02802 	lsl	r2, r2, #16
80148b98:	e1a08808 	lsl	r8, r8, #16
80148b9c:	e1833002 	orr	r3, r3, r2
80148ba0:	e1580003 	cmp	r8, r3
80148ba4:	2affffc6 	bcs	80148ac4 <_RME_Cpt_Add+0x22c>
80148ba8:	e5941014 	ldr	r1, [r4, #20]
80148bac:	e5942014 	ldr	r2, [r4, #20]
80148bb0:	e0888001 	add	r8, r8, r1
80148bb4:	e1520008 	cmp	r2, r8
80148bb8:	8affffc1 	bhi	80148ac4 <_RME_Cpt_Add+0x22c>
80148bbc:	e5941014 	ldr	r1, [r4, #20]
80148bc0:	e5942014 	ldr	r2, [r4, #20]
80148bc4:	e0833001 	add	r3, r3, r1
80148bc8:	e1520003 	cmp	r2, r3
80148bcc:	8affffbc 	bhi	80148ac4 <_RME_Cpt_Add+0x22c>
80148bd0:	e5943014 	ldr	r3, [r4, #20]
80148bd4:	e3e00006 	mvn	r0, #6
80148bd8:	e1530008 	cmp	r3, r8
80148bdc:	95943018 	ldrls	r3, [r4, #24]
80148be0:	e8bd87f0 	pop	{r4, r5, r6, r7, r8, r9, sl, pc}
80148be4:	e58a2008 	str	r2, [sl, #8]
80148be8:	e594300c 	ldr	r3, [r4, #12]
80148bec:	e58a300c 	str	r3, [sl, #12]
80148bf0:	e5943014 	ldr	r3, [r4, #20]
80148bf4:	e58a3014 	str	r3, [sl, #20]
80148bf8:	e5943018 	ldr	r3, [r4, #24]
80148bfc:	e58a3018 	str	r3, [sl, #24]
80148c00:	e594301c 	ldr	r3, [r4, #28]
80148c04:	e58a301c 	str	r3, [sl, #28]
80148c08:	e3e03000 	mvn	r3, #0
80148c0c:	e58a2014 	str	r2, [sl, #20]
80148c10:	e58a3018 	str	r3, [sl, #24]
80148c14:	e3a03000 	mov	r3, #0
80148c18:	e58a3004 	str	r3, [sl, #4]
80148c1c:	eaffffd2 	b	80148b6c <_RME_Cpt_Add+0x2d4>
80148c20:	e3e00001 	mvn	r0, #1
80148c24:	e8bd87f0 	pop	{r4, r5, r6, r7, r8, r9, sl, pc}
80148c28:	e3e00008 	mvn	r0, #8
80148c2c:	e8bd87f0 	pop	{r4, r5, r6, r7, r8, r9, sl, pc}
80148c30:	e3e00000 	mvn	r0, #0
80148c34:	e8bd87f0 	pop	{r4, r5, r6, r7, r8, r9, sl, pc}

80148c38 <_RME_Prc_Crt>:
80148c38:	e3110080 	tst	r1, #128	; 0x80
80148c3c:	e92d47f0 	push	{r4, r5, r6, r7, r8, r9, sl, lr}
80148c40:	e1a05001 	mov	r5, r1
80148c44:	e59d8020 	ldr	r8, [sp, #32]
80148c48:	e1a04000 	mov	r4, r0
80148c4c:	e1a07002 	mov	r7, r2
80148c50:	e1a06003 	mov	r6, r3
80148c54:	1a000051 	bne	80148da0 <_RME_Prc_Crt+0x168>
80148c58:	e5903014 	ldr	r3, [r0, #20]
80148c5c:	e1510003 	cmp	r1, r3
80148c60:	3590100c 	ldrcc	r1, [r0, #12]
80148c64:	2a000073 	bcs	80148e38 <_RME_Prc_Crt+0x200>
80148c68:	e0815285 	add	r5, r1, r5, lsl #5
80148c6c:	e1a00005 	mov	r0, r5
80148c70:	ebfffea2 	bl	80148700 <__RME_A7A_Read_Acquire>
80148c74:	e7e73850 	ubfx	r3, r0, #16, #8
80148c78:	e3530002 	cmp	r3, #2
80148c7c:	0a00008f 	beq	80148ec0 <_RME_Prc_Crt+0x288>
80148c80:	e1a00c20 	lsr	r0, r0, #24
80148c84:	e3500003 	cmp	r0, #3
80148c88:	1a000088 	bne	80148eb0 <_RME_Prc_Crt+0x278>
80148c8c:	e3160080 	tst	r6, #128	; 0x80
80148c90:	0a00003d 	beq	80148d8c <_RME_Prc_Crt+0x154>
80148c94:	e5942014 	ldr	r2, [r4, #20]
80148c98:	e1a03426 	lsr	r3, r6, #8
80148c9c:	e1530002 	cmp	r3, r2
80148ca0:	2a000064 	bcs	80148e38 <_RME_Prc_Crt+0x200>
80148ca4:	e594900c 	ldr	r9, [r4, #12]
80148ca8:	e0899283 	add	r9, r9, r3, lsl #5
80148cac:	e1a00009 	mov	r0, r9
80148cb0:	ebfffe92 	bl	80148700 <__RME_A7A_Read_Acquire>
80148cb4:	e7e73850 	ubfx	r3, r0, #16, #8
80148cb8:	e3530002 	cmp	r3, #2
80148cbc:	0a00007f 	beq	80148ec0 <_RME_Prc_Crt+0x288>
80148cc0:	e1a00c20 	lsr	r0, r0, #24
80148cc4:	e3500003 	cmp	r0, #3
80148cc8:	1a000078 	bne	80148eb0 <_RME_Prc_Crt+0x278>
80148ccc:	e5993014 	ldr	r3, [r9, #20]
80148cd0:	e206607f 	and	r6, r6, #127	; 0x7f
80148cd4:	e1560003 	cmp	r6, r3
80148cd8:	2a000056 	bcs	80148e38 <_RME_Prc_Crt+0x200>
80148cdc:	e599300c 	ldr	r3, [r9, #12]
80148ce0:	e0836286 	add	r6, r3, r6, lsl #5
80148ce4:	e1a00006 	mov	r0, r6
80148ce8:	ebfffe84 	bl	80148700 <__RME_A7A_Read_Acquire>
80148cec:	e7e73850 	ubfx	r3, r0, #16, #8
80148cf0:	e3530002 	cmp	r3, #2
80148cf4:	0a000071 	beq	80148ec0 <_RME_Prc_Crt+0x288>
80148cf8:	e1a00c20 	lsr	r0, r0, #24
80148cfc:	e3500003 	cmp	r0, #3
80148d00:	1a00006a 	bne	80148eb0 <_RME_Prc_Crt+0x278>
80148d04:	e3180080 	tst	r8, #128	; 0x80
80148d08:	1a000038 	bne	80148df0 <_RME_Prc_Crt+0x1b8>
80148d0c:	e5943014 	ldr	r3, [r4, #20]
80148d10:	e1580003 	cmp	r8, r3
80148d14:	2a000047 	bcs	80148e38 <_RME_Prc_Crt+0x200>
80148d18:	e594300c 	ldr	r3, [r4, #12]
80148d1c:	e0838288 	add	r8, r3, r8, lsl #5
80148d20:	e1a00008 	mov	r0, r8
80148d24:	ebfffe75 	bl	80148700 <__RME_A7A_Read_Acquire>
80148d28:	e7e73850 	ubfx	r3, r0, #16, #8
80148d2c:	e3530002 	cmp	r3, #2
80148d30:	0a000062 	beq	80148ec0 <_RME_Prc_Crt+0x288>
80148d34:	e1a00c20 	lsr	r0, r0, #24
80148d38:	e3500004 	cmp	r0, #4
80148d3c:	1a00005b 	bne	80148eb0 <_RME_Prc_Crt+0x278>
80148d40:	e5953008 	ldr	r3, [r5, #8]
80148d44:	e3130001 	tst	r3, #1
80148d48:	0a00005a 	beq	80148eb8 <_RME_Prc_Crt+0x280>
80148d4c:	e5963008 	ldr	r3, [r6, #8]
80148d50:	e3130040 	tst	r3, #64	; 0x40
80148d54:	0a000057 	beq	80148eb8 <_RME_Prc_Crt+0x280>
80148d58:	e5983008 	ldr	r3, [r8, #8]
80148d5c:	e3130040 	tst	r3, #64	; 0x40
80148d60:	0a000054 	beq	80148eb8 <_RME_Prc_Crt+0x280>
80148d64:	e5953014 	ldr	r3, [r5, #20]
80148d68:	e1530007 	cmp	r3, r7
80148d6c:	9a000031 	bls	80148e38 <_RME_Prc_Crt+0x200>
80148d70:	e595300c 	ldr	r3, [r5, #12]
80148d74:	e7932287 	ldr	r2, [r3, r7, lsl #5]
80148d78:	e0830287 	add	r0, r3, r7, lsl #5
80148d7c:	e3520000 	cmp	r2, #0
80148d80:	0a00002e 	beq	80148e40 <_RME_Prc_Crt+0x208>
80148d84:	e3e00004 	mvn	r0, #4
80148d88:	e8bd87f0 	pop	{r4, r5, r6, r7, r8, r9, sl, pc}
80148d8c:	e5943014 	ldr	r3, [r4, #20]
80148d90:	e1560003 	cmp	r6, r3
80148d94:	2a000027 	bcs	80148e38 <_RME_Prc_Crt+0x200>
80148d98:	e594300c 	ldr	r3, [r4, #12]
80148d9c:	eaffffcf 	b	80148ce0 <_RME_Prc_Crt+0xa8>
80148da0:	e5902014 	ldr	r2, [r0, #20]
80148da4:	e1a03421 	lsr	r3, r1, #8
80148da8:	e1530002 	cmp	r3, r2
80148dac:	2a000021 	bcs	80148e38 <_RME_Prc_Crt+0x200>
80148db0:	e590900c 	ldr	r9, [r0, #12]
80148db4:	e0899283 	add	r9, r9, r3, lsl #5
80148db8:	e1a00009 	mov	r0, r9
80148dbc:	ebfffe4f 	bl	80148700 <__RME_A7A_Read_Acquire>
80148dc0:	e7e73850 	ubfx	r3, r0, #16, #8
80148dc4:	e3530002 	cmp	r3, #2
80148dc8:	0a00003c 	beq	80148ec0 <_RME_Prc_Crt+0x288>
80148dcc:	e1a00c20 	lsr	r0, r0, #24
80148dd0:	e3500003 	cmp	r0, #3
80148dd4:	1a000035 	bne	80148eb0 <_RME_Prc_Crt+0x278>
80148dd8:	e5993014 	ldr	r3, [r9, #20]
80148ddc:	e205507f 	and	r5, r5, #127	; 0x7f
80148de0:	e1550003 	cmp	r5, r3
80148de4:	2a000013 	bcs	80148e38 <_RME_Prc_Crt+0x200>
80148de8:	e599100c 	ldr	r1, [r9, #12]
80148dec:	eaffff9d 	b	80148c68 <_RME_Prc_Crt+0x30>
80148df0:	e5942014 	ldr	r2, [r4, #20]
80148df4:	e1a03428 	lsr	r3, r8, #8
80148df8:	e1530002 	cmp	r3, r2
80148dfc:	2a00000d 	bcs	80148e38 <_RME_Prc_Crt+0x200>
80148e00:	e594400c 	ldr	r4, [r4, #12]
80148e04:	e0844283 	add	r4, r4, r3, lsl #5
80148e08:	e1a00004 	mov	r0, r4
80148e0c:	ebfffe3b 	bl	80148700 <__RME_A7A_Read_Acquire>
80148e10:	e7e73850 	ubfx	r3, r0, #16, #8
80148e14:	e3530002 	cmp	r3, #2
80148e18:	0a000028 	beq	80148ec0 <_RME_Prc_Crt+0x288>
80148e1c:	e1a00c20 	lsr	r0, r0, #24
80148e20:	e3500003 	cmp	r0, #3
80148e24:	1a000021 	bne	80148eb0 <_RME_Prc_Crt+0x278>
80148e28:	e5943014 	ldr	r3, [r4, #20]
80148e2c:	e208807f 	and	r8, r8, #127	; 0x7f
80148e30:	e1580003 	cmp	r8, r3
80148e34:	3affffb7 	bcc	80148d18 <_RME_Prc_Crt+0xe0>
80148e38:	e3e00002 	mvn	r0, #2
80148e3c:	e8bd87f0 	pop	{r4, r5, r6, r7, r8, r9, sl, pc}
80148e40:	e30e1114 	movw	r1, #57620	; 0xe114
80148e44:	e3a0c801 	mov	ip, #65536	; 0x10000
80148e48:	eddf0b1e 	vldr	d16, [pc, #120]	; 80148ec8 <_RME_Prc_Crt+0x290>
80148e4c:	e3481094 	movt	r1, #32916	; 0x8094
80148e50:	e783c287 	str	ip, [r3, r7, lsl #5]
80148e54:	e2803004 	add	r3, r0, #4
80148e58:	e580200c 	str	r2, [r0, #12]
80148e5c:	e5912000 	ldr	r2, [r1]
80148e60:	e3a01405 	mov	r1, #83886080	; 0x5000000
80148e64:	e5802010 	str	r2, [r0, #16]
80148e68:	f443078f 	vst1.32	{d16}, [r3]
80148e6c:	e1d630b0 	ldrh	r3, [r6]
80148e70:	e3530000 	cmp	r3, #0
80148e74:	e1d830b0 	ldrh	r3, [r8]
80148e78:	15966004 	ldrne	r6, [r6, #4]
80148e7c:	e3530000 	cmp	r3, #0
80148e80:	15988004 	ldrne	r8, [r8, #4]
80148e84:	e5806014 	str	r6, [r0, #20]
80148e88:	e5808018 	str	r8, [r0, #24]
80148e8c:	e5963004 	ldr	r3, [r6, #4]
80148e90:	e2833001 	add	r3, r3, #1
80148e94:	e5863004 	str	r3, [r6, #4]
80148e98:	e5983004 	ldr	r3, [r8, #4]
80148e9c:	e2833001 	add	r3, r3, #1
80148ea0:	e5883004 	str	r3, [r8, #4]
80148ea4:	ebfffe18 	bl	8014870c <__RME_A7A_Write_Release>
80148ea8:	e3a00000 	mov	r0, #0
80148eac:	e8bd87f0 	pop	{r4, r5, r6, r7, r8, r9, sl, pc}
80148eb0:	e3e00001 	mvn	r0, #1
80148eb4:	e8bd87f0 	pop	{r4, r5, r6, r7, r8, r9, sl, pc}
80148eb8:	e3e00006 	mvn	r0, #6
80148ebc:	e8bd87f0 	pop	{r4, r5, r6, r7, r8, r9, sl, pc}
80148ec0:	e3e00008 	mvn	r0, #8
80148ec4:	e8bd87f0 	pop	{r4, r5, r6, r7, r8, r9, sl, pc}
80148ec8:	00000000 	.word	0x00000000
80148ecc:	0000000f 	.word	0x0000000f

80148ed0 <_RME_Pgt_Add>:
80148ed0:	e92d47f0 	push	{r4, r5, r6, r7, r8, r9, sl, lr}
80148ed4:	e3110080 	tst	r1, #128	; 0x80
80148ed8:	e24dd008 	sub	sp, sp, #8
80148edc:	e1a04001 	mov	r4, r1
80148ee0:	e1a08000 	mov	r8, r0
80148ee4:	e1a05002 	mov	r5, r2
80148ee8:	e59d9028 	ldr	r9, [sp, #40]	; 0x28
80148eec:	e1a07003 	mov	r7, r3
80148ef0:	e59d602c 	ldr	r6, [sp, #44]	; 0x2c
80148ef4:	1a000064 	bne	8014908c <_RME_Pgt_Add+0x1bc>
80148ef8:	e5903014 	ldr	r3, [r0, #20]
80148efc:	e1510003 	cmp	r1, r3
80148f00:	3590100c 	ldrcc	r1, [r0, #12]
80148f04:	2a00005e 	bcs	80149084 <_RME_Pgt_Add+0x1b4>
80148f08:	e0814284 	add	r4, r1, r4, lsl #5
80148f0c:	e1a00004 	mov	r0, r4
80148f10:	ebfffdfa 	bl	80148700 <__RME_A7A_Read_Acquire>
80148f14:	e7e73850 	ubfx	r3, r0, #16, #8
80148f18:	e3530002 	cmp	r3, #2
80148f1c:	0a000076 	beq	801490fc <_RME_Pgt_Add+0x22c>
80148f20:	e1a00c20 	lsr	r0, r0, #24
80148f24:	e3500004 	cmp	r0, #4
80148f28:	1a00006b 	bne	801490dc <_RME_Pgt_Add+0x20c>
80148f2c:	e3190080 	tst	r9, #128	; 0x80
80148f30:	0a000050 	beq	80149078 <_RME_Pgt_Add+0x1a8>
80148f34:	e5982014 	ldr	r2, [r8, #20]
80148f38:	e1a03429 	lsr	r3, r9, #8
80148f3c:	e1530002 	cmp	r3, r2
80148f40:	2a00004f 	bcs	80149084 <_RME_Pgt_Add+0x1b4>
80148f44:	e598800c 	ldr	r8, [r8, #12]
80148f48:	e0888283 	add	r8, r8, r3, lsl #5
80148f4c:	e1a00008 	mov	r0, r8
80148f50:	ebfffdea 	bl	80148700 <__RME_A7A_Read_Acquire>
80148f54:	e7e73850 	ubfx	r3, r0, #16, #8
80148f58:	e3530002 	cmp	r3, #2
80148f5c:	0a000066 	beq	801490fc <_RME_Pgt_Add+0x22c>
80148f60:	e1a00c20 	lsr	r0, r0, #24
80148f64:	e3500003 	cmp	r0, #3
80148f68:	1a00005b 	bne	801490dc <_RME_Pgt_Add+0x20c>
80148f6c:	e5983014 	ldr	r3, [r8, #20]
80148f70:	e209907f 	and	r9, r9, #127	; 0x7f
80148f74:	e1590003 	cmp	r9, r3
80148f78:	2a000041 	bcs	80149084 <_RME_Pgt_Add+0x1b4>
80148f7c:	e598300c 	ldr	r3, [r8, #12]
80148f80:	e0839289 	add	r9, r3, r9, lsl #5
80148f84:	e1a00009 	mov	r0, r9
80148f88:	ebfffddc 	bl	80148700 <__RME_A7A_Read_Acquire>
80148f8c:	e7e73850 	ubfx	r3, r0, #16, #8
80148f90:	e3530002 	cmp	r3, #2
80148f94:	0a000058 	beq	801490fc <_RME_Pgt_Add+0x22c>
80148f98:	e1a00c20 	lsr	r0, r0, #24
80148f9c:	e3500004 	cmp	r0, #4
80148fa0:	1a00004d 	bne	801490dc <_RME_Pgt_Add+0x20c>
80148fa4:	e5943008 	ldr	r3, [r4, #8]
80148fa8:	e3130002 	tst	r3, #2
80148fac:	0a00004c 	beq	801490e4 <_RME_Pgt_Add+0x214>
80148fb0:	e5992008 	ldr	r2, [r9, #8]
80148fb4:	e3120001 	tst	r2, #1
80148fb8:	0a000049 	beq	801490e4 <_RME_Pgt_Add+0x214>
80148fbc:	e1550a23 	cmp	r5, r3, lsr #20
80148fc0:	8a000047 	bhi	801490e4 <_RME_Pgt_Add+0x214>
80148fc4:	e7eb3453 	ubfx	r3, r3, #8, #12
80148fc8:	e1530005 	cmp	r3, r5
80148fcc:	8a000044 	bhi	801490e4 <_RME_Pgt_Add+0x214>
80148fd0:	e1560a22 	cmp	r6, r2, lsr #20
80148fd4:	8a000042 	bhi	801490e4 <_RME_Pgt_Add+0x214>
80148fd8:	e7eb2452 	ubfx	r2, r2, #8, #12
80148fdc:	e1520006 	cmp	r2, r6
80148fe0:	8a00003f 	bhi	801490e4 <_RME_Pgt_Add+0x214>
80148fe4:	e5943014 	ldr	r3, [r4, #20]
80148fe8:	e5992014 	ldr	r2, [r9, #20]
80148fec:	e1a08823 	lsr	r8, r3, #16
80148ff0:	e1a01822 	lsr	r1, r2, #16
80148ff4:	e1580001 	cmp	r8, r1
80148ff8:	8a00003b 	bhi	801490ec <_RME_Pgt_Add+0x21c>
80148ffc:	e6ff2072 	uxth	r2, r2
80149000:	e6ff3073 	uxth	r3, r3
80149004:	e1a02236 	lsr	r2, r6, r2
80149008:	e1923335 	orrs	r3, r2, r5, lsr r3
8014900c:	1a000036 	bne	801490ec <_RME_Pgt_Add+0x21c>
80149010:	e351001f 	cmp	r1, #31
80149014:	8a000004 	bhi	8014902c <_RME_Pgt_Add+0x15c>
80149018:	e59d3030 	ldr	r3, [sp, #48]	; 0x30
8014901c:	e3a02001 	mov	r2, #1
80149020:	e1a03813 	lsl	r3, r3, r8
80149024:	e1530112 	cmp	r3, r2, lsl r1
80149028:	2a00002f 	bcs	801490ec <_RME_Pgt_Add+0x21c>
8014902c:	e1a01006 	mov	r1, r6
80149030:	e28d3004 	add	r3, sp, #4
80149034:	e1a00009 	mov	r0, r9
80149038:	e1a0200d 	mov	r2, sp
8014903c:	eb001340 	bl	8014dd44 <__RME_Pgt_Lookup>
80149040:	e59d1000 	ldr	r1, [sp]
80149044:	e358001f 	cmp	r8, #31
80149048:	e59d0004 	ldr	r0, [sp, #4]
8014904c:	959d3030 	ldrls	r3, [sp, #48]	; 0x30
80149050:	90811813 	addls	r1, r1, r3, lsl r8
80149054:	e1d76000 	bics	r6, r7, r0
80149058:	1a000025 	bne	801490f4 <_RME_Pgt_Add+0x224>
8014905c:	e1a03007 	mov	r3, r7
80149060:	e1a02005 	mov	r2, r5
80149064:	e1a00004 	mov	r0, r4
80149068:	eb001330 	bl	8014dd30 <__RME_Pgt_Page_Map>
8014906c:	e1a00006 	mov	r0, r6
80149070:	e28dd008 	add	sp, sp, #8
80149074:	e8bd87f0 	pop	{r4, r5, r6, r7, r8, r9, sl, pc}
80149078:	e5983014 	ldr	r3, [r8, #20]
8014907c:	e1590003 	cmp	r9, r3
80149080:	3affffbd 	bcc	80148f7c <_RME_Pgt_Add+0xac>
80149084:	e3e00002 	mvn	r0, #2
80149088:	eafffff8 	b	80149070 <_RME_Pgt_Add+0x1a0>
8014908c:	e5902014 	ldr	r2, [r0, #20]
80149090:	e1a03421 	lsr	r3, r1, #8
80149094:	e1530002 	cmp	r3, r2
80149098:	2afffff9 	bcs	80149084 <_RME_Pgt_Add+0x1b4>
8014909c:	e590a00c 	ldr	sl, [r0, #12]
801490a0:	e08aa283 	add	sl, sl, r3, lsl #5
801490a4:	e1a0000a 	mov	r0, sl
801490a8:	ebfffd94 	bl	80148700 <__RME_A7A_Read_Acquire>
801490ac:	e7e73850 	ubfx	r3, r0, #16, #8
801490b0:	e3530002 	cmp	r3, #2
801490b4:	0a000010 	beq	801490fc <_RME_Pgt_Add+0x22c>
801490b8:	e1a00c20 	lsr	r0, r0, #24
801490bc:	e3500003 	cmp	r0, #3
801490c0:	1a000005 	bne	801490dc <_RME_Pgt_Add+0x20c>
801490c4:	e59a3014 	ldr	r3, [sl, #20]
801490c8:	e204407f 	and	r4, r4, #127	; 0x7f
801490cc:	e1540003 	cmp	r4, r3
801490d0:	2affffeb 	bcs	80149084 <_RME_Pgt_Add+0x1b4>
801490d4:	e59a100c 	ldr	r1, [sl, #12]
801490d8:	eaffff8a 	b	80148f08 <_RME_Pgt_Add+0x38>
801490dc:	e3e00001 	mvn	r0, #1
801490e0:	eaffffe2 	b	80149070 <_RME_Pgt_Add+0x1a0>
801490e4:	e3e00006 	mvn	r0, #6
801490e8:	eaffffe0 	b	80149070 <_RME_Pgt_Add+0x1a0>
801490ec:	e3e00064 	mvn	r0, #100	; 0x64
801490f0:	eaffffde 	b	80149070 <_RME_Pgt_Add+0x1a0>
801490f4:	e3e00067 	mvn	r0, #103	; 0x67
801490f8:	eaffffdc 	b	80149070 <_RME_Pgt_Add+0x1a0>
801490fc:	e3e00008 	mvn	r0, #8
80149100:	eaffffda 	b	80149070 <_RME_Pgt_Add+0x1a0>

80149104 <_RME_Pgt_Con>:
80149104:	e3110080 	tst	r1, #128	; 0x80
80149108:	e92d41f0 	push	{r4, r5, r6, r7, r8, lr}
8014910c:	e1a04001 	mov	r4, r1
80149110:	e1a06000 	mov	r6, r0
80149114:	e1a07002 	mov	r7, r2
80149118:	e1a05003 	mov	r5, r3
8014911c:	1a000056 	bne	8014927c <_RME_Pgt_Con+0x178>
80149120:	e5903014 	ldr	r3, [r0, #20]
80149124:	e1510003 	cmp	r1, r3
80149128:	3590100c 	ldrcc	r1, [r0, #12]
8014912c:	2a000050 	bcs	80149274 <_RME_Pgt_Con+0x170>
80149130:	e0814284 	add	r4, r1, r4, lsl #5
80149134:	e1a00004 	mov	r0, r4
80149138:	ebfffd70 	bl	80148700 <__RME_A7A_Read_Acquire>
8014913c:	e7e73850 	ubfx	r3, r0, #16, #8
80149140:	e3530002 	cmp	r3, #2
80149144:	0a000066 	beq	801492e4 <_RME_Pgt_Con+0x1e0>
80149148:	e1a00c20 	lsr	r0, r0, #24
8014914c:	e3500004 	cmp	r0, #4
80149150:	1a00005d 	bne	801492cc <_RME_Pgt_Con+0x1c8>
80149154:	e3150080 	tst	r5, #128	; 0x80
80149158:	0a000042 	beq	80149268 <_RME_Pgt_Con+0x164>
8014915c:	e5962014 	ldr	r2, [r6, #20]
80149160:	e1a03425 	lsr	r3, r5, #8
80149164:	e1530002 	cmp	r3, r2
80149168:	2a000041 	bcs	80149274 <_RME_Pgt_Con+0x170>
8014916c:	e596600c 	ldr	r6, [r6, #12]
80149170:	e0866283 	add	r6, r6, r3, lsl #5
80149174:	e1a00006 	mov	r0, r6
80149178:	ebfffd60 	bl	80148700 <__RME_A7A_Read_Acquire>
8014917c:	e7e73850 	ubfx	r3, r0, #16, #8
80149180:	e3530002 	cmp	r3, #2
80149184:	0a000056 	beq	801492e4 <_RME_Pgt_Con+0x1e0>
80149188:	e1a00c20 	lsr	r0, r0, #24
8014918c:	e3500003 	cmp	r0, #3
80149190:	1a00004d 	bne	801492cc <_RME_Pgt_Con+0x1c8>
80149194:	e5963014 	ldr	r3, [r6, #20]
80149198:	e205507f 	and	r5, r5, #127	; 0x7f
8014919c:	e1550003 	cmp	r5, r3
801491a0:	2a000033 	bcs	80149274 <_RME_Pgt_Con+0x170>
801491a4:	e596200c 	ldr	r2, [r6, #12]
801491a8:	e0825285 	add	r5, r2, r5, lsl #5
801491ac:	e1a00005 	mov	r0, r5
801491b0:	ebfffd52 	bl	80148700 <__RME_A7A_Read_Acquire>
801491b4:	e7e73850 	ubfx	r3, r0, #16, #8
801491b8:	e3530002 	cmp	r3, #2
801491bc:	0a000048 	beq	801492e4 <_RME_Pgt_Con+0x1e0>
801491c0:	e1a00c20 	lsr	r0, r0, #24
801491c4:	e3500004 	cmp	r0, #4
801491c8:	1a00003f 	bne	801492cc <_RME_Pgt_Con+0x1c8>
801491cc:	e5943008 	ldr	r3, [r4, #8]
801491d0:	e3130010 	tst	r3, #16
801491d4:	0a000040 	beq	801492dc <_RME_Pgt_Con+0x1d8>
801491d8:	e5952008 	ldr	r2, [r5, #8]
801491dc:	e3120008 	tst	r2, #8
801491e0:	0a00003d 	beq	801492dc <_RME_Pgt_Con+0x1d8>
801491e4:	e1570a23 	cmp	r7, r3, lsr #20
801491e8:	8a00003b 	bhi	801492dc <_RME_Pgt_Con+0x1d8>
801491ec:	e7eb3453 	ubfx	r3, r3, #8, #12
801491f0:	e1530007 	cmp	r3, r7
801491f4:	8a000038 	bhi	801492dc <_RME_Pgt_Con+0x1d8>
801491f8:	e5942014 	ldr	r2, [r4, #20]
801491fc:	e6ff3072 	uxth	r3, r2
80149200:	e1b03337 	lsrs	r3, r7, r3
80149204:	1a000032 	bne	801492d4 <_RME_Pgt_Con+0x1d0>
80149208:	e5953014 	ldr	r3, [r5, #20]
8014920c:	e1a01823 	lsr	r1, r3, #16
80149210:	e6f13073 	uxtah	r3, r1, r3
80149214:	e1530822 	cmp	r3, r2, lsr #16
80149218:	1a00002d 	bne	801492d4 <_RME_Pgt_Con+0x1d0>
8014921c:	e59d3018 	ldr	r3, [sp, #24]
80149220:	e1a02005 	mov	r2, r5
80149224:	e1a00004 	mov	r0, r4
80149228:	e1a01007 	mov	r1, r7
8014922c:	eb0012c1 	bl	8014dd38 <__RME_Pgt_Pgdir_Map>
80149230:	e1d430b0 	ldrh	r3, [r4]
80149234:	e3a00000 	mov	r0, #0
80149238:	e3530000 	cmp	r3, #0
8014923c:	15944004 	ldrne	r4, [r4, #4]
80149240:	e5943004 	ldr	r3, [r4, #4]
80149244:	e2833001 	add	r3, r3, #1
80149248:	e5843004 	str	r3, [r4, #4]
8014924c:	e1d530b0 	ldrh	r3, [r5]
80149250:	e3530000 	cmp	r3, #0
80149254:	15955004 	ldrne	r5, [r5, #4]
80149258:	e5953004 	ldr	r3, [r5, #4]
8014925c:	e2833001 	add	r3, r3, #1
80149260:	e5853004 	str	r3, [r5, #4]
80149264:	e8bd81f0 	pop	{r4, r5, r6, r7, r8, pc}
80149268:	e5963014 	ldr	r3, [r6, #20]
8014926c:	e1550003 	cmp	r5, r3
80149270:	3affffcb 	bcc	801491a4 <_RME_Pgt_Con+0xa0>
80149274:	e3e00002 	mvn	r0, #2
80149278:	e8bd81f0 	pop	{r4, r5, r6, r7, r8, pc}
8014927c:	e5902014 	ldr	r2, [r0, #20]
80149280:	e1a03421 	lsr	r3, r1, #8
80149284:	e1530002 	cmp	r3, r2
80149288:	2afffff9 	bcs	80149274 <_RME_Pgt_Con+0x170>
8014928c:	e590800c 	ldr	r8, [r0, #12]
80149290:	e0888283 	add	r8, r8, r3, lsl #5
80149294:	e1a00008 	mov	r0, r8
80149298:	ebfffd18 	bl	80148700 <__RME_A7A_Read_Acquire>
8014929c:	e7e73850 	ubfx	r3, r0, #16, #8
801492a0:	e3530002 	cmp	r3, #2
801492a4:	0a00000e 	beq	801492e4 <_RME_Pgt_Con+0x1e0>
801492a8:	e1a00c20 	lsr	r0, r0, #24
801492ac:	e3500003 	cmp	r0, #3
801492b0:	1a000005 	bne	801492cc <_RME_Pgt_Con+0x1c8>
801492b4:	e5983014 	ldr	r3, [r8, #20]
801492b8:	e204407f 	and	r4, r4, #127	; 0x7f
801492bc:	e1540003 	cmp	r4, r3
801492c0:	2affffeb 	bcs	80149274 <_RME_Pgt_Con+0x170>
801492c4:	e598100c 	ldr	r1, [r8, #12]
801492c8:	eaffff98 	b	80149130 <_RME_Pgt_Con+0x2c>
801492cc:	e3e00001 	mvn	r0, #1
801492d0:	e8bd81f0 	pop	{r4, r5, r6, r7, r8, pc}
801492d4:	e3e00064 	mvn	r0, #100	; 0x64
801492d8:	e8bd81f0 	pop	{r4, r5, r6, r7, r8, pc}
801492dc:	e3e00006 	mvn	r0, #6
801492e0:	e8bd81f0 	pop	{r4, r5, r6, r7, r8, pc}
801492e4:	e3e00008 	mvn	r0, #8
801492e8:	e8bd81f0 	pop	{r4, r5, r6, r7, r8, pc}

801492ec <_RME_Pgt_Des>:
801492ec:	e3110080 	tst	r1, #128	; 0x80
801492f0:	e92d41f0 	push	{r4, r5, r6, r7, r8, lr}
801492f4:	e1a04001 	mov	r4, r1
801492f8:	e1a06000 	mov	r6, r0
801492fc:	e1a07002 	mov	r7, r2
80149300:	e1a05003 	mov	r5, r3
80149304:	1a000051 	bne	80149450 <_RME_Pgt_Des+0x164>
80149308:	e5903014 	ldr	r3, [r0, #20]
8014930c:	e1510003 	cmp	r1, r3
80149310:	3590100c 	ldrcc	r1, [r0, #12]
80149314:	2a00004b 	bcs	80149448 <_RME_Pgt_Des+0x15c>
80149318:	e0814284 	add	r4, r1, r4, lsl #5
8014931c:	e1a00004 	mov	r0, r4
80149320:	ebfffcf6 	bl	80148700 <__RME_A7A_Read_Acquire>
80149324:	e7e73850 	ubfx	r3, r0, #16, #8
80149328:	e3530002 	cmp	r3, #2
8014932c:	0a000061 	beq	801494b8 <_RME_Pgt_Des+0x1cc>
80149330:	e1a00c20 	lsr	r0, r0, #24
80149334:	e3500003 	cmp	r0, #3
80149338:	1a000058 	bne	801494a0 <_RME_Pgt_Des+0x1b4>
8014933c:	e3150080 	tst	r5, #128	; 0x80
80149340:	0a00003d 	beq	8014943c <_RME_Pgt_Des+0x150>
80149344:	e5962014 	ldr	r2, [r6, #20]
80149348:	e1a03425 	lsr	r3, r5, #8
8014934c:	e1530002 	cmp	r3, r2
80149350:	2a00003c 	bcs	80149448 <_RME_Pgt_Des+0x15c>
80149354:	e596600c 	ldr	r6, [r6, #12]
80149358:	e0866283 	add	r6, r6, r3, lsl #5
8014935c:	e1a00006 	mov	r0, r6
80149360:	ebfffce6 	bl	80148700 <__RME_A7A_Read_Acquire>
80149364:	e7e73850 	ubfx	r3, r0, #16, #8
80149368:	e3530002 	cmp	r3, #2
8014936c:	0a000051 	beq	801494b8 <_RME_Pgt_Des+0x1cc>
80149370:	e1a00c20 	lsr	r0, r0, #24
80149374:	e3500003 	cmp	r0, #3
80149378:	1a000048 	bne	801494a0 <_RME_Pgt_Des+0x1b4>
8014937c:	e5963014 	ldr	r3, [r6, #20]
80149380:	e205507f 	and	r5, r5, #127	; 0x7f
80149384:	e1550003 	cmp	r5, r3
80149388:	2a00002e 	bcs	80149448 <_RME_Pgt_Des+0x15c>
8014938c:	e596200c 	ldr	r2, [r6, #12]
80149390:	e0825285 	add	r5, r2, r5, lsl #5
80149394:	e1a00005 	mov	r0, r5
80149398:	ebfffcd8 	bl	80148700 <__RME_A7A_Read_Acquire>
8014939c:	e7e73850 	ubfx	r3, r0, #16, #8
801493a0:	e3530002 	cmp	r3, #2
801493a4:	0a000043 	beq	801494b8 <_RME_Pgt_Des+0x1cc>
801493a8:	e1a00c20 	lsr	r0, r0, #24
801493ac:	e3500003 	cmp	r0, #3
801493b0:	1a00003a 	bne	801494a0 <_RME_Pgt_Des+0x1b4>
801493b4:	e5943008 	ldr	r3, [r4, #8]
801493b8:	e3130020 	tst	r3, #32
801493bc:	0a000039 	beq	801494a8 <_RME_Pgt_Des+0x1bc>
801493c0:	e5952008 	ldr	r2, [r5, #8]
801493c4:	e3120008 	tst	r2, #8
801493c8:	0a000036 	beq	801494a8 <_RME_Pgt_Des+0x1bc>
801493cc:	e1570a23 	cmp	r7, r3, lsr #20
801493d0:	8a000034 	bhi	801494a8 <_RME_Pgt_Des+0x1bc>
801493d4:	e7eb3453 	ubfx	r3, r3, #8, #12
801493d8:	e1530007 	cmp	r3, r7
801493dc:	8a000031 	bhi	801494a8 <_RME_Pgt_Des+0x1bc>
801493e0:	e1d431b4 	ldrh	r3, [r4, #20]
801493e4:	e1b03337 	lsrs	r3, r7, r3
801493e8:	1a000030 	bne	801494b0 <_RME_Pgt_Des+0x1c4>
801493ec:	e1a02005 	mov	r2, r5
801493f0:	e1a01007 	mov	r1, r7
801493f4:	e1a00004 	mov	r0, r4
801493f8:	eb00124f 	bl	8014dd3c <__RME_Pgt_Pgdir_Unmap>
801493fc:	e3500000 	cmp	r0, #0
80149400:	ba00002e 	blt	801494c0 <_RME_Pgt_Des+0x1d4>
80149404:	e1d430b0 	ldrh	r3, [r4]
80149408:	e3a00000 	mov	r0, #0
8014940c:	e3530000 	cmp	r3, #0
80149410:	15944004 	ldrne	r4, [r4, #4]
80149414:	e5943004 	ldr	r3, [r4, #4]
80149418:	e2433001 	sub	r3, r3, #1
8014941c:	e5843004 	str	r3, [r4, #4]
80149420:	e1d530b0 	ldrh	r3, [r5]
80149424:	e3530000 	cmp	r3, #0
80149428:	15955004 	ldrne	r5, [r5, #4]
8014942c:	e5953004 	ldr	r3, [r5, #4]
80149430:	e2433001 	sub	r3, r3, #1
80149434:	e5853004 	str	r3, [r5, #4]
80149438:	e8bd81f0 	pop	{r4, r5, r6, r7, r8, pc}
8014943c:	e5963014 	ldr	r3, [r6, #20]
80149440:	e1550003 	cmp	r5, r3
80149444:	3affffd0 	bcc	8014938c <_RME_Pgt_Des+0xa0>
80149448:	e3e00002 	mvn	r0, #2
8014944c:	e8bd81f0 	pop	{r4, r5, r6, r7, r8, pc}
80149450:	e5902014 	ldr	r2, [r0, #20]
80149454:	e1a03421 	lsr	r3, r1, #8
80149458:	e1530002 	cmp	r3, r2
8014945c:	2afffff9 	bcs	80149448 <_RME_Pgt_Des+0x15c>
80149460:	e590800c 	ldr	r8, [r0, #12]
80149464:	e0888283 	add	r8, r8, r3, lsl #5
80149468:	e1a00008 	mov	r0, r8
8014946c:	ebfffca3 	bl	80148700 <__RME_A7A_Read_Acquire>
80149470:	e7e73850 	ubfx	r3, r0, #16, #8
80149474:	e3530002 	cmp	r3, #2
80149478:	0a00000e 	beq	801494b8 <_RME_Pgt_Des+0x1cc>
8014947c:	e1a00c20 	lsr	r0, r0, #24
80149480:	e3500003 	cmp	r0, #3
80149484:	1a000005 	bne	801494a0 <_RME_Pgt_Des+0x1b4>
80149488:	e5983014 	ldr	r3, [r8, #20]
8014948c:	e204407f 	and	r4, r4, #127	; 0x7f
80149490:	e1540003 	cmp	r4, r3
80149494:	2affffeb 	bcs	80149448 <_RME_Pgt_Des+0x15c>
80149498:	e598100c 	ldr	r1, [r8, #12]
8014949c:	eaffff9d 	b	80149318 <_RME_Pgt_Des+0x2c>
801494a0:	e3e00001 	mvn	r0, #1
801494a4:	e8bd81f0 	pop	{r4, r5, r6, r7, r8, pc}
801494a8:	e3e00006 	mvn	r0, #6
801494ac:	e8bd81f0 	pop	{r4, r5, r6, r7, r8, pc}
801494b0:	e3e00064 	mvn	r0, #100	; 0x64
801494b4:	e8bd81f0 	pop	{r4, r5, r6, r7, r8, pc}
801494b8:	e3e00008 	mvn	r0, #8
801494bc:	e8bd81f0 	pop	{r4, r5, r6, r7, r8, pc}
801494c0:	e3e00065 	mvn	r0, #101	; 0x65
801494c4:	e8bd81f0 	pop	{r4, r5, r6, r7, r8, pc}

801494c8 <RME_Int_Print>:
801494c8:	e92d41f0 	push	{r4, r5, r6, r7, r8, lr}
801494cc:	e2507000 	subs	r7, r0, #0
801494d0:	0a000024 	beq	80149568 <RME_Int_Print+0xa0>
801494d4:	a3a06001 	movge	r6, #1
801494d8:	a3a00000 	movge	r0, #0
801494dc:	ba00001b 	blt	80149550 <RME_Int_Print+0x88>
801494e0:	e30c2ccd 	movw	r2, #52429	; 0xcccd
801494e4:	e34c2ccc 	movt	r2, #52428	; 0xcccc
801494e8:	e0831792 	umull	r1, r3, r2, r7
801494ec:	e1b031a3 	lsrs	r3, r3, #3
801494f0:	0a000021 	beq	8014957c <RME_Int_Print+0xb4>
801494f4:	e3a05001 	mov	r5, #1
801494f8:	e3a0100a 	mov	r1, #10
801494fc:	e1a04005 	mov	r4, r5
80149500:	e083c392 	umull	ip, r3, r2, r3
80149504:	e0040491 	mul	r4, r1, r4
80149508:	e1b031a3 	lsrs	r3, r3, #3
8014950c:	e2855001 	add	r5, r5, #1
80149510:	1afffffa 	bne	80149500 <RME_Int_Print+0x38>
80149514:	e0806005 	add	r6, r0, r5
80149518:	e30c8ccd 	movw	r8, #52429	; 0xcccd
8014951c:	e34c8ccc 	movt	r8, #52428	; 0xcccc
80149520:	e733f417 	udiv	r3, r7, r4
80149524:	e2830030 	add	r0, r3, #48	; 0x30
80149528:	e2455001 	sub	r5, r5, #1
8014952c:	e6af0070 	sxtb	r0, r0
80149530:	e0677394 	mls	r7, r4, r3, r7
80149534:	e0843498 	umull	r3, r4, r8, r4
80149538:	eb0010d2 	bl	8014d888 <__RME_Putchar>
8014953c:	e1a041a4 	lsr	r4, r4, #3
80149540:	e3550000 	cmp	r5, #0
80149544:	1afffff5 	bne	80149520 <RME_Int_Print+0x58>
80149548:	e1a00006 	mov	r0, r6
8014954c:	e8bd81f0 	pop	{r4, r5, r6, r7, r8, pc}
80149550:	e3a0002d 	mov	r0, #45	; 0x2d
80149554:	e2677000 	rsb	r7, r7, #0
80149558:	e3a06002 	mov	r6, #2
8014955c:	eb0010c9 	bl	8014d888 <__RME_Putchar>
80149560:	e3a00001 	mov	r0, #1
80149564:	eaffffdd 	b	801494e0 <RME_Int_Print+0x18>
80149568:	e3a06001 	mov	r6, #1
8014956c:	e3a00030 	mov	r0, #48	; 0x30
80149570:	eb0010c4 	bl	8014d888 <__RME_Putchar>
80149574:	e1a00006 	mov	r0, r6
80149578:	e8bd81f0 	pop	{r4, r5, r6, r7, r8, pc}
8014957c:	e2870030 	add	r0, r7, #48	; 0x30
80149580:	e6af0070 	sxtb	r0, r0
80149584:	eb0010bf 	bl	8014d888 <__RME_Putchar>
80149588:	eaffffee 	b	80149548 <RME_Int_Print+0x80>

8014958c <RME_Str_Print>:
8014958c:	e92d4070 	push	{r4, r5, r6, lr}
80149590:	e3a04000 	mov	r4, #0
80149594:	e1a05000 	mov	r5, r0
80149598:	ea000003 	b	801495ac <RME_Str_Print+0x20>
8014959c:	e2844002 	add	r4, r4, #2
801495a0:	eb0010b8 	bl	8014d888 <__RME_Putchar>
801495a4:	e3540c01 	cmp	r4, #256	; 0x100
801495a8:	0a000002 	beq	801495b8 <RME_Str_Print+0x2c>
801495ac:	e19500d4 	ldrsb	r0, [r5, r4]
801495b0:	e3500000 	cmp	r0, #0
801495b4:	1afffff8 	bne	8014959c <RME_Str_Print+0x10>
801495b8:	e1a00004 	mov	r0, r4
801495bc:	e8bd8070 	pop	{r4, r5, r6, pc}

801495c0 <RME_Log>:
801495c0:	e92d47f0 	push	{r4, r5, r6, r7, r8, r9, sl, lr}
801495c4:	e30d4d48 	movw	r4, #56648	; 0xdd48
801495c8:	e3484014 	movt	r4, #32788	; 0x8014
801495cc:	e1a08000 	mov	r8, r0
801495d0:	e1a07001 	mov	r7, r1
801495d4:	e1a06002 	mov	r6, r2
801495d8:	e1a05003 	mov	r5, r3
801495dc:	e28490fe 	add	r9, r4, #254	; 0xfe
801495e0:	e3a0000d 	mov	r0, #13
801495e4:	eb0010a7 	bl	8014d888 <__RME_Putchar>
801495e8:	e1540009 	cmp	r4, r9
801495ec:	0a000059 	beq	80149758 <RME_Log+0x198>
801495f0:	e1f400d2 	ldrsb	r0, [r4, #2]!
801495f4:	e3500000 	cmp	r0, #0
801495f8:	1afffff9 	bne	801495e4 <RME_Log+0x24>
801495fc:	e1a04000 	mov	r4, r0
80149600:	ea000002 	b	80149610 <RME_Log+0x50>
80149604:	eb00109f 	bl	8014d888 <__RME_Putchar>
80149608:	e3540c01 	cmp	r4, #256	; 0x100
8014960c:	0a000003 	beq	80149620 <RME_Log+0x60>
80149610:	e19800d4 	ldrsb	r0, [r8, r4]
80149614:	e2844002 	add	r4, r4, #2
80149618:	e3500000 	cmp	r0, #0
8014961c:	1afffff8 	bne	80149604 <RME_Log+0x44>
80149620:	e30d4d70 	movw	r4, #56688	; 0xdd70
80149624:	e3a00020 	mov	r0, #32
80149628:	e3484014 	movt	r4, #32788	; 0x8014
8014962c:	e28480fe 	add	r8, r4, #254	; 0xfe
80149630:	eb001094 	bl	8014d888 <__RME_Putchar>
80149634:	e1580004 	cmp	r8, r4
80149638:	0a000002 	beq	80149648 <RME_Log+0x88>
8014963c:	e1f400d2 	ldrsb	r0, [r4, #2]!
80149640:	e3500000 	cmp	r0, #0
80149644:	1afffff9 	bne	80149630 <RME_Log+0x70>
80149648:	e3570000 	cmp	r7, #0
8014964c:	0a00003e 	beq	8014974c <RME_Log+0x18c>
80149650:	ba000039 	blt	8014973c <RME_Log+0x17c>
80149654:	e30c2ccd 	movw	r2, #52429	; 0xcccd
80149658:	e34c2ccc 	movt	r2, #52428	; 0xcccc
8014965c:	e0831792 	umull	r1, r3, r2, r7
80149660:	e1b031a3 	lsrs	r3, r3, #3
80149664:	0a00003f 	beq	80149768 <RME_Log+0x1a8>
80149668:	e3a04001 	mov	r4, #1
8014966c:	e3a0100a 	mov	r1, #10
80149670:	e1a08004 	mov	r8, r4
80149674:	e0830392 	umull	r0, r3, r2, r3
80149678:	e0040491 	mul	r4, r1, r4
8014967c:	e1b031a3 	lsrs	r3, r3, #3
80149680:	e2888001 	add	r8, r8, #1
80149684:	1afffffa 	bne	80149674 <RME_Log+0xb4>
80149688:	e30c9ccd 	movw	r9, #52429	; 0xcccd
8014968c:	e34c9ccc 	movt	r9, #52428	; 0xcccc
80149690:	e733f417 	udiv	r3, r7, r4
80149694:	e2830030 	add	r0, r3, #48	; 0x30
80149698:	e2488001 	sub	r8, r8, #1
8014969c:	e6af0070 	sxtb	r0, r0
801496a0:	e0677394 	mls	r7, r4, r3, r7
801496a4:	e0843499 	umull	r3, r4, r9, r4
801496a8:	eb001076 	bl	8014d888 <__RME_Putchar>
801496ac:	e1a041a4 	lsr	r4, r4, #3
801496b0:	e3580000 	cmp	r8, #0
801496b4:	1afffff5 	bne	80149690 <RME_Log+0xd0>
801496b8:	e3a0000d 	mov	r0, #13
801496bc:	e3a04000 	mov	r4, #0
801496c0:	eb001070 	bl	8014d888 <__RME_Putchar>
801496c4:	ea000002 	b	801496d4 <RME_Log+0x114>
801496c8:	eb00106e 	bl	8014d888 <__RME_Putchar>
801496cc:	e3540c01 	cmp	r4, #256	; 0x100
801496d0:	0a000003 	beq	801496e4 <RME_Log+0x124>
801496d4:	e19600d4 	ldrsb	r0, [r6, r4]
801496d8:	e2844002 	add	r4, r4, #2
801496dc:	e3500000 	cmp	r0, #0
801496e0:	1afffff8 	bne	801496c8 <RME_Log+0x108>
801496e4:	e30d4d7c 	movw	r4, #56700	; 0xdd7c
801496e8:	e3a00020 	mov	r0, #32
801496ec:	e3484014 	movt	r4, #32788	; 0x8014
801496f0:	e28460fe 	add	r6, r4, #254	; 0xfe
801496f4:	eb001063 	bl	8014d888 <__RME_Putchar>
801496f8:	e1560004 	cmp	r6, r4
801496fc:	0a000017 	beq	80149760 <RME_Log+0x1a0>
80149700:	e1f400d2 	ldrsb	r0, [r4, #2]!
80149704:	e3500000 	cmp	r0, #0
80149708:	1afffff9 	bne	801496f4 <RME_Log+0x134>
8014970c:	e1a04000 	mov	r4, r0
80149710:	ea000002 	b	80149720 <RME_Log+0x160>
80149714:	eb00105b 	bl	8014d888 <__RME_Putchar>
80149718:	e3540c01 	cmp	r4, #256	; 0x100
8014971c:	0a000003 	beq	80149730 <RME_Log+0x170>
80149720:	e19500d4 	ldrsb	r0, [r5, r4]
80149724:	e2844002 	add	r4, r4, #2
80149728:	e3500000 	cmp	r0, #0
8014972c:	1afffff8 	bne	80149714 <RME_Log+0x154>
80149730:	e8bd47f0 	pop	{r4, r5, r6, r7, r8, r9, sl, lr}
80149734:	e3a0000d 	mov	r0, #13
80149738:	ea001052 	b	8014d888 <__RME_Putchar>
8014973c:	e3a0002d 	mov	r0, #45	; 0x2d
80149740:	e2677000 	rsb	r7, r7, #0
80149744:	eb00104f 	bl	8014d888 <__RME_Putchar>
80149748:	eaffffc1 	b	80149654 <RME_Log+0x94>
8014974c:	e3a00030 	mov	r0, #48	; 0x30
80149750:	eb00104c 	bl	8014d888 <__RME_Putchar>
80149754:	eaffffd7 	b	801496b8 <RME_Log+0xf8>
80149758:	e3a04000 	mov	r4, #0
8014975c:	eaffffab 	b	80149610 <RME_Log+0x50>
80149760:	e3a04000 	mov	r4, #0
80149764:	eaffffed 	b	80149720 <RME_Log+0x160>
80149768:	e2870030 	add	r0, r7, #48	; 0x30
8014976c:	e6af0070 	sxtb	r0, r0
80149770:	eb001044 	bl	8014d888 <__RME_Putchar>
80149774:	eaffffcf 	b	801496b8 <RME_Log+0xf8>

80149778 <_RME_Run_High>:
80149778:	e92d4010 	push	{r4, lr}
8014977c:	e1a04000 	mov	r4, r0
80149780:	e5900010 	ldr	r0, [r0, #16]
80149784:	e3500000 	cmp	r0, #0
80149788:	1a000008 	bne	801497b0 <_RME_Run_High+0x38>
8014978c:	e30d3d80 	movw	r3, #56704	; 0xdd80
80149790:	e30d2d8c 	movw	r2, #56716	; 0xdd8c
80149794:	e3483014 	movt	r3, #32788	; 0x8014
80149798:	e30d0d98 	movw	r0, #56728	; 0xdd98
8014979c:	e3482014 	movt	r2, #32788	; 0x8014
801497a0:	e3011186 	movw	r1, #4486	; 0x1186
801497a4:	e3480014 	movt	r0, #32788	; 0x8014
801497a8:	ebffff84 	bl	801495c0 <RME_Log>
801497ac:	eafffffe 	b	801497ac <_RME_Run_High+0x34>
801497b0:	ebfffbe0 	bl	80148738 <__RME_A7A_MSB_Get>
801497b4:	e0844180 	add	r4, r4, r0, lsl #3
801497b8:	e5940014 	ldr	r0, [r4, #20]
801497bc:	e8bd8010 	pop	{r4, pc}

801497c0 <_RME_Thd_Sched_Bind>:
801497c0:	e3110080 	tst	r1, #128	; 0x80
801497c4:	e92d47f0 	push	{r4, r5, r6, r7, r8, r9, sl, lr}
801497c8:	e1a05001 	mov	r5, r1
801497cc:	e59d8028 	ldr	r8, [sp, #40]	; 0x28
801497d0:	e1a04000 	mov	r4, r0
801497d4:	e1a06002 	mov	r6, r2
801497d8:	e1a07003 	mov	r7, r3
801497dc:	1a00006e 	bne	8014999c <_RME_Thd_Sched_Bind+0x1dc>
801497e0:	e5903014 	ldr	r3, [r0, #20]
801497e4:	e1510003 	cmp	r1, r3
801497e8:	3590100c 	ldrcc	r1, [r0, #12]
801497ec:	2a00009b 	bcs	80149a60 <_RME_Thd_Sched_Bind+0x2a0>
801497f0:	e0815285 	add	r5, r1, r5, lsl #5
801497f4:	e1a00005 	mov	r0, r5
801497f8:	ebfffbc0 	bl	80148700 <__RME_A7A_Read_Acquire>
801497fc:	e7e73850 	ubfx	r3, r0, #16, #8
80149800:	e3530002 	cmp	r3, #2
80149804:	0a0000c5 	beq	80149b20 <_RME_Thd_Sched_Bind+0x360>
80149808:	e1a00c20 	lsr	r0, r0, #24
8014980c:	e3500006 	cmp	r0, #6
80149810:	1a0000b0 	bne	80149ad8 <_RME_Thd_Sched_Bind+0x318>
80149814:	e3160080 	tst	r6, #128	; 0x80
80149818:	0a000073 	beq	801499ec <_RME_Thd_Sched_Bind+0x22c>
8014981c:	e5942014 	ldr	r2, [r4, #20]
80149820:	e1a03426 	lsr	r3, r6, #8
80149824:	e1530002 	cmp	r3, r2
80149828:	2a00008c 	bcs	80149a60 <_RME_Thd_Sched_Bind+0x2a0>
8014982c:	e594900c 	ldr	r9, [r4, #12]
80149830:	e0899283 	add	r9, r9, r3, lsl #5
80149834:	e1a00009 	mov	r0, r9
80149838:	ebfffbb0 	bl	80148700 <__RME_A7A_Read_Acquire>
8014983c:	e7e73850 	ubfx	r3, r0, #16, #8
80149840:	e3530002 	cmp	r3, #2
80149844:	0a0000b5 	beq	80149b20 <_RME_Thd_Sched_Bind+0x360>
80149848:	e1a00c20 	lsr	r0, r0, #24
8014984c:	e3500003 	cmp	r0, #3
80149850:	1a0000a0 	bne	80149ad8 <_RME_Thd_Sched_Bind+0x318>
80149854:	e5993014 	ldr	r3, [r9, #20]
80149858:	e206607f 	and	r6, r6, #127	; 0x7f
8014985c:	e1560003 	cmp	r6, r3
80149860:	2a00007e 	bcs	80149a60 <_RME_Thd_Sched_Bind+0x2a0>
80149864:	e599200c 	ldr	r2, [r9, #12]
80149868:	e0826286 	add	r6, r2, r6, lsl #5
8014986c:	e1a00006 	mov	r0, r6
80149870:	ebfffba2 	bl	80148700 <__RME_A7A_Read_Acquire>
80149874:	e7e73850 	ubfx	r3, r0, #16, #8
80149878:	e3530002 	cmp	r3, #2
8014987c:	0a0000a7 	beq	80149b20 <_RME_Thd_Sched_Bind+0x360>
80149880:	e1a00c20 	lsr	r0, r0, #24
80149884:	e3500006 	cmp	r0, #6
80149888:	1a000092 	bne	80149ad8 <_RME_Thd_Sched_Bind+0x318>
8014988c:	e5953008 	ldr	r3, [r5, #8]
80149890:	e3130002 	tst	r3, #2
80149894:	0a00009f 	beq	80149b18 <_RME_Thd_Sched_Bind+0x358>
80149898:	e5963008 	ldr	r3, [r6, #8]
8014989c:	e3130004 	tst	r3, #4
801498a0:	0a00009c 	beq	80149b18 <_RME_Thd_Sched_Bind+0x358>
801498a4:	e3570902 	cmp	r7, #32768	; 0x8000
801498a8:	0a000058 	beq	80149a10 <_RME_Thd_Sched_Bind+0x250>
801498ac:	e3170080 	tst	r7, #128	; 0x80
801498b0:	1a000058 	bne	80149a18 <_RME_Thd_Sched_Bind+0x258>
801498b4:	e5943014 	ldr	r3, [r4, #20]
801498b8:	e1570003 	cmp	r7, r3
801498bc:	2a000067 	bcs	80149a60 <_RME_Thd_Sched_Bind+0x2a0>
801498c0:	e594300c 	ldr	r3, [r4, #12]
801498c4:	e0837287 	add	r7, r3, r7, lsl #5
801498c8:	e1a00007 	mov	r0, r7
801498cc:	ebfffb8b 	bl	80148700 <__RME_A7A_Read_Acquire>
801498d0:	e7e73850 	ubfx	r3, r0, #16, #8
801498d4:	e3530002 	cmp	r3, #2
801498d8:	0a000090 	beq	80149b20 <_RME_Thd_Sched_Bind+0x360>
801498dc:	e1a00c20 	lsr	r0, r0, #24
801498e0:	e3500008 	cmp	r0, #8
801498e4:	1a00007b 	bne	80149ad8 <_RME_Thd_Sched_Bind+0x318>
801498e8:	e5973008 	ldr	r3, [r7, #8]
801498ec:	e3130020 	tst	r3, #32
801498f0:	0a000088 	beq	80149b18 <_RME_Thd_Sched_Bind+0x358>
801498f4:	e595300c 	ldr	r3, [r5, #12]
801498f8:	e5932014 	ldr	r2, [r3, #20]
801498fc:	e3720001 	cmn	r2, #1
80149900:	1a00007f 	bne	80149b04 <_RME_Thd_Sched_Bind+0x344>
80149904:	e596100c 	ldr	r1, [r6, #12]
80149908:	e30e0000 	movw	r0, #57344	; 0xe000
8014990c:	e3480094 	movt	r0, #32916	; 0x8094
80149910:	e5912014 	ldr	r2, [r1, #20]
80149914:	e1520000 	cmp	r2, r0
80149918:	1a000079 	bne	80149b04 <_RME_Thd_Sched_Bind+0x344>
8014991c:	e1530001 	cmp	r3, r1
80149920:	0a000082 	beq	80149b30 <_RME_Thd_Sched_Bind+0x370>
80149924:	e5912024 	ldr	r2, [r1, #36]	; 0x24
80149928:	e59dc024 	ldr	ip, [sp, #36]	; 0x24
8014992c:	e152000c 	cmp	r2, ip
80149930:	3a00007c 	bcc	80149b28 <_RME_Thd_Sched_Bind+0x368>
80149934:	e5932044 	ldr	r2, [r3, #68]	; 0x44
80149938:	e3d2c102 	bics	ip, r2, #-2147483648	; 0x80000000
8014993c:	1a000075 	bne	80149b18 <_RME_Thd_Sched_Bind+0x358>
80149940:	e258c000 	subs	ip, r8, #0
80149944:	e1a02fa2 	lsr	r2, r2, #31
80149948:	13a0c001 	movne	ip, #1
8014994c:	e11c0002 	tst	ip, r2
80149950:	0a00002a 	beq	80149a00 <_RME_Thd_Sched_Bind+0x240>
80149954:	e2182003 	ands	r2, r8, #3
80149958:	13a02001 	movne	r2, #1
8014995c:	e378021e 	cmn	r8, #-536870911	; 0xe0000001
80149960:	83a0c000 	movhi	ip, #0
80149964:	93a0c001 	movls	ip, #1
80149968:	e192200c 	orrs	r2, r2, ip
8014996c:	1a000025 	bne	80149a08 <_RME_Thd_Sched_Bind+0x248>
80149970:	e3a02000 	mov	r2, #0
80149974:	e288c044 	add	ip, r8, #68	; 0x44
80149978:	e3422002 	movt	r2, #8194	; 0x2002
8014997c:	e15c0002 	cmp	ip, r2
80149980:	9158000c 	cmpls	r8, ip
80149984:	2a00001f 	bcs	80149a08 <_RME_Thd_Sched_Bind+0x248>
80149988:	e5932014 	ldr	r2, [r3, #20]
8014998c:	e3720001 	cmn	r2, #1
80149990:	0a000034 	beq	80149a68 <_RME_Thd_Sched_Bind+0x2a8>
80149994:	e3e000c9 	mvn	r0, #201	; 0xc9
80149998:	e8bd87f0 	pop	{r4, r5, r6, r7, r8, r9, sl, pc}
8014999c:	e5902014 	ldr	r2, [r0, #20]
801499a0:	e1a03421 	lsr	r3, r1, #8
801499a4:	e1530002 	cmp	r3, r2
801499a8:	2a00002c 	bcs	80149a60 <_RME_Thd_Sched_Bind+0x2a0>
801499ac:	e590900c 	ldr	r9, [r0, #12]
801499b0:	e0899283 	add	r9, r9, r3, lsl #5
801499b4:	e1a00009 	mov	r0, r9
801499b8:	ebfffb50 	bl	80148700 <__RME_A7A_Read_Acquire>
801499bc:	e7e73850 	ubfx	r3, r0, #16, #8
801499c0:	e3530002 	cmp	r3, #2
801499c4:	0a000055 	beq	80149b20 <_RME_Thd_Sched_Bind+0x360>
801499c8:	e1a00c20 	lsr	r0, r0, #24
801499cc:	e3500003 	cmp	r0, #3
801499d0:	1a000040 	bne	80149ad8 <_RME_Thd_Sched_Bind+0x318>
801499d4:	e5993014 	ldr	r3, [r9, #20]
801499d8:	e205507f 	and	r5, r5, #127	; 0x7f
801499dc:	e1550003 	cmp	r5, r3
801499e0:	2a00001e 	bcs	80149a60 <_RME_Thd_Sched_Bind+0x2a0>
801499e4:	e599100c 	ldr	r1, [r9, #12]
801499e8:	eaffff80 	b	801497f0 <_RME_Thd_Sched_Bind+0x30>
801499ec:	e5943014 	ldr	r3, [r4, #20]
801499f0:	e1560003 	cmp	r6, r3
801499f4:	2a000019 	bcs	80149a60 <_RME_Thd_Sched_Bind+0x2a0>
801499f8:	e594200c 	ldr	r2, [r4, #12]
801499fc:	eaffff99 	b	80149868 <_RME_Thd_Sched_Bind+0xa8>
80149a00:	e15c0002 	cmp	ip, r2
80149a04:	0affffdf 	beq	80149988 <_RME_Thd_Sched_Bind+0x1c8>
80149a08:	e3e000ca 	mvn	r0, #202	; 0xca
80149a0c:	e8bd87f0 	pop	{r4, r5, r6, r7, r8, r9, sl, pc}
80149a10:	e3a07000 	mov	r7, #0
80149a14:	eaffffb6 	b	801498f4 <_RME_Thd_Sched_Bind+0x134>
80149a18:	e5942014 	ldr	r2, [r4, #20]
80149a1c:	e1a03427 	lsr	r3, r7, #8
80149a20:	e1530002 	cmp	r3, r2
80149a24:	2a00000d 	bcs	80149a60 <_RME_Thd_Sched_Bind+0x2a0>
80149a28:	e594400c 	ldr	r4, [r4, #12]
80149a2c:	e0844283 	add	r4, r4, r3, lsl #5
80149a30:	e1a00004 	mov	r0, r4
80149a34:	ebfffb31 	bl	80148700 <__RME_A7A_Read_Acquire>
80149a38:	e7e73850 	ubfx	r3, r0, #16, #8
80149a3c:	e3530002 	cmp	r3, #2
80149a40:	0a000036 	beq	80149b20 <_RME_Thd_Sched_Bind+0x360>
80149a44:	e1a00c20 	lsr	r0, r0, #24
80149a48:	e3500003 	cmp	r0, #3
80149a4c:	1a000021 	bne	80149ad8 <_RME_Thd_Sched_Bind+0x318>
80149a50:	e5943014 	ldr	r3, [r4, #20]
80149a54:	e207707f 	and	r7, r7, #127	; 0x7f
80149a58:	e1570003 	cmp	r7, r3
80149a5c:	3affff97 	bcc	801498c0 <_RME_Thd_Sched_Bind+0x100>
80149a60:	e3e00002 	mvn	r0, #2
80149a64:	e8bd87f0 	pop	{r4, r5, r6, r7, r8, r9, sl, pc}
80149a68:	e5830014 	str	r0, [r3, #20]
80149a6c:	e5912030 	ldr	r2, [r1, #48]	; 0x30
80149a70:	e2822001 	add	r2, r2, #1
80149a74:	e5812030 	str	r2, [r1, #48]	; 0x30
80149a78:	e593201c 	ldr	r2, [r3, #28]
80149a7c:	e5831034 	str	r1, [r3, #52]	; 0x34
80149a80:	e59d1024 	ldr	r1, [sp, #36]	; 0x24
80149a84:	e2422002 	sub	r2, r2, #2
80149a88:	e3520001 	cmp	r2, #1
80149a8c:	e5831020 	str	r1, [r3, #32]
80149a90:	e59d1020 	ldr	r1, [sp, #32]
80149a94:	e5831010 	str	r1, [r3, #16]
80149a98:	8a000010 	bhi	80149ae0 <_RME_Thd_Sched_Bind+0x320>
80149a9c:	e3570000 	cmp	r7, #0
80149aa0:	05837038 	streq	r7, [r3, #56]	; 0x38
80149aa4:	0a000006 	beq	80149ac4 <_RME_Thd_Sched_Bind+0x304>
80149aa8:	e1d720b0 	ldrh	r2, [r7]
80149aac:	e3520000 	cmp	r2, #0
80149ab0:	15977004 	ldrne	r7, [r7, #4]
80149ab4:	e5837038 	str	r7, [r3, #56]	; 0x38
80149ab8:	e5972004 	ldr	r2, [r7, #4]
80149abc:	e2822001 	add	r2, r2, #1
80149ac0:	e5872004 	str	r2, [r7, #4]
80149ac4:	e5932044 	ldr	r2, [r3, #68]	; 0x44
80149ac8:	e3520000 	cmp	r2, #0
80149acc:	ba00000e 	blt	80149b0c <_RME_Thd_Sched_Bind+0x34c>
80149ad0:	e3a00000 	mov	r0, #0
80149ad4:	e8bd87f0 	pop	{r4, r5, r6, r7, r8, r9, sl, pc}
80149ad8:	e3e00001 	mvn	r0, #1
80149adc:	e8bd87f0 	pop	{r4, r5, r6, r7, r8, r9, sl, pc}
80149ae0:	e30d3d80 	movw	r3, #56704	; 0xdd80
80149ae4:	e30d2d8c 	movw	r2, #56716	; 0xdd8c
80149ae8:	e3483014 	movt	r3, #32788	; 0x8014
80149aec:	e30d0d98 	movw	r0, #56728	; 0xdd98
80149af0:	e3482014 	movt	r2, #32788	; 0x8014
80149af4:	e3011620 	movw	r1, #5664	; 0x1620
80149af8:	e3480014 	movt	r0, #32788	; 0x8014
80149afc:	ebfffeaf 	bl	801495c0 <RME_Log>
80149b00:	eafffffe 	b	80149b00 <_RME_Thd_Sched_Bind+0x340>
80149b04:	e3e000cb 	mvn	r0, #203	; 0xcb
80149b08:	e8bd87f0 	pop	{r4, r5, r6, r7, r8, r9, sl, pc}
80149b0c:	e5838048 	str	r8, [r3, #72]	; 0x48
80149b10:	e3a00000 	mov	r0, #0
80149b14:	e8bd87f0 	pop	{r4, r5, r6, r7, r8, r9, sl, pc}
80149b18:	e3e00006 	mvn	r0, #6
80149b1c:	e8bd87f0 	pop	{r4, r5, r6, r7, r8, r9, sl, pc}
80149b20:	e3e00008 	mvn	r0, #8
80149b24:	e8bd87f0 	pop	{r4, r5, r6, r7, r8, r9, sl, pc}
80149b28:	e3e000cc 	mvn	r0, #204	; 0xcc
80149b2c:	e8bd87f0 	pop	{r4, r5, r6, r7, r8, r9, sl, pc}
80149b30:	e3e000ce 	mvn	r0, #206	; 0xce
80149b34:	e8bd87f0 	pop	{r4, r5, r6, r7, r8, r9, sl, pc}

80149b38 <_RME_Inv_Ret>:
80149b38:	e30e3000 	movw	r3, #57344	; 0xe000
80149b3c:	e3483094 	movt	r3, #32916	; 0x8094
80149b40:	e92d47f0 	push	{r4, r5, r6, r7, r8, r9, sl, lr}
80149b44:	e5936004 	ldr	r6, [r3, #4]
80149b48:	e1a05006 	mov	r5, r6
80149b4c:	e5b5404c 	ldr	r4, [r5, #76]!	; 0x4c
80149b50:	e3540000 	cmp	r4, #0
80149b54:	11540005 	cmpne	r4, r5
80149b58:	03a0a001 	moveq	sl, #1
80149b5c:	13a0a000 	movne	sl, #0
80149b60:	0a000053 	beq	80149cb4 <_RME_Inv_Ret+0x17c>
80149b64:	e3520000 	cmp	r2, #0
80149b68:	e1a08000 	mov	r8, r0
80149b6c:	e1a09001 	mov	r9, r1
80149b70:	e1a07002 	mov	r7, r2
80149b74:	0a00002a 	beq	80149c24 <_RME_Inv_Ret+0xec>
80149b78:	e5943018 	ldr	r3, [r4, #24]
80149b7c:	e3530000 	cmp	r3, #0
80149b80:	0a00004e 	beq	80149cc0 <_RME_Inv_Ret+0x188>
80149b84:	e5943004 	ldr	r3, [r4, #4]
80149b88:	e1a01004 	mov	r1, r4
80149b8c:	e491201c 	ldr	r2, [r1], #28
80149b90:	e5823004 	str	r3, [r2, #4]
80149b94:	e5832000 	str	r2, [r3]
80149b98:	e5963054 	ldr	r3, [r6, #84]	; 0x54
80149b9c:	e2433001 	sub	r3, r3, #1
80149ba0:	e5863054 	str	r3, [r6, #84]	; 0x54
80149ba4:	eb001001 	bl	8014dbb0 <__RME_Inv_Reg_Restore>
80149ba8:	e1a01009 	mov	r1, r9
80149bac:	e1a00008 	mov	r0, r8
80149bb0:	eb001003 	bl	8014dbc4 <__RME_Inv_Retval_Set>
80149bb4:	e1a0100a 	mov	r1, sl
80149bb8:	e284000c 	add	r0, r4, #12
80149bbc:	ebfffad2 	bl	8014870c <__RME_A7A_Write_Release>
80149bc0:	e30f1ed2 	movw	r1, #65234	; 0xfed2
80149bc4:	e1a00008 	mov	r0, r8
80149bc8:	e34f1fff 	movt	r1, #65535	; 0xffff
80149bcc:	eb000fca 	bl	8014dafc <__RME_Svc_Retval_Set>
80149bd0:	e596304c 	ldr	r3, [r6, #76]	; 0x4c
80149bd4:	e1550003 	cmp	r5, r3
80149bd8:	13530000 	cmpne	r3, #0
80149bdc:	1a000026 	bne	80149c7c <_RME_Inv_Ret+0x144>
80149be0:	e596302c 	ldr	r3, [r6, #44]	; 0x2c
80149be4:	e5930018 	ldr	r0, [r3, #24]
80149be8:	e1d040b0 	ldrh	r4, [r0]
80149bec:	e3540000 	cmp	r4, #0
80149bf0:	0a000008 	beq	80149c18 <_RME_Inv_Ret+0xe0>
80149bf4:	e30d3d80 	movw	r3, #56704	; 0xdd80
80149bf8:	e30d2d8c 	movw	r2, #56716	; 0xdd8c
80149bfc:	e3483014 	movt	r3, #32788	; 0x8014
80149c00:	e30d0d98 	movw	r0, #56728	; 0xdd98
80149c04:	e3482014 	movt	r2, #32788	; 0x8014
80149c08:	e3011e4a 	movw	r1, #7754	; 0x1e4a
80149c0c:	e3480014 	movt	r0, #32788	; 0x8014
80149c10:	ebfffe6a 	bl	801495c0 <RME_Log>
80149c14:	eafffffe 	b	80149c14 <_RME_Inv_Ret+0xdc>
80149c18:	eb00102a 	bl	8014dcc8 <__RME_Pgt_Set>
80149c1c:	e1a00004 	mov	r0, r4
80149c20:	e8bd87f0 	pop	{r4, r5, r6, r7, r8, r9, sl, pc}
80149c24:	e5943004 	ldr	r3, [r4, #4]
80149c28:	e1a01004 	mov	r1, r4
80149c2c:	e491201c 	ldr	r2, [r1], #28
80149c30:	e5823004 	str	r3, [r2, #4]
80149c34:	e5832000 	str	r2, [r3]
80149c38:	e5963054 	ldr	r3, [r6, #84]	; 0x54
80149c3c:	e2433001 	sub	r3, r3, #1
80149c40:	e5863054 	str	r3, [r6, #84]	; 0x54
80149c44:	eb000fd9 	bl	8014dbb0 <__RME_Inv_Reg_Restore>
80149c48:	e1a01009 	mov	r1, r9
80149c4c:	e1a00008 	mov	r0, r8
80149c50:	eb000fdb 	bl	8014dbc4 <__RME_Inv_Retval_Set>
80149c54:	e1a01007 	mov	r1, r7
80149c58:	e284000c 	add	r0, r4, #12
80149c5c:	ebfffaaa 	bl	8014870c <__RME_A7A_Write_Release>
80149c60:	e1a01007 	mov	r1, r7
80149c64:	e1a00008 	mov	r0, r8
80149c68:	eb000fa3 	bl	8014dafc <__RME_Svc_Retval_Set>
80149c6c:	e596304c 	ldr	r3, [r6, #76]	; 0x4c
80149c70:	e1550003 	cmp	r5, r3
80149c74:	13530000 	cmpne	r3, #0
80149c78:	0affffd8 	beq	80149be0 <_RME_Inv_Ret+0xa8>
80149c7c:	e5933008 	ldr	r3, [r3, #8]
80149c80:	e5930018 	ldr	r0, [r3, #24]
80149c84:	e1d040b0 	ldrh	r4, [r0]
80149c88:	e3540000 	cmp	r4, #0
80149c8c:	0affffe1 	beq	80149c18 <_RME_Inv_Ret+0xe0>
80149c90:	e30d3d80 	movw	r3, #56704	; 0xdd80
80149c94:	e30d2d8c 	movw	r2, #56716	; 0xdd8c
80149c98:	e3483014 	movt	r3, #32788	; 0x8014
80149c9c:	e30d0d98 	movw	r0, #56728	; 0xdd98
80149ca0:	e3482014 	movt	r2, #32788	; 0x8014
80149ca4:	e3011e41 	movw	r1, #7745	; 0x1e41
80149ca8:	e3480014 	movt	r0, #32788	; 0x8014
80149cac:	ebfffe43 	bl	801495c0 <RME_Log>
80149cb0:	eafffffe 	b	80149cb0 <_RME_Inv_Ret+0x178>
80149cb4:	e30f0ed0 	movw	r0, #65232	; 0xfed0
80149cb8:	e34f0fff 	movt	r0, #65535	; 0xffff
80149cbc:	e8bd87f0 	pop	{r4, r5, r6, r7, r8, r9, sl, pc}
80149cc0:	e30f0ed2 	movw	r0, #65234	; 0xfed2
80149cc4:	e34f0fff 	movt	r0, #65535	; 0xffff
80149cc8:	e8bd87f0 	pop	{r4, r5, r6, r7, r8, r9, sl, pc}

80149ccc <_RME_Run_Del>:
80149ccc:	e5902014 	ldr	r2, [r0, #20]
80149cd0:	e5901020 	ldr	r1, [r0, #32]
80149cd4:	e3720001 	cmn	r2, #1
80149cd8:	0a000012 	beq	80149d28 <_RME_Run_Del+0x5c>
80149cdc:	e8900009 	ldm	r0, {r0, r3}
80149ce0:	e5803004 	str	r3, [r0, #4]
80149ce4:	e5830000 	str	r0, [r3]
80149ce8:	e2813002 	add	r3, r1, #2
80149cec:	e1a03183 	lsl	r3, r3, #3
80149cf0:	e0820003 	add	r0, r2, r3
80149cf4:	e2833004 	add	r3, r3, #4
80149cf8:	e0823003 	add	r3, r2, r3
80149cfc:	e5900004 	ldr	r0, [r0, #4]
80149d00:	e1500003 	cmp	r0, r3
80149d04:	112fff1e 	bxne	lr
80149d08:	e1a032a1 	lsr	r3, r1, #5
80149d0c:	e3a00001 	mov	r0, #1
80149d10:	e201101f 	and	r1, r1, #31
80149d14:	e0822103 	add	r2, r2, r3, lsl #2
80149d18:	e5923010 	ldr	r3, [r2, #16]
80149d1c:	e1c31110 	bic	r1, r3, r0, lsl r1
80149d20:	e5821010 	str	r1, [r2, #16]
80149d24:	e12fff1e 	bx	lr
80149d28:	e30d3d80 	movw	r3, #56704	; 0xdd80
80149d2c:	e30d2d8c 	movw	r2, #56716	; 0xdd8c
80149d30:	e3483014 	movt	r3, #32788	; 0x8014
80149d34:	e30d0d98 	movw	r0, #56728	; 0xdd98
80149d38:	e3482014 	movt	r2, #32788	; 0x8014
80149d3c:	e3011155 	movw	r1, #4437	; 0x1155
80149d40:	e3480014 	movt	r0, #32788	; 0x8014
80149d44:	e92d4010 	push	{r4, lr}
80149d48:	ebfffe1c 	bl	801495c0 <RME_Log>
80149d4c:	eafffffe 	b	80149d4c <_RME_Run_Del+0x80>

80149d50 <_RME_Run_Ins>:
80149d50:	e5903014 	ldr	r3, [r0, #20]
80149d54:	e5902020 	ldr	r2, [r0, #32]
80149d58:	e3730001 	cmn	r3, #1
80149d5c:	0a00000e 	beq	80149d9c <_RME_Run_Ins+0x4c>
80149d60:	e0831182 	add	r1, r3, r2, lsl #3
80149d64:	e2811014 	add	r1, r1, #20
80149d68:	e591c004 	ldr	ip, [r1, #4]
80149d6c:	e5810004 	str	r0, [r1, #4]
80149d70:	e5801000 	str	r1, [r0]
80149d74:	e1a012a2 	lsr	r1, r2, #5
80149d78:	e202201f 	and	r2, r2, #31
80149d7c:	e580c004 	str	ip, [r0, #4]
80149d80:	e0833101 	add	r3, r3, r1, lsl #2
80149d84:	e58c0000 	str	r0, [ip]
80149d88:	e3a00001 	mov	r0, #1
80149d8c:	e5931010 	ldr	r1, [r3, #16]
80149d90:	e1812210 	orr	r2, r1, r0, lsl r2
80149d94:	e5832010 	str	r2, [r3, #16]
80149d98:	e12fff1e 	bx	lr
80149d9c:	e30d3d80 	movw	r3, #56704	; 0xdd80
80149da0:	e30d2d8c 	movw	r2, #56716	; 0xdd8c
80149da4:	e3483014 	movt	r3, #32788	; 0x8014
80149da8:	e30d0d98 	movw	r0, #56728	; 0xdd98
80149dac:	e3482014 	movt	r2, #32788	; 0x8014
80149db0:	e301113b 	movw	r1, #4411	; 0x113b
80149db4:	e3480014 	movt	r0, #32788	; 0x8014
80149db8:	e92d4010 	push	{r4, lr}
80149dbc:	ebfffdff 	bl	801495c0 <RME_Log>
80149dc0:	eafffffe 	b	80149dc0 <_RME_Run_Ins+0x70>

80149dc4 <_RME_Run_Swt.isra.0>:
80149dc4:	e92d41f0 	push	{r4, r5, r6, r7, r8, lr}
80149dc8:	e1a06000 	mov	r6, r0
80149dcc:	e5927048 	ldr	r7, [r2, #72]	; 0x48
80149dd0:	e1a05001 	mov	r5, r1
80149dd4:	e5910048 	ldr	r0, [r1, #72]	; 0x48
80149dd8:	e1a01006 	mov	r1, r6
80149ddc:	e1a04002 	mov	r4, r2
80149de0:	eb000f4c 	bl	8014db18 <__RME_Thd_Reg_Copy>
80149de4:	e1a01007 	mov	r1, r7
80149de8:	e1a00006 	mov	r0, r6
80149dec:	eb000f49 	bl	8014db18 <__RME_Thd_Reg_Copy>
80149df0:	e1a03005 	mov	r3, r5
80149df4:	e5b3204c 	ldr	r2, [r3, #76]!	; 0x4c
80149df8:	e3520000 	cmp	r2, #0
80149dfc:	11520003 	cmpne	r2, r3
80149e00:	15923008 	ldrne	r3, [r2, #8]
80149e04:	0595302c 	ldreq	r3, [r5, #44]	; 0x2c
80149e08:	e5931018 	ldr	r1, [r3, #24]
80149e0c:	e1a03004 	mov	r3, r4
80149e10:	e5b3204c 	ldr	r2, [r3, #76]!	; 0x4c
80149e14:	e3520000 	cmp	r2, #0
80149e18:	11520003 	cmpne	r2, r3
80149e1c:	0594302c 	ldreq	r3, [r4, #44]	; 0x2c
80149e20:	15923008 	ldrne	r3, [r2, #8]
80149e24:	e5930018 	ldr	r0, [r3, #24]
80149e28:	e1d130b0 	ldrh	r3, [r1]
80149e2c:	e3530000 	cmp	r3, #0
80149e30:	1a000011 	bne	80149e7c <_RME_Run_Swt.isra.0+0xb8>
80149e34:	e1d030b0 	ldrh	r3, [r0]
80149e38:	e3530000 	cmp	r3, #0
80149e3c:	1a000005 	bne	80149e58 <_RME_Run_Swt.isra.0+0x94>
80149e40:	e591200c 	ldr	r2, [r1, #12]
80149e44:	e590300c 	ldr	r3, [r0, #12]
80149e48:	e1520003 	cmp	r2, r3
80149e4c:	08bd81f0 	popeq	{r4, r5, r6, r7, r8, pc}
80149e50:	e8bd41f0 	pop	{r4, r5, r6, r7, r8, lr}
80149e54:	ea000f9b 	b	8014dcc8 <__RME_Pgt_Set>
80149e58:	e30d3d80 	movw	r3, #56704	; 0xdd80
80149e5c:	e30d2d8c 	movw	r2, #56716	; 0xdd8c
80149e60:	e3483014 	movt	r3, #32788	; 0x8014
80149e64:	e30d0d98 	movw	r0, #56728	; 0xdd98
80149e68:	e3482014 	movt	r2, #32788	; 0x8014
80149e6c:	e301120c 	movw	r1, #4620	; 0x120c
80149e70:	e3480014 	movt	r0, #32788	; 0x8014
80149e74:	ebfffdd1 	bl	801495c0 <RME_Log>
80149e78:	eafffffe 	b	80149e78 <_RME_Run_Swt.isra.0+0xb4>
80149e7c:	e30d3d80 	movw	r3, #56704	; 0xdd80
80149e80:	e30d2d8c 	movw	r2, #56716	; 0xdd8c
80149e84:	e3483014 	movt	r3, #32788	; 0x8014
80149e88:	e30d0d98 	movw	r0, #56728	; 0xdd98
80149e8c:	e3482014 	movt	r2, #32788	; 0x8014
80149e90:	e301120b 	movw	r1, #4619	; 0x120b
80149e94:	e3480014 	movt	r0, #32788	; 0x8014
80149e98:	ebfffdc8 	bl	801495c0 <RME_Log>
80149e9c:	eafffffe 	b	80149e9c <_RME_Run_Swt.isra.0+0xd8>

80149ea0 <_RME_Run_Notif>:
80149ea0:	e92d4070 	push	{r4, r5, r6, lr}
80149ea4:	e2802008 	add	r2, r0, #8
80149ea8:	e5903008 	ldr	r3, [r0, #8]
80149eac:	e1530002 	cmp	r3, r2
80149eb0:	0a000012 	beq	80149f00 <_RME_Run_Notif+0x60>
80149eb4:	e5904038 	ldr	r4, [r0, #56]	; 0x38
80149eb8:	e3540000 	cmp	r4, #0
80149ebc:	08bd8070 	popeq	{r4, r5, r6, pc}
80149ec0:	e5945018 	ldr	r5, [r4, #24]
80149ec4:	e3550000 	cmp	r5, #0
80149ec8:	0a000004 	beq	80149ee0 <_RME_Run_Notif+0x40>
80149ecc:	e5952014 	ldr	r2, [r5, #20]
80149ed0:	e30e3000 	movw	r3, #57344	; 0xe000
80149ed4:	e3483094 	movt	r3, #32916	; 0x8094
80149ed8:	e1520003 	cmp	r2, r3
80149edc:	0a00000f 	beq	80149f20 <_RME_Run_Notif+0x80>
80149ee0:	e5943014 	ldr	r3, [r4, #20]
80149ee4:	e373010a 	cmn	r3, #-2147483646	; 0x80000002
80149ee8:	e2833001 	add	r3, r3, #1
80149eec:	e5843014 	str	r3, [r4, #20]
80149ef0:	85943014 	ldrhi	r3, [r4, #20]
80149ef4:	82433001 	subhi	r3, r3, #1
80149ef8:	85843014 	strhi	r3, [r4, #20]
80149efc:	e8bd8070 	pop	{r4, r5, r6, pc}
80149f00:	e5902034 	ldr	r2, [r0, #52]	; 0x34
80149f04:	e5921040 	ldr	r1, [r2, #64]	; 0x40
80149f08:	e282c03c 	add	ip, r2, #60	; 0x3c
80149f0c:	e5823040 	str	r3, [r2, #64]	; 0x40
80149f10:	e580c008 	str	ip, [r0, #8]
80149f14:	e580100c 	str	r1, [r0, #12]
80149f18:	e5813000 	str	r3, [r1]
80149f1c:	eaffffe4 	b	80149eb4 <_RME_Run_Notif+0x14>
80149f20:	e5950048 	ldr	r0, [r5, #72]	; 0x48
80149f24:	e3a01001 	mov	r1, #1
80149f28:	eb000ef3 	bl	8014dafc <__RME_Svc_Retval_Set>
80149f2c:	e5953018 	ldr	r3, [r5, #24]
80149f30:	e3530000 	cmp	r3, #0
80149f34:	0a000014 	beq	80149f8c <_RME_Run_Notif+0xec>
80149f38:	e5953014 	ldr	r3, [r5, #20]
80149f3c:	e3a01000 	mov	r1, #0
80149f40:	e5952020 	ldr	r2, [r5, #32]
80149f44:	e585101c 	str	r1, [r5, #28]
80149f48:	e3730001 	cmn	r3, #1
80149f4c:	0a000015 	beq	80149fa8 <_RME_Run_Notif+0x108>
80149f50:	e083c182 	add	ip, r3, r2, lsl #3
80149f54:	e1a012a2 	lsr	r1, r2, #5
80149f58:	e202201f 	and	r2, r2, #31
80149f5c:	e59c0018 	ldr	r0, [ip, #24]
80149f60:	e0831101 	add	r1, r3, r1, lsl #2
80149f64:	e28c3014 	add	r3, ip, #20
80149f68:	e58c5018 	str	r5, [ip, #24]
80149f6c:	e5850004 	str	r0, [r5, #4]
80149f70:	e5853000 	str	r3, [r5]
80149f74:	e5805000 	str	r5, [r0]
80149f78:	e3a00001 	mov	r0, #1
80149f7c:	e5913010 	ldr	r3, [r1, #16]
80149f80:	e1832210 	orr	r2, r3, r0, lsl r2
80149f84:	e5812010 	str	r2, [r1, #16]
80149f88:	ea000003 	b	80149f9c <_RME_Run_Notif+0xfc>
80149f8c:	e3a03002 	mov	r3, #2
80149f90:	e1a00005 	mov	r0, r5
80149f94:	e585301c 	str	r3, [r5, #28]
80149f98:	ebffffc0 	bl	80149ea0 <_RME_Run_Notif>
80149f9c:	e3a03000 	mov	r3, #0
80149fa0:	e5843018 	str	r3, [r4, #24]
80149fa4:	e8bd8070 	pop	{r4, r5, r6, pc}
80149fa8:	e30d3d80 	movw	r3, #56704	; 0xdd80
80149fac:	e30d2d8c 	movw	r2, #56716	; 0xdd8c
80149fb0:	e3483014 	movt	r3, #32788	; 0x8014
80149fb4:	e30d0d98 	movw	r0, #56728	; 0xdd98
80149fb8:	e3482014 	movt	r2, #32788	; 0x8014
80149fbc:	e301113b 	movw	r1, #4411	; 0x113b
80149fc0:	e3480014 	movt	r0, #32788	; 0x8014
80149fc4:	ebfffd7d 	bl	801495c0 <RME_Log>
80149fc8:	eafffffe 	b	80149fc8 <_RME_Run_Notif+0x128>

80149fcc <RME_Kmain>:
80149fcc:	e92d4010 	push	{r4, lr}
80149fd0:	ebfff9d0 	bl	80148718 <__RME_Int_Disable>
80149fd4:	eb000e33 	bl	8014d8a8 <__RME_Lowlvl_Init>
80149fd8:	eb000ea9 	bl	8014da84 <__RME_Pgt_Kom_Init>
80149fdc:	e30e3000 	movw	r3, #57344	; 0xe000
80149fe0:	f2c00050 	vmov.i32	q8, #0	; 0x00000000
80149fe4:	e3483014 	movt	r3, #32788	; 0x8014
80149fe8:	e2832502 	add	r2, r3, #8388608	; 0x800000
80149fec:	f4430a8d 	vst1.32	{d16-d17}, [r3]!
80149ff0:	e1520003 	cmp	r2, r3
80149ff4:	1afffffc 	bne	80149fec <RME_Kmain+0x20>
80149ff8:	eb000ea3 	bl	8014da8c <__RME_Boot>
80149ffc:	e3a00000 	mov	r0, #0
8014a000:	e8bd8010 	pop	{r4, pc}

8014a004 <_RME_Kot_Mark>:
8014a004:	e310000f 	tst	r0, #15
8014a008:	1a000061 	bne	8014a194 <_RME_Kot_Mark+0x190>
8014a00c:	e7e4c250 	ubfx	ip, r0, #4, #5
8014a010:	e281147f 	add	r1, r1, #2130706432	; 0x7f000000
8014a014:	e2411001 	sub	r1, r1, #1
8014a018:	e280347f 	add	r3, r0, #2130706432	; 0x7f000000
8014a01c:	e0811000 	add	r1, r1, r0
8014a020:	e3e00000 	mvn	r0, #0
8014a024:	e1a034a3 	lsr	r3, r3, #9
8014a028:	e1e02221 	mvn	r2, r1, lsr #4
8014a02c:	e1a014a1 	lsr	r1, r1, #9
8014a030:	e202201f 	and	r2, r2, #31
8014a034:	e1530001 	cmp	r3, r1
8014a038:	e92d4070 	push	{r4, r5, r6, lr}
8014a03c:	e1a02230 	lsr	r2, r0, r2
8014a040:	e1a04c10 	lsl	r4, r0, ip
8014a044:	0a000037 	beq	8014a128 <_RME_Kot_Mark+0x124>
8014a048:	e30e5000 	movw	r5, #57344	; 0xe000
8014a04c:	e3485014 	movt	r5, #32788	; 0x8014
8014a050:	e795c103 	ldr	ip, [r5, r3, lsl #2]
8014a054:	e114000c 	tst	r4, ip
8014a058:	18bd8070 	popne	{r4, r5, r6, pc}
8014a05c:	e795e103 	ldr	lr, [r5, r3, lsl #2]
8014a060:	e15c000e 	cmp	ip, lr
8014a064:	18bd8070 	popne	{r4, r5, r6, pc}
8014a068:	e184c00c 	orr	ip, r4, ip
8014a06c:	e785c103 	str	ip, [r5, r3, lsl #2]
8014a070:	e283c001 	add	ip, r3, #1
8014a074:	e151000c 	cmp	r1, ip
8014a078:	9a000047 	bls	8014a19c <_RME_Kot_Mark+0x198>
8014a07c:	e085e10c 	add	lr, r5, ip, lsl #2
8014a080:	e24ee004 	sub	lr, lr, #4
8014a084:	e5be6004 	ldr	r6, [lr, #4]!
8014a088:	e3560000 	cmp	r6, #0
8014a08c:	1a000002 	bne	8014a09c <_RME_Kot_Mark+0x98>
8014a090:	e795610c 	ldr	r6, [r5, ip, lsl #2]
8014a094:	e3560000 	cmp	r6, #0
8014a098:	0a00002e 	beq	8014a158 <_RME_Kot_Mark+0x154>
8014a09c:	e24cc001 	sub	ip, ip, #1
8014a0a0:	e15c0003 	cmp	ip, r3
8014a0a4:	9a00001a 	bls	8014a114 <_RME_Kot_Mark+0x110>
8014a0a8:	e1e02003 	mvn	r2, r3
8014a0ac:	e082200c 	add	r2, r2, ip
8014a0b0:	e04c0003 	sub	r0, ip, r3
8014a0b4:	e3520002 	cmp	r2, #2
8014a0b8:	9a00000c 	bls	8014a0f0 <_RME_Kot_Mark+0xec>
8014a0bc:	e1a02120 	lsr	r2, r0, #2
8014a0c0:	e24c110f 	sub	r1, ip, #-1073741821	; 0xc0000003
8014a0c4:	f2c00050 	vmov.i32	q8, #0	; 0x00000000
8014a0c8:	e0851101 	add	r1, r5, r1, lsl #2
8014a0cc:	e0412202 	sub	r2, r1, r2, lsl #4
8014a0d0:	f4410a8f 	vst1.32	{d16-d17}, [r1]
8014a0d4:	e2411010 	sub	r1, r1, #16
8014a0d8:	e1510002 	cmp	r1, r2
8014a0dc:	1afffffb 	bne	8014a0d0 <_RME_Kot_Mark+0xcc>
8014a0e0:	e3c02003 	bic	r2, r0, #3
8014a0e4:	e1520000 	cmp	r2, r0
8014a0e8:	e04cc002 	sub	ip, ip, r2
8014a0ec:	0a000008 	beq	8014a114 <_RME_Kot_Mark+0x110>
8014a0f0:	e24c1001 	sub	r1, ip, #1
8014a0f4:	e3a02000 	mov	r2, #0
8014a0f8:	e1530001 	cmp	r3, r1
8014a0fc:	e785210c 	str	r2, [r5, ip, lsl #2]
8014a100:	2a000003 	bcs	8014a114 <_RME_Kot_Mark+0x110>
8014a104:	e7852101 	str	r2, [r5, r1, lsl #2]
8014a108:	e24cc002 	sub	ip, ip, #2
8014a10c:	e153000c 	cmp	r3, ip
8014a110:	3785210c 	strcc	r2, [r5, ip, lsl #2]
8014a114:	e7952103 	ldr	r2, [r5, r3, lsl #2]
8014a118:	e3e00000 	mvn	r0, #0
8014a11c:	e1c22004 	bic	r2, r2, r4
8014a120:	e7852103 	str	r2, [r5, r3, lsl #2]
8014a124:	e8bd8070 	pop	{r4, r5, r6, pc}
8014a128:	e30e1000 	movw	r1, #57344	; 0xe000
8014a12c:	e0022004 	and	r2, r2, r4
8014a130:	e3481014 	movt	r1, #32788	; 0x8014
8014a134:	e791e103 	ldr	lr, [r1, r3, lsl #2]
8014a138:	e012400e 	ands	r4, r2, lr
8014a13c:	18bd8070 	popne	{r4, r5, r6, pc}
8014a140:	e791c103 	ldr	ip, [r1, r3, lsl #2]
8014a144:	e15e000c 	cmp	lr, ip
8014a148:	0182200e 	orreq	r2, r2, lr
8014a14c:	01a00004 	moveq	r0, r4
8014a150:	07812103 	streq	r2, [r1, r3, lsl #2]
8014a154:	e8bd8070 	pop	{r4, r5, r6, pc}
8014a158:	e785010c 	str	r0, [r5, ip, lsl #2]
8014a15c:	e28c6001 	add	r6, ip, #1
8014a160:	e1510006 	cmp	r1, r6
8014a164:	11a0c006 	movne	ip, r6
8014a168:	1affffc5 	bne	8014a084 <_RME_Kot_Mark+0x80>
8014a16c:	e7950101 	ldr	r0, [r5, r1, lsl #2]
8014a170:	e1120000 	tst	r2, r0
8014a174:	1affffc9 	bne	8014a0a0 <_RME_Kot_Mark+0x9c>
8014a178:	e795e101 	ldr	lr, [r5, r1, lsl #2]
8014a17c:	e150000e 	cmp	r0, lr
8014a180:	1affffc6 	bne	8014a0a0 <_RME_Kot_Mark+0x9c>
8014a184:	e1822000 	orr	r2, r2, r0
8014a188:	e3a00000 	mov	r0, #0
8014a18c:	e7852101 	str	r2, [r5, r1, lsl #2]
8014a190:	e8bd8070 	pop	{r4, r5, r6, pc}
8014a194:	e3e00000 	mvn	r0, #0
8014a198:	e12fff1e 	bx	lr
8014a19c:	e7950101 	ldr	r0, [r5, r1, lsl #2]
8014a1a0:	e1120000 	tst	r2, r0
8014a1a4:	1affffda 	bne	8014a114 <_RME_Kot_Mark+0x110>
8014a1a8:	e795c101 	ldr	ip, [r5, r1, lsl #2]
8014a1ac:	e150000c 	cmp	r0, ip
8014a1b0:	1affffd7 	bne	8014a114 <_RME_Kot_Mark+0x110>
8014a1b4:	eafffff2 	b	8014a184 <_RME_Kot_Mark+0x180>

8014a1b8 <_RME_Cpt_Crt>:
8014a1b8:	e92d47f0 	push	{r4, r5, r6, r7, r8, r9, sl, lr}
8014a1bc:	e1a07003 	mov	r7, r3
8014a1c0:	e59d8024 	ldr	r8, [sp, #36]	; 0x24
8014a1c4:	e59d9020 	ldr	r9, [sp, #32]
8014a1c8:	e2483001 	sub	r3, r8, #1
8014a1cc:	e353007f 	cmp	r3, #127	; 0x7f
8014a1d0:	8a000063 	bhi	8014a364 <_RME_Cpt_Crt+0x1ac>
8014a1d4:	e3110080 	tst	r1, #128	; 0x80
8014a1d8:	e1a06000 	mov	r6, r0
8014a1dc:	e1a04001 	mov	r4, r1
8014a1e0:	e1a05002 	mov	r5, r2
8014a1e4:	0a000047 	beq	8014a308 <_RME_Cpt_Crt+0x150>
8014a1e8:	e5902014 	ldr	r2, [r0, #20]
8014a1ec:	e1a03421 	lsr	r3, r1, #8
8014a1f0:	e1530002 	cmp	r3, r2
8014a1f4:	2a00005a 	bcs	8014a364 <_RME_Cpt_Crt+0x1ac>
8014a1f8:	e590a00c 	ldr	sl, [r0, #12]
8014a1fc:	e08aa283 	add	sl, sl, r3, lsl #5
8014a200:	e1a0000a 	mov	r0, sl
8014a204:	ebfff93d 	bl	80148700 <__RME_A7A_Read_Acquire>
8014a208:	e7e73850 	ubfx	r3, r0, #16, #8
8014a20c:	e3530002 	cmp	r3, #2
8014a210:	0a000073 	beq	8014a3e4 <_RME_Cpt_Crt+0x22c>
8014a214:	e1a00c20 	lsr	r0, r0, #24
8014a218:	e3500003 	cmp	r0, #3
8014a21c:	1a00006c 	bne	8014a3d4 <_RME_Cpt_Crt+0x21c>
8014a220:	e59a3014 	ldr	r3, [sl, #20]
8014a224:	e204407f 	and	r4, r4, #127	; 0x7f
8014a228:	e1540003 	cmp	r4, r3
8014a22c:	2a00004c 	bcs	8014a364 <_RME_Cpt_Crt+0x1ac>
8014a230:	e59a100c 	ldr	r1, [sl, #12]
8014a234:	e0814284 	add	r4, r1, r4, lsl #5
8014a238:	e1a00004 	mov	r0, r4
8014a23c:	ebfff92f 	bl	80148700 <__RME_A7A_Read_Acquire>
8014a240:	e7e73850 	ubfx	r3, r0, #16, #8
8014a244:	e3530002 	cmp	r3, #2
8014a248:	0a000065 	beq	8014a3e4 <_RME_Cpt_Crt+0x22c>
8014a24c:	e1a00c20 	lsr	r0, r0, #24
8014a250:	e3500003 	cmp	r0, #3
8014a254:	1a00005e 	bne	8014a3d4 <_RME_Cpt_Crt+0x21c>
8014a258:	e3150080 	tst	r5, #128	; 0x80
8014a25c:	1a00002e 	bne	8014a31c <_RME_Cpt_Crt+0x164>
8014a260:	e5963014 	ldr	r3, [r6, #20]
8014a264:	e1550003 	cmp	r5, r3
8014a268:	2a00003d 	bcs	8014a364 <_RME_Cpt_Crt+0x1ac>
8014a26c:	e596200c 	ldr	r2, [r6, #12]
8014a270:	e0825285 	add	r5, r2, r5, lsl #5
8014a274:	e1a00005 	mov	r0, r5
8014a278:	ebfff920 	bl	80148700 <__RME_A7A_Read_Acquire>
8014a27c:	e7e73850 	ubfx	r3, r0, #16, #8
8014a280:	e3530002 	cmp	r3, #2
8014a284:	0a000056 	beq	8014a3e4 <_RME_Cpt_Crt+0x22c>
8014a288:	e1a00c20 	lsr	r0, r0, #24
8014a28c:	e3500002 	cmp	r0, #2
8014a290:	1a00004f 	bne	8014a3d4 <_RME_Cpt_Crt+0x21c>
8014a294:	e5943008 	ldr	r3, [r4, #8]
8014a298:	e3130001 	tst	r3, #1
8014a29c:	0a00004e 	beq	8014a3dc <_RME_Cpt_Crt+0x224>
8014a2a0:	e5953008 	ldr	r3, [r5, #8]
8014a2a4:	e3130001 	tst	r3, #1
8014a2a8:	0a00004b 	beq	8014a3dc <_RME_Cpt_Crt+0x224>
8014a2ac:	e5953014 	ldr	r3, [r5, #20]
8014a2b0:	e1530009 	cmp	r3, r9
8014a2b4:	e0836009 	add	r6, r3, r9
8014a2b8:	31a03009 	movcc	r3, r9
8014a2bc:	e1530006 	cmp	r3, r6
8014a2c0:	8a000045 	bhi	8014a3dc <_RME_Cpt_Crt+0x224>
8014a2c4:	e1a01288 	lsl	r1, r8, #5
8014a2c8:	e0913006 	adds	r3, r1, r6
8014a2cc:	2a000042 	bcs	8014a3dc <_RME_Cpt_Crt+0x224>
8014a2d0:	e5952018 	ldr	r2, [r5, #24]
8014a2d4:	e2433001 	sub	r3, r3, #1
8014a2d8:	e1520003 	cmp	r2, r3
8014a2dc:	3a00003e 	bcc	8014a3dc <_RME_Cpt_Crt+0x224>
8014a2e0:	e5943014 	ldr	r3, [r4, #20]
8014a2e4:	e1530007 	cmp	r3, r7
8014a2e8:	9a00001d 	bls	8014a364 <_RME_Cpt_Crt+0x1ac>
8014a2ec:	e594300c 	ldr	r3, [r4, #12]
8014a2f0:	e7934287 	ldr	r4, [r3, r7, lsl #5]
8014a2f4:	e0835287 	add	r5, r3, r7, lsl #5
8014a2f8:	e3540000 	cmp	r4, #0
8014a2fc:	0a00001a 	beq	8014a36c <_RME_Cpt_Crt+0x1b4>
8014a300:	e3e00004 	mvn	r0, #4
8014a304:	e8bd87f0 	pop	{r4, r5, r6, r7, r8, r9, sl, pc}
8014a308:	e5903014 	ldr	r3, [r0, #20]
8014a30c:	e1510003 	cmp	r1, r3
8014a310:	2a000013 	bcs	8014a364 <_RME_Cpt_Crt+0x1ac>
8014a314:	e590100c 	ldr	r1, [r0, #12]
8014a318:	eaffffc5 	b	8014a234 <_RME_Cpt_Crt+0x7c>
8014a31c:	e5962014 	ldr	r2, [r6, #20]
8014a320:	e1a03425 	lsr	r3, r5, #8
8014a324:	e1530002 	cmp	r3, r2
8014a328:	2a00000d 	bcs	8014a364 <_RME_Cpt_Crt+0x1ac>
8014a32c:	e596600c 	ldr	r6, [r6, #12]
8014a330:	e0866283 	add	r6, r6, r3, lsl #5
8014a334:	e1a00006 	mov	r0, r6
8014a338:	ebfff8f0 	bl	80148700 <__RME_A7A_Read_Acquire>
8014a33c:	e7e73850 	ubfx	r3, r0, #16, #8
8014a340:	e3530002 	cmp	r3, #2
8014a344:	0a000026 	beq	8014a3e4 <_RME_Cpt_Crt+0x22c>
8014a348:	e1a00c20 	lsr	r0, r0, #24
8014a34c:	e3500003 	cmp	r0, #3
8014a350:	1a00001f 	bne	8014a3d4 <_RME_Cpt_Crt+0x21c>
8014a354:	e5963014 	ldr	r3, [r6, #20]
8014a358:	e205507f 	and	r5, r5, #127	; 0x7f
8014a35c:	e1550003 	cmp	r5, r3
8014a360:	3affffc1 	bcc	8014a26c <_RME_Cpt_Crt+0xb4>
8014a364:	e3e00002 	mvn	r0, #2
8014a368:	e8bd87f0 	pop	{r4, r5, r6, r7, r8, r9, sl, pc}
8014a36c:	e30e2114 	movw	r2, #57620	; 0xe114
8014a370:	e3a00801 	mov	r0, #65536	; 0x10000
8014a374:	e3482094 	movt	r2, #32916	; 0x8094
8014a378:	e7830287 	str	r0, [r3, r7, lsl #5]
8014a37c:	e1a00006 	mov	r0, r6
8014a380:	e5923000 	ldr	r3, [r2]
8014a384:	e5853010 	str	r3, [r5, #16]
8014a388:	ebffff1d 	bl	8014a004 <_RME_Kot_Mark>
8014a38c:	e3500000 	cmp	r0, #0
8014a390:	a1a03006 	movge	r3, r6
8014a394:	a1a02004 	movge	r2, r4
8014a398:	ba000013 	blt	8014a3ec <_RME_Cpt_Crt+0x234>
8014a39c:	e4832020 	str	r2, [r3], #32
8014a3a0:	e2844001 	add	r4, r4, #1
8014a3a4:	e1580004 	cmp	r8, r4
8014a3a8:	8afffffb 	bhi	8014a39c <_RME_Cpt_Crt+0x1e4>
8014a3ac:	e5852004 	str	r2, [r5, #4]
8014a3b0:	e3a030ff 	mov	r3, #255	; 0xff
8014a3b4:	e585600c 	str	r6, [r5, #12]
8014a3b8:	e1a00005 	mov	r0, r5
8014a3bc:	e5853008 	str	r3, [r5, #8]
8014a3c0:	e3a01403 	mov	r1, #50331648	; 0x3000000
8014a3c4:	e5858014 	str	r8, [r5, #20]
8014a3c8:	ebfff8cf 	bl	8014870c <__RME_A7A_Write_Release>
8014a3cc:	e3a00000 	mov	r0, #0
8014a3d0:	e8bd87f0 	pop	{r4, r5, r6, r7, r8, r9, sl, pc}
8014a3d4:	e3e00001 	mvn	r0, #1
8014a3d8:	e8bd87f0 	pop	{r4, r5, r6, r7, r8, r9, sl, pc}
8014a3dc:	e3e00006 	mvn	r0, #6
8014a3e0:	e8bd87f0 	pop	{r4, r5, r6, r7, r8, r9, sl, pc}
8014a3e4:	e3e00008 	mvn	r0, #8
8014a3e8:	e8bd87f0 	pop	{r4, r5, r6, r7, r8, r9, sl, pc}
8014a3ec:	e1a00005 	mov	r0, r5
8014a3f0:	e1a01004 	mov	r1, r4
8014a3f4:	ebfff8c4 	bl	8014870c <__RME_A7A_Write_Release>
8014a3f8:	e3e00003 	mvn	r0, #3
8014a3fc:	e8bd87f0 	pop	{r4, r5, r6, r7, r8, r9, sl, pc}

8014a400 <_RME_Pgt_Crt>:
8014a400:	e92d4ff0 	push	{r4, r5, r6, r7, r8, r9, sl, fp, lr}
8014a404:	e24dd00c 	sub	sp, sp, #12
8014a408:	e59db03c 	ldr	fp, [sp, #60]	; 0x3c
8014a40c:	e59d9040 	ldr	r9, [sp, #64]	; 0x40
8014a410:	e08b8009 	add	r8, fp, r9
8014a414:	e3580020 	cmp	r8, #32
8014a418:	8a000098 	bhi	8014a680 <_RME_Pgt_Crt+0x280>
8014a41c:	e3110080 	tst	r1, #128	; 0x80
8014a420:	e1a07000 	mov	r7, r0
8014a424:	e1a04001 	mov	r4, r1
8014a428:	e1a0a002 	mov	sl, r2
8014a42c:	e1a05003 	mov	r5, r3
8014a430:	0a000055 	beq	8014a58c <_RME_Pgt_Crt+0x18c>
8014a434:	e5902014 	ldr	r2, [r0, #20]
8014a438:	e1a03421 	lsr	r3, r1, #8
8014a43c:	e1530002 	cmp	r3, r2
8014a440:	2a000055 	bcs	8014a59c <_RME_Pgt_Crt+0x19c>
8014a444:	e590200c 	ldr	r2, [r0, #12]
8014a448:	e0826283 	add	r6, r2, r3, lsl #5
8014a44c:	e1a00006 	mov	r0, r6
8014a450:	ebfff8aa 	bl	80148700 <__RME_A7A_Read_Acquire>
8014a454:	e7e72850 	ubfx	r2, r0, #16, #8
8014a458:	e3520002 	cmp	r2, #2
8014a45c:	0a000089 	beq	8014a688 <_RME_Pgt_Crt+0x288>
8014a460:	e1a00c20 	lsr	r0, r0, #24
8014a464:	e3500003 	cmp	r0, #3
8014a468:	1a000080 	bne	8014a670 <_RME_Pgt_Crt+0x270>
8014a46c:	e5962014 	ldr	r2, [r6, #20]
8014a470:	e204407f 	and	r4, r4, #127	; 0x7f
8014a474:	e1540002 	cmp	r4, r2
8014a478:	2a000047 	bcs	8014a59c <_RME_Pgt_Crt+0x19c>
8014a47c:	e596100c 	ldr	r1, [r6, #12]
8014a480:	e0814284 	add	r4, r1, r4, lsl #5
8014a484:	e1a00004 	mov	r0, r4
8014a488:	ebfff89c 	bl	80148700 <__RME_A7A_Read_Acquire>
8014a48c:	e7e73850 	ubfx	r3, r0, #16, #8
8014a490:	e3530002 	cmp	r3, #2
8014a494:	0a00007b 	beq	8014a688 <_RME_Pgt_Crt+0x288>
8014a498:	e1a00c20 	lsr	r0, r0, #24
8014a49c:	e3500003 	cmp	r0, #3
8014a4a0:	1a000072 	bne	8014a670 <_RME_Pgt_Crt+0x270>
8014a4a4:	e31a0080 	tst	sl, #128	; 0x80
8014a4a8:	1a00003d 	bne	8014a5a4 <_RME_Pgt_Crt+0x1a4>
8014a4ac:	e5973014 	ldr	r3, [r7, #20]
8014a4b0:	e15a0003 	cmp	sl, r3
8014a4b4:	2a000038 	bcs	8014a59c <_RME_Pgt_Crt+0x19c>
8014a4b8:	e597200c 	ldr	r2, [r7, #12]
8014a4bc:	e082a28a 	add	sl, r2, sl, lsl #5
8014a4c0:	e1a0000a 	mov	r0, sl
8014a4c4:	ebfff88d 	bl	80148700 <__RME_A7A_Read_Acquire>
8014a4c8:	e7e73850 	ubfx	r3, r0, #16, #8
8014a4cc:	e3530002 	cmp	r3, #2
8014a4d0:	0a00006c 	beq	8014a688 <_RME_Pgt_Crt+0x288>
8014a4d4:	e1a00c20 	lsr	r0, r0, #24
8014a4d8:	e3500002 	cmp	r0, #2
8014a4dc:	1a000063 	bne	8014a670 <_RME_Pgt_Crt+0x270>
8014a4e0:	e5943008 	ldr	r3, [r4, #8]
8014a4e4:	e3130001 	tst	r3, #1
8014a4e8:	0a000062 	beq	8014a678 <_RME_Pgt_Crt+0x278>
8014a4ec:	e59a3008 	ldr	r3, [sl, #8]
8014a4f0:	e3a06001 	mov	r6, #1
8014a4f4:	e1a06916 	lsl	r6, r6, r9
8014a4f8:	e3130002 	tst	r3, #2
8014a4fc:	0a00005d 	beq	8014a678 <_RME_Pgt_Crt+0x278>
8014a500:	e59a3014 	ldr	r3, [sl, #20]
8014a504:	e59d2030 	ldr	r2, [sp, #48]	; 0x30
8014a508:	e1530002 	cmp	r3, r2
8014a50c:	e0837002 	add	r7, r3, r2
8014a510:	31a03002 	movcc	r3, r2
8014a514:	e1570003 	cmp	r7, r3
8014a518:	3a000056 	bcc	8014a678 <_RME_Pgt_Crt+0x278>
8014a51c:	e0963007 	adds	r3, r6, r7
8014a520:	2a000054 	bcs	8014a678 <_RME_Pgt_Crt+0x278>
8014a524:	e59a2018 	ldr	r2, [sl, #24]
8014a528:	e2433001 	sub	r3, r3, #1
8014a52c:	e1520003 	cmp	r2, r3
8014a530:	3a000050 	bcc	8014a678 <_RME_Pgt_Crt+0x278>
8014a534:	e58d7000 	str	r7, [sp]
8014a538:	e1a03009 	mov	r3, r9
8014a53c:	e1a0200b 	mov	r2, fp
8014a540:	e2688020 	rsb	r8, r8, #32
8014a544:	e1cd03d4 	ldrd	r0, [sp, #52]	; 0x34
8014a548:	eb000ddf 	bl	8014dccc <__RME_Pgt_Check>
8014a54c:	e59d2034 	ldr	r2, [sp, #52]	; 0x34
8014a550:	e3e03000 	mvn	r3, #0
8014a554:	e0123833 	ands	r3, r2, r3, lsr r8
8014a558:	1a000048 	bne	8014a680 <_RME_Pgt_Crt+0x280>
8014a55c:	e5943014 	ldr	r3, [r4, #20]
8014a560:	e1530005 	cmp	r3, r5
8014a564:	9a00000c 	bls	8014a59c <_RME_Pgt_Crt+0x19c>
8014a568:	e594300c 	ldr	r3, [r4, #12]
8014a56c:	e793a285 	ldr	sl, [r3, r5, lsl #5]
8014a570:	e0838285 	add	r8, r3, r5, lsl #5
8014a574:	e35a0000 	cmp	sl, #0
8014a578:	13e04004 	mvnne	r4, #4
8014a57c:	0a00001d 	beq	8014a5f8 <_RME_Pgt_Crt+0x1f8>
8014a580:	e1a00004 	mov	r0, r4
8014a584:	e28dd00c 	add	sp, sp, #12
8014a588:	e8bd8ff0 	pop	{r4, r5, r6, r7, r8, r9, sl, fp, pc}
8014a58c:	e5903014 	ldr	r3, [r0, #20]
8014a590:	e1510003 	cmp	r1, r3
8014a594:	3590100c 	ldrcc	r1, [r0, #12]
8014a598:	3affffb8 	bcc	8014a480 <_RME_Pgt_Crt+0x80>
8014a59c:	e3e04002 	mvn	r4, #2
8014a5a0:	eafffff6 	b	8014a580 <_RME_Pgt_Crt+0x180>
8014a5a4:	e5972014 	ldr	r2, [r7, #20]
8014a5a8:	e1a0342a 	lsr	r3, sl, #8
8014a5ac:	e1530002 	cmp	r3, r2
8014a5b0:	2afffff9 	bcs	8014a59c <_RME_Pgt_Crt+0x19c>
8014a5b4:	e597700c 	ldr	r7, [r7, #12]
8014a5b8:	e0877283 	add	r7, r7, r3, lsl #5
8014a5bc:	e1a00007 	mov	r0, r7
8014a5c0:	ebfff84e 	bl	80148700 <__RME_A7A_Read_Acquire>
8014a5c4:	e7e73850 	ubfx	r3, r0, #16, #8
8014a5c8:	e3530002 	cmp	r3, #2
8014a5cc:	0a00002d 	beq	8014a688 <_RME_Pgt_Crt+0x288>
8014a5d0:	e1a00c20 	lsr	r0, r0, #24
8014a5d4:	e3500003 	cmp	r0, #3
8014a5d8:	1a000024 	bne	8014a670 <_RME_Pgt_Crt+0x270>
8014a5dc:	e5973014 	ldr	r3, [r7, #20]
8014a5e0:	e20a607f 	and	r6, sl, #127	; 0x7f
8014a5e4:	e1560003 	cmp	r6, r3
8014a5e8:	2affffeb 	bcs	8014a59c <_RME_Pgt_Crt+0x19c>
8014a5ec:	e597200c 	ldr	r2, [r7, #12]
8014a5f0:	e082a286 	add	sl, r2, r6, lsl #5
8014a5f4:	eaffffb1 	b	8014a4c0 <_RME_Pgt_Crt+0xc0>
8014a5f8:	e30e2114 	movw	r2, #57620	; 0xe114
8014a5fc:	e3a00801 	mov	r0, #65536	; 0x10000
8014a600:	e3482094 	movt	r2, #32916	; 0x8094
8014a604:	e1a01006 	mov	r1, r6
8014a608:	e7830285 	str	r0, [r3, r5, lsl #5]
8014a60c:	e1a00007 	mov	r0, r7
8014a610:	e5923000 	ldr	r3, [r2]
8014a614:	e5883010 	str	r3, [r8, #16]
8014a618:	ebfffe79 	bl	8014a004 <_RME_Kot_Mark>
8014a61c:	e2504000 	subs	r4, r0, #0
8014a620:	1a00001a 	bne	8014a690 <_RME_Pgt_Crt+0x290>
8014a624:	e1cd23d4 	ldrd	r2, [sp, #52]	; 0x34
8014a628:	e189980b 	orr	r9, r9, fp, lsl #16
8014a62c:	e1a00008 	mov	r0, r8
8014a630:	e1833002 	orr	r3, r3, r2
8014a634:	e3a020ff 	mov	r2, #255	; 0xff
8014a638:	e34f2ff0 	movt	r2, #65520	; 0xfff0
8014a63c:	e5882008 	str	r2, [r8, #8]
8014a640:	e5883018 	str	r3, [r8, #24]
8014a644:	e588700c 	str	r7, [r8, #12]
8014a648:	e5884004 	str	r4, [r8, #4]
8014a64c:	e5889014 	str	r9, [r8, #20]
8014a650:	e588401c 	str	r4, [r8, #28]
8014a654:	eb000db2 	bl	8014dd24 <__RME_Pgt_Init>
8014a658:	e1a00008 	mov	r0, r8
8014a65c:	e3a01301 	mov	r1, #67108864	; 0x4000000
8014a660:	ebfff829 	bl	8014870c <__RME_A7A_Write_Release>
8014a664:	e1a00004 	mov	r0, r4
8014a668:	e28dd00c 	add	sp, sp, #12
8014a66c:	e8bd8ff0 	pop	{r4, r5, r6, r7, r8, r9, sl, fp, pc}
8014a670:	e3e04001 	mvn	r4, #1
8014a674:	eaffffc1 	b	8014a580 <_RME_Pgt_Crt+0x180>
8014a678:	e3e04006 	mvn	r4, #6
8014a67c:	eaffffbf 	b	8014a580 <_RME_Pgt_Crt+0x180>
8014a680:	e3e04066 	mvn	r4, #102	; 0x66
8014a684:	eaffffbd 	b	8014a580 <_RME_Pgt_Crt+0x180>
8014a688:	e3e04008 	mvn	r4, #8
8014a68c:	eaffffbb 	b	8014a580 <_RME_Pgt_Crt+0x180>
8014a690:	e1a0100a 	mov	r1, sl
8014a694:	e1a00008 	mov	r0, r8
8014a698:	e3e04003 	mvn	r4, #3
8014a69c:	ebfff81a 	bl	8014870c <__RME_A7A_Write_Release>
8014a6a0:	eaffffb6 	b	8014a580 <_RME_Pgt_Crt+0x180>
8014a6a4:	00000000 	andeq	r0, r0, r0

8014a6a8 <_RME_Thd_Crt>:
8014a6a8:	e92d4ff8 	push	{r3, r4, r5, r6, r7, r8, r9, sl, fp, lr}
8014a6ac:	e1a07003 	mov	r7, r3
8014a6b0:	e59d902c 	ldr	r9, [sp, #44]	; 0x2c
8014a6b4:	e30e3000 	movw	r3, #57344	; 0xe000
8014a6b8:	e3483094 	movt	r3, #32916	; 0x8094
8014a6bc:	e59da028 	ldr	sl, [sp, #40]	; 0x28
8014a6c0:	e5933004 	ldr	r3, [r3, #4]
8014a6c4:	e59d8030 	ldr	r8, [sp, #48]	; 0x30
8014a6c8:	e5933024 	ldr	r3, [r3, #36]	; 0x24
8014a6cc:	e1530009 	cmp	r3, r9
8014a6d0:	3a0000ce 	bcc	8014aa10 <_RME_Thd_Crt+0x368>
8014a6d4:	e3110080 	tst	r1, #128	; 0x80
8014a6d8:	e1a04000 	mov	r4, r0
8014a6dc:	e1a05001 	mov	r5, r1
8014a6e0:	e1a06002 	mov	r6, r2
8014a6e4:	0a00005c 	beq	8014a85c <_RME_Thd_Crt+0x1b4>
8014a6e8:	e5902014 	ldr	r2, [r0, #20]
8014a6ec:	e1a03421 	lsr	r3, r1, #8
8014a6f0:	e1530002 	cmp	r3, r2
8014a6f4:	2a00005c 	bcs	8014a86c <_RME_Thd_Crt+0x1c4>
8014a6f8:	e590b00c 	ldr	fp, [r0, #12]
8014a6fc:	e08bb283 	add	fp, fp, r3, lsl #5
8014a700:	e1a0000b 	mov	r0, fp
8014a704:	ebfff7fd 	bl	80148700 <__RME_A7A_Read_Acquire>
8014a708:	e7e73850 	ubfx	r3, r0, #16, #8
8014a70c:	e3530002 	cmp	r3, #2
8014a710:	0a0000bc 	beq	8014aa08 <_RME_Thd_Crt+0x360>
8014a714:	e1a00c20 	lsr	r0, r0, #24
8014a718:	e3500003 	cmp	r0, #3
8014a71c:	1a0000b5 	bne	8014a9f8 <_RME_Thd_Crt+0x350>
8014a720:	e59b3014 	ldr	r3, [fp, #20]
8014a724:	e205507f 	and	r5, r5, #127	; 0x7f
8014a728:	e1550003 	cmp	r5, r3
8014a72c:	2a00004e 	bcs	8014a86c <_RME_Thd_Crt+0x1c4>
8014a730:	e59b100c 	ldr	r1, [fp, #12]
8014a734:	e0815285 	add	r5, r1, r5, lsl #5
8014a738:	e1a00005 	mov	r0, r5
8014a73c:	ebfff7ef 	bl	80148700 <__RME_A7A_Read_Acquire>
8014a740:	e7e73850 	ubfx	r3, r0, #16, #8
8014a744:	e3530002 	cmp	r3, #2
8014a748:	0a0000ae 	beq	8014aa08 <_RME_Thd_Crt+0x360>
8014a74c:	e1a00c20 	lsr	r0, r0, #24
8014a750:	e3500003 	cmp	r0, #3
8014a754:	1a0000a7 	bne	8014a9f8 <_RME_Thd_Crt+0x350>
8014a758:	e3160080 	tst	r6, #128	; 0x80
8014a75c:	1a000044 	bne	8014a874 <_RME_Thd_Crt+0x1cc>
8014a760:	e5943014 	ldr	r3, [r4, #20]
8014a764:	e1560003 	cmp	r6, r3
8014a768:	2a00003f 	bcs	8014a86c <_RME_Thd_Crt+0x1c4>
8014a76c:	e594200c 	ldr	r2, [r4, #12]
8014a770:	e0826286 	add	r6, r2, r6, lsl #5
8014a774:	e1a00006 	mov	r0, r6
8014a778:	ebfff7e0 	bl	80148700 <__RME_A7A_Read_Acquire>
8014a77c:	e7e73850 	ubfx	r3, r0, #16, #8
8014a780:	e3530002 	cmp	r3, #2
8014a784:	0a00009f 	beq	8014aa08 <_RME_Thd_Crt+0x360>
8014a788:	e1a00c20 	lsr	r0, r0, #24
8014a78c:	e3500002 	cmp	r0, #2
8014a790:	1a000098 	bne	8014a9f8 <_RME_Thd_Crt+0x350>
8014a794:	e31a0080 	tst	sl, #128	; 0x80
8014a798:	1a000049 	bne	8014a8c4 <_RME_Thd_Crt+0x21c>
8014a79c:	e5943014 	ldr	r3, [r4, #20]
8014a7a0:	e15a0003 	cmp	sl, r3
8014a7a4:	2a000030 	bcs	8014a86c <_RME_Thd_Crt+0x1c4>
8014a7a8:	e594300c 	ldr	r3, [r4, #12]
8014a7ac:	e083a28a 	add	sl, r3, sl, lsl #5
8014a7b0:	e1a0000a 	mov	r0, sl
8014a7b4:	ebfff7d1 	bl	80148700 <__RME_A7A_Read_Acquire>
8014a7b8:	e7e73850 	ubfx	r3, r0, #16, #8
8014a7bc:	e3530002 	cmp	r3, #2
8014a7c0:	0a000090 	beq	8014aa08 <_RME_Thd_Crt+0x360>
8014a7c4:	e1a00c20 	lsr	r0, r0, #24
8014a7c8:	e3500005 	cmp	r0, #5
8014a7cc:	1a000089 	bne	8014a9f8 <_RME_Thd_Crt+0x350>
8014a7d0:	e5953008 	ldr	r3, [r5, #8]
8014a7d4:	e3130001 	tst	r3, #1
8014a7d8:	0a000088 	beq	8014aa00 <_RME_Thd_Crt+0x358>
8014a7dc:	e59a3008 	ldr	r3, [sl, #8]
8014a7e0:	e3130002 	tst	r3, #2
8014a7e4:	0a000085 	beq	8014aa00 <_RME_Thd_Crt+0x358>
8014a7e8:	e59d2038 	ldr	r2, [sp, #56]	; 0x38
8014a7ec:	e5963008 	ldr	r3, [r6, #8]
8014a7f0:	e3520000 	cmp	r2, #0
8014a7f4:	03a0109c 	moveq	r1, #156	; 0x9c
8014a7f8:	13a01058 	movne	r1, #88	; 0x58
8014a7fc:	e3130004 	tst	r3, #4
8014a800:	0a00007e 	beq	8014aa00 <_RME_Thd_Crt+0x358>
8014a804:	e5963014 	ldr	r3, [r6, #20]
8014a808:	e1530008 	cmp	r3, r8
8014a80c:	e0834008 	add	r4, r3, r8
8014a810:	31a03008 	movcc	r3, r8
8014a814:	e1530004 	cmp	r3, r4
8014a818:	8a000078 	bhi	8014aa00 <_RME_Thd_Crt+0x358>
8014a81c:	e0913004 	adds	r3, r1, r4
8014a820:	2a000076 	bcs	8014aa00 <_RME_Thd_Crt+0x358>
8014a824:	e5962018 	ldr	r2, [r6, #24]
8014a828:	e2433001 	sub	r3, r3, #1
8014a82c:	e1520003 	cmp	r2, r3
8014a830:	3a000072 	bcc	8014aa00 <_RME_Thd_Crt+0x358>
8014a834:	e5953014 	ldr	r3, [r5, #20]
8014a838:	e1530007 	cmp	r3, r7
8014a83c:	9a00000a 	bls	8014a86c <_RME_Thd_Crt+0x1c4>
8014a840:	e595300c 	ldr	r3, [r5, #12]
8014a844:	e7935287 	ldr	r5, [r3, r7, lsl #5]
8014a848:	e0836287 	add	r6, r3, r7, lsl #5
8014a84c:	e3550000 	cmp	r5, #0
8014a850:	0a00002e 	beq	8014a910 <_RME_Thd_Crt+0x268>
8014a854:	e3e00004 	mvn	r0, #4
8014a858:	e8bd8ff8 	pop	{r3, r4, r5, r6, r7, r8, r9, sl, fp, pc}
8014a85c:	e5903014 	ldr	r3, [r0, #20]
8014a860:	e1510003 	cmp	r1, r3
8014a864:	3590100c 	ldrcc	r1, [r0, #12]
8014a868:	3affffb1 	bcc	8014a734 <_RME_Thd_Crt+0x8c>
8014a86c:	e3e00002 	mvn	r0, #2
8014a870:	e8bd8ff8 	pop	{r3, r4, r5, r6, r7, r8, r9, sl, fp, pc}
8014a874:	e5942014 	ldr	r2, [r4, #20]
8014a878:	e1a03426 	lsr	r3, r6, #8
8014a87c:	e1530002 	cmp	r3, r2
8014a880:	2afffff9 	bcs	8014a86c <_RME_Thd_Crt+0x1c4>
8014a884:	e594b00c 	ldr	fp, [r4, #12]
8014a888:	e08bb283 	add	fp, fp, r3, lsl #5
8014a88c:	e1a0000b 	mov	r0, fp
8014a890:	ebfff79a 	bl	80148700 <__RME_A7A_Read_Acquire>
8014a894:	e7e73850 	ubfx	r3, r0, #16, #8
8014a898:	e3530002 	cmp	r3, #2
8014a89c:	0a000059 	beq	8014aa08 <_RME_Thd_Crt+0x360>
8014a8a0:	e1a00c20 	lsr	r0, r0, #24
8014a8a4:	e3500003 	cmp	r0, #3
8014a8a8:	1a000052 	bne	8014a9f8 <_RME_Thd_Crt+0x350>
8014a8ac:	e59b3014 	ldr	r3, [fp, #20]
8014a8b0:	e206607f 	and	r6, r6, #127	; 0x7f
8014a8b4:	e1560003 	cmp	r6, r3
8014a8b8:	2affffeb 	bcs	8014a86c <_RME_Thd_Crt+0x1c4>
8014a8bc:	e59b200c 	ldr	r2, [fp, #12]
8014a8c0:	eaffffaa 	b	8014a770 <_RME_Thd_Crt+0xc8>
8014a8c4:	e5942014 	ldr	r2, [r4, #20]
8014a8c8:	e1a0342a 	lsr	r3, sl, #8
8014a8cc:	e1530002 	cmp	r3, r2
8014a8d0:	2affffe5 	bcs	8014a86c <_RME_Thd_Crt+0x1c4>
8014a8d4:	e594400c 	ldr	r4, [r4, #12]
8014a8d8:	e0844283 	add	r4, r4, r3, lsl #5
8014a8dc:	e1a00004 	mov	r0, r4
8014a8e0:	ebfff786 	bl	80148700 <__RME_A7A_Read_Acquire>
8014a8e4:	e7e73850 	ubfx	r3, r0, #16, #8
8014a8e8:	e3530002 	cmp	r3, #2
8014a8ec:	0a000045 	beq	8014aa08 <_RME_Thd_Crt+0x360>
8014a8f0:	e1a00c20 	lsr	r0, r0, #24
8014a8f4:	e3500003 	cmp	r0, #3
8014a8f8:	1a00003e 	bne	8014a9f8 <_RME_Thd_Crt+0x350>
8014a8fc:	e5943014 	ldr	r3, [r4, #20]
8014a900:	e20aa07f 	and	sl, sl, #127	; 0x7f
8014a904:	e15a0003 	cmp	sl, r3
8014a908:	3affffa6 	bcc	8014a7a8 <_RME_Thd_Crt+0x100>
8014a90c:	eaffffd6 	b	8014a86c <_RME_Thd_Crt+0x1c4>
8014a910:	e30e2114 	movw	r2, #57620	; 0xe114
8014a914:	e3a00801 	mov	r0, #65536	; 0x10000
8014a918:	e3482094 	movt	r2, #32916	; 0x8094
8014a91c:	e7830287 	str	r0, [r3, r7, lsl #5]
8014a920:	e1a00004 	mov	r0, r4
8014a924:	e5923000 	ldr	r3, [r2]
8014a928:	e5863010 	str	r3, [r6, #16]
8014a92c:	ebfffdb4 	bl	8014a004 <_RME_Kot_Mark>
8014a930:	e3500000 	cmp	r0, #0
8014a934:	ba000037 	blt	8014aa18 <_RME_Thd_Crt+0x370>
8014a938:	eddf0b3c 	vldr	d16, [pc, #240]	; 8014aa30 <_RME_Thd_Crt+0x388>
8014a93c:	e5845010 	str	r5, [r4, #16]
8014a940:	e2843018 	add	r3, r4, #24
8014a944:	e2842008 	add	r2, r4, #8
8014a948:	e3a01000 	mov	r1, #0
8014a94c:	f443078f 	vst1.32	{d16}, [r3]
8014a950:	ee802b90 	vdup.32	d16, r2
8014a954:	e1da30b0 	ldrh	r3, [sl]
8014a958:	e3e00000 	mvn	r0, #0
8014a95c:	e3a05000 	mov	r5, #0
8014a960:	e3530000 	cmp	r3, #0
8014a964:	e59d3038 	ldr	r3, [sp, #56]	; 0x38
8014a968:	159aa004 	ldrne	sl, [sl, #4]
8014a96c:	e5840014 	str	r0, [r4, #20]
8014a970:	e3530000 	cmp	r3, #0
8014a974:	e5841028 	str	r1, [r4, #40]	; 0x28
8014a978:	e284303c 	add	r3, r4, #60	; 0x3c
8014a97c:	e5841030 	str	r1, [r4, #48]	; 0x30
8014a980:	e1a00006 	mov	r0, r6
8014a984:	e5841038 	str	r1, [r4, #56]	; 0x38
8014a988:	e3a01406 	mov	r1, #100663296	; 0x6000000
8014a98c:	e584a02c 	str	sl, [r4, #44]	; 0x2c
8014a990:	e5849024 	str	r9, [r4, #36]	; 0x24
8014a994:	f442078f 	vst1.32	{d16}, [r2]
8014a998:	e5843040 	str	r3, [r4, #64]	; 0x40
8014a99c:	e584303c 	str	r3, [r4, #60]	; 0x3c
8014a9a0:	02843058 	addeq	r3, r4, #88	; 0x58
8014a9a4:	159d3034 	ldrne	r3, [sp, #52]	; 0x34
8014a9a8:	e5845054 	str	r5, [r4, #84]	; 0x54
8014a9ac:	13833102 	orrne	r3, r3, #-2147483648	; 0x80000000
8014a9b0:	158d3034 	strne	r3, [sp, #52]	; 0x34
8014a9b4:	13a03202 	movne	r3, #536870912	; 0x20000000
8014a9b8:	e5843048 	str	r3, [r4, #72]	; 0x48
8014a9bc:	e59d3034 	ldr	r3, [sp, #52]	; 0x34
8014a9c0:	e5843044 	str	r3, [r4, #68]	; 0x44
8014a9c4:	e284304c 	add	r3, r4, #76	; 0x4c
8014a9c8:	e5843050 	str	r3, [r4, #80]	; 0x50
8014a9cc:	e584304c 	str	r3, [r4, #76]	; 0x4c
8014a9d0:	e30031ff 	movw	r3, #511	; 0x1ff
8014a9d4:	e5865004 	str	r5, [r6, #4]
8014a9d8:	e586400c 	str	r4, [r6, #12]
8014a9dc:	e5863008 	str	r3, [r6, #8]
8014a9e0:	e59a3004 	ldr	r3, [sl, #4]
8014a9e4:	e2833001 	add	r3, r3, #1
8014a9e8:	e58a3004 	str	r3, [sl, #4]
8014a9ec:	ebfff746 	bl	8014870c <__RME_A7A_Write_Release>
8014a9f0:	e1a00005 	mov	r0, r5
8014a9f4:	e8bd8ff8 	pop	{r3, r4, r5, r6, r7, r8, r9, sl, fp, pc}
8014a9f8:	e3e00001 	mvn	r0, #1
8014a9fc:	e8bd8ff8 	pop	{r3, r4, r5, r6, r7, r8, r9, sl, fp, pc}
8014aa00:	e3e00006 	mvn	r0, #6
8014aa04:	e8bd8ff8 	pop	{r3, r4, r5, r6, r7, r8, r9, sl, fp, pc}
8014aa08:	e3e00008 	mvn	r0, #8
8014aa0c:	e8bd8ff8 	pop	{r3, r4, r5, r6, r7, r8, r9, sl, fp, pc}
8014aa10:	e3e000cc 	mvn	r0, #204	; 0xcc
8014aa14:	e8bd8ff8 	pop	{r3, r4, r5, r6, r7, r8, r9, sl, fp, pc}
8014aa18:	e1a00006 	mov	r0, r6
8014aa1c:	e1a01005 	mov	r1, r5
8014aa20:	ebfff739 	bl	8014870c <__RME_A7A_Write_Release>
8014aa24:	e3e00003 	mvn	r0, #3
8014aa28:	e8bd8ff8 	pop	{r3, r4, r5, r6, r7, r8, r9, sl, fp, pc}
8014aa2c:	e320f000 	nop	{0}
8014aa30:	00000000 	.word	0x00000000
8014aa34:	00000002 	.word	0x00000002

8014aa38 <_RME_Inv_Crt>:
8014aa38:	e3110080 	tst	r1, #128	; 0x80
8014aa3c:	e92d47f0 	push	{r4, r5, r6, r7, r8, r9, sl, lr}
8014aa40:	e1a05001 	mov	r5, r1
8014aa44:	e59d9020 	ldr	r9, [sp, #32]
8014aa48:	e1a04000 	mov	r4, r0
8014aa4c:	e59d8024 	ldr	r8, [sp, #36]	; 0x24
8014aa50:	e1a06002 	mov	r6, r2
8014aa54:	e1a07003 	mov	r7, r3
8014aa58:	1a000061 	bne	8014abe4 <_RME_Inv_Crt+0x1ac>
8014aa5c:	e5903014 	ldr	r3, [r0, #20]
8014aa60:	e1510003 	cmp	r1, r3
8014aa64:	3590100c 	ldrcc	r1, [r0, #12]
8014aa68:	2a000083 	bcs	8014ac7c <_RME_Inv_Crt+0x244>
8014aa6c:	e0815285 	add	r5, r1, r5, lsl #5
8014aa70:	e1a00005 	mov	r0, r5
8014aa74:	ebfff721 	bl	80148700 <__RME_A7A_Read_Acquire>
8014aa78:	e7e73850 	ubfx	r3, r0, #16, #8
8014aa7c:	e3530002 	cmp	r3, #2
8014aa80:	0a0000a1 	beq	8014ad0c <_RME_Inv_Crt+0x2d4>
8014aa84:	e1a00c20 	lsr	r0, r0, #24
8014aa88:	e3500003 	cmp	r0, #3
8014aa8c:	1a00009a 	bne	8014acfc <_RME_Inv_Crt+0x2c4>
8014aa90:	e3190080 	tst	r9, #128	; 0x80
8014aa94:	0a00004d 	beq	8014abd0 <_RME_Inv_Crt+0x198>
8014aa98:	e5942014 	ldr	r2, [r4, #20]
8014aa9c:	e1a03429 	lsr	r3, r9, #8
8014aaa0:	e1530002 	cmp	r3, r2
8014aaa4:	2a000074 	bcs	8014ac7c <_RME_Inv_Crt+0x244>
8014aaa8:	e594a00c 	ldr	sl, [r4, #12]
8014aaac:	e08aa283 	add	sl, sl, r3, lsl #5
8014aab0:	e1a0000a 	mov	r0, sl
8014aab4:	ebfff711 	bl	80148700 <__RME_A7A_Read_Acquire>
8014aab8:	e7e73850 	ubfx	r3, r0, #16, #8
8014aabc:	e3530002 	cmp	r3, #2
8014aac0:	0a000091 	beq	8014ad0c <_RME_Inv_Crt+0x2d4>
8014aac4:	e1a00c20 	lsr	r0, r0, #24
8014aac8:	e3500003 	cmp	r0, #3
8014aacc:	1a00008a 	bne	8014acfc <_RME_Inv_Crt+0x2c4>
8014aad0:	e59a3014 	ldr	r3, [sl, #20]
8014aad4:	e209907f 	and	r9, r9, #127	; 0x7f
8014aad8:	e1590003 	cmp	r9, r3
8014aadc:	2a000066 	bcs	8014ac7c <_RME_Inv_Crt+0x244>
8014aae0:	e59a300c 	ldr	r3, [sl, #12]
8014aae4:	e0839289 	add	r9, r3, r9, lsl #5
8014aae8:	e1a00009 	mov	r0, r9
8014aaec:	ebfff703 	bl	80148700 <__RME_A7A_Read_Acquire>
8014aaf0:	e7e73850 	ubfx	r3, r0, #16, #8
8014aaf4:	e3530002 	cmp	r3, #2
8014aaf8:	0a000083 	beq	8014ad0c <_RME_Inv_Crt+0x2d4>
8014aafc:	e1a00c20 	lsr	r0, r0, #24
8014ab00:	e3500005 	cmp	r0, #5
8014ab04:	1a00007c 	bne	8014acfc <_RME_Inv_Crt+0x2c4>
8014ab08:	e3160080 	tst	r6, #128	; 0x80
8014ab0c:	1a000048 	bne	8014ac34 <_RME_Inv_Crt+0x1fc>
8014ab10:	e5943014 	ldr	r3, [r4, #20]
8014ab14:	e1560003 	cmp	r6, r3
8014ab18:	2a000057 	bcs	8014ac7c <_RME_Inv_Crt+0x244>
8014ab1c:	e594200c 	ldr	r2, [r4, #12]
8014ab20:	e0826286 	add	r6, r2, r6, lsl #5
8014ab24:	e1a00006 	mov	r0, r6
8014ab28:	ebfff6f4 	bl	80148700 <__RME_A7A_Read_Acquire>
8014ab2c:	e7e73850 	ubfx	r3, r0, #16, #8
8014ab30:	e3530002 	cmp	r3, #2
8014ab34:	0a000074 	beq	8014ad0c <_RME_Inv_Crt+0x2d4>
8014ab38:	e1a00c20 	lsr	r0, r0, #24
8014ab3c:	e3500002 	cmp	r0, #2
8014ab40:	1a00006d 	bne	8014acfc <_RME_Inv_Crt+0x2c4>
8014ab44:	e5953008 	ldr	r3, [r5, #8]
8014ab48:	e3130001 	tst	r3, #1
8014ab4c:	0a00006c 	beq	8014ad04 <_RME_Inv_Crt+0x2cc>
8014ab50:	e5993008 	ldr	r3, [r9, #8]
8014ab54:	e3130001 	tst	r3, #1
8014ab58:	0a000069 	beq	8014ad04 <_RME_Inv_Crt+0x2cc>
8014ab5c:	e5963008 	ldr	r3, [r6, #8]
8014ab60:	e3130008 	tst	r3, #8
8014ab64:	0a000066 	beq	8014ad04 <_RME_Inv_Crt+0x2cc>
8014ab68:	e5963014 	ldr	r3, [r6, #20]
8014ab6c:	e0834008 	add	r4, r3, r8
8014ab70:	e1530008 	cmp	r3, r8
8014ab74:	31a03008 	movcc	r3, r8
8014ab78:	e3740025 	cmn	r4, #37	; 0x25
8014ab7c:	93a02000 	movls	r2, #0
8014ab80:	83a02001 	movhi	r2, #1
8014ab84:	e1540003 	cmp	r4, r3
8014ab88:	33822001 	orrcc	r2, r2, #1
8014ab8c:	e3520000 	cmp	r2, #0
8014ab90:	1a00005b 	bne	8014ad04 <_RME_Inv_Crt+0x2cc>
8014ab94:	e5962018 	ldr	r2, [r6, #24]
8014ab98:	e2843023 	add	r3, r4, #35	; 0x23
8014ab9c:	e1520003 	cmp	r2, r3
8014aba0:	3a000057 	bcc	8014ad04 <_RME_Inv_Crt+0x2cc>
8014aba4:	e5953014 	ldr	r3, [r5, #20]
8014aba8:	e1530007 	cmp	r3, r7
8014abac:	9a000032 	bls	8014ac7c <_RME_Inv_Crt+0x244>
8014abb0:	e595300c 	ldr	r3, [r5, #12]
8014abb4:	e7938287 	ldr	r8, [r3, r7, lsl #5]
8014abb8:	e0836287 	add	r6, r3, r7, lsl #5
8014abbc:	e3580000 	cmp	r8, #0
8014abc0:	13e05004 	mvnne	r5, #4
8014abc4:	0a00002e 	beq	8014ac84 <_RME_Inv_Crt+0x24c>
8014abc8:	e1a00005 	mov	r0, r5
8014abcc:	e8bd87f0 	pop	{r4, r5, r6, r7, r8, r9, sl, pc}
8014abd0:	e5943014 	ldr	r3, [r4, #20]
8014abd4:	e1590003 	cmp	r9, r3
8014abd8:	2a000027 	bcs	8014ac7c <_RME_Inv_Crt+0x244>
8014abdc:	e594300c 	ldr	r3, [r4, #12]
8014abe0:	eaffffbf 	b	8014aae4 <_RME_Inv_Crt+0xac>
8014abe4:	e5902014 	ldr	r2, [r0, #20]
8014abe8:	e1a03421 	lsr	r3, r1, #8
8014abec:	e1530002 	cmp	r3, r2
8014abf0:	2a000021 	bcs	8014ac7c <_RME_Inv_Crt+0x244>
8014abf4:	e590a00c 	ldr	sl, [r0, #12]
8014abf8:	e08aa283 	add	sl, sl, r3, lsl #5
8014abfc:	e1a0000a 	mov	r0, sl
8014ac00:	ebfff6be 	bl	80148700 <__RME_A7A_Read_Acquire>
8014ac04:	e7e73850 	ubfx	r3, r0, #16, #8
8014ac08:	e3530002 	cmp	r3, #2
8014ac0c:	0a00003e 	beq	8014ad0c <_RME_Inv_Crt+0x2d4>
8014ac10:	e1a00c20 	lsr	r0, r0, #24
8014ac14:	e3500003 	cmp	r0, #3
8014ac18:	1a000037 	bne	8014acfc <_RME_Inv_Crt+0x2c4>
8014ac1c:	e59a3014 	ldr	r3, [sl, #20]
8014ac20:	e205507f 	and	r5, r5, #127	; 0x7f
8014ac24:	e1550003 	cmp	r5, r3
8014ac28:	2a000013 	bcs	8014ac7c <_RME_Inv_Crt+0x244>
8014ac2c:	e59a100c 	ldr	r1, [sl, #12]
8014ac30:	eaffff8d 	b	8014aa6c <_RME_Inv_Crt+0x34>
8014ac34:	e5942014 	ldr	r2, [r4, #20]
8014ac38:	e1a03426 	lsr	r3, r6, #8
8014ac3c:	e1530002 	cmp	r3, r2
8014ac40:	2a00000d 	bcs	8014ac7c <_RME_Inv_Crt+0x244>
8014ac44:	e594400c 	ldr	r4, [r4, #12]
8014ac48:	e0844283 	add	r4, r4, r3, lsl #5
8014ac4c:	e1a00004 	mov	r0, r4
8014ac50:	ebfff6aa 	bl	80148700 <__RME_A7A_Read_Acquire>
8014ac54:	e7e73850 	ubfx	r3, r0, #16, #8
8014ac58:	e3530002 	cmp	r3, #2
8014ac5c:	0a00002a 	beq	8014ad0c <_RME_Inv_Crt+0x2d4>
8014ac60:	e1a00c20 	lsr	r0, r0, #24
8014ac64:	e3500003 	cmp	r0, #3
8014ac68:	1a000023 	bne	8014acfc <_RME_Inv_Crt+0x2c4>
8014ac6c:	e5943014 	ldr	r3, [r4, #20]
8014ac70:	e206607f 	and	r6, r6, #127	; 0x7f
8014ac74:	e1560003 	cmp	r6, r3
8014ac78:	3affffa7 	bcc	8014ab1c <_RME_Inv_Crt+0xe4>
8014ac7c:	e3e05002 	mvn	r5, #2
8014ac80:	eaffffd0 	b	8014abc8 <_RME_Inv_Crt+0x190>
8014ac84:	e30e2114 	movw	r2, #57620	; 0xe114
8014ac88:	e3a01801 	mov	r1, #65536	; 0x10000
8014ac8c:	e3482094 	movt	r2, #32916	; 0x8094
8014ac90:	e1a00004 	mov	r0, r4
8014ac94:	e7831287 	str	r1, [r3, r7, lsl #5]
8014ac98:	e3a01024 	mov	r1, #36	; 0x24
8014ac9c:	e5923000 	ldr	r3, [r2]
8014aca0:	e5863010 	str	r3, [r6, #16]
8014aca4:	ebfffcd6 	bl	8014a004 <_RME_Kot_Mark>
8014aca8:	e2505000 	subs	r5, r0, #0
8014acac:	1a000018 	bne	8014ad14 <_RME_Inv_Crt+0x2dc>
8014acb0:	e1d930b0 	ldrh	r3, [r9]
8014acb4:	e1a00006 	mov	r0, r6
8014acb8:	e3a01407 	mov	r1, #117440512	; 0x7000000
8014acbc:	e3530000 	cmp	r3, #0
8014acc0:	e3a03000 	mov	r3, #0
8014acc4:	15999004 	ldrne	r9, [r9, #4]
8014acc8:	e584300c 	str	r3, [r4, #12]
8014accc:	e5843018 	str	r3, [r4, #24]
8014acd0:	e5849008 	str	r9, [r4, #8]
8014acd4:	e5863004 	str	r3, [r6, #4]
8014acd8:	e3a03003 	mov	r3, #3
8014acdc:	e586400c 	str	r4, [r6, #12]
8014ace0:	e5863008 	str	r3, [r6, #8]
8014ace4:	e5993004 	ldr	r3, [r9, #4]
8014ace8:	e2833001 	add	r3, r3, #1
8014acec:	e5893004 	str	r3, [r9, #4]
8014acf0:	ebfff685 	bl	8014870c <__RME_A7A_Write_Release>
8014acf4:	e1a00005 	mov	r0, r5
8014acf8:	e8bd87f0 	pop	{r4, r5, r6, r7, r8, r9, sl, pc}
8014acfc:	e3e05001 	mvn	r5, #1
8014ad00:	eaffffb0 	b	8014abc8 <_RME_Inv_Crt+0x190>
8014ad04:	e3e05006 	mvn	r5, #6
8014ad08:	eaffffae 	b	8014abc8 <_RME_Inv_Crt+0x190>
8014ad0c:	e3e05008 	mvn	r5, #8
8014ad10:	eaffffac 	b	8014abc8 <_RME_Inv_Crt+0x190>
8014ad14:	e1a01008 	mov	r1, r8
8014ad18:	e1a00006 	mov	r0, r6
8014ad1c:	e3e05003 	mvn	r5, #3
8014ad20:	ebfff679 	bl	8014870c <__RME_A7A_Write_Release>
8014ad24:	eaffffa7 	b	8014abc8 <_RME_Inv_Crt+0x190>

8014ad28 <_RME_Kot_Erase>:
8014ad28:	e1a02001 	mov	r2, r1
8014ad2c:	e210100f 	ands	r1, r0, #15
8014ad30:	1a00005a 	bne	8014aea0 <_RME_Kot_Erase+0x178>
8014ad34:	e282247f 	add	r2, r2, #2130706432	; 0x7f000000
8014ad38:	e280c47f 	add	ip, r0, #2130706432	; 0x7f000000
8014ad3c:	e2422001 	sub	r2, r2, #1
8014ad40:	e0822000 	add	r2, r2, r0
8014ad44:	e1a0c4ac 	lsr	ip, ip, #9
8014ad48:	e1e03222 	mvn	r3, r2, lsr #4
8014ad4c:	e1a024a2 	lsr	r2, r2, #9
8014ad50:	e203301f 	and	r3, r3, #31
8014ad54:	e92d41f0 	push	{r4, r5, r6, r7, r8, lr}
8014ad58:	e15c0002 	cmp	ip, r2
8014ad5c:	e7e45250 	ubfx	r5, r0, #4, #5
8014ad60:	e3e00000 	mvn	r0, #0
8014ad64:	e1a05510 	lsl	r5, r0, r5
8014ad68:	e1a08330 	lsr	r8, r0, r3
8014ad6c:	0a000015 	beq	8014adc8 <_RME_Kot_Erase+0xa0>
8014ad70:	e30e6000 	movw	r6, #57344	; 0xe000
8014ad74:	e3486014 	movt	r6, #32788	; 0x8014
8014ad78:	e796310c 	ldr	r3, [r6, ip, lsl #2]
8014ad7c:	e1d51003 	bics	r1, r5, r3
8014ad80:	e0033005 	and	r3, r3, r5
8014ad84:	18bd81f0 	popne	{r4, r5, r6, r7, r8, pc}
8014ad88:	e28c7001 	add	r7, ip, #1
8014ad8c:	e242e001 	sub	lr, r2, #1
8014ad90:	e157000e 	cmp	r7, lr
8014ad94:	2a00003a 	bcs	8014ae84 <_RME_Kot_Erase+0x15c>
8014ad98:	e0864107 	add	r4, r6, r7, lsl #2
8014ad9c:	e1a03007 	mov	r3, r7
8014ada0:	e2440004 	sub	r0, r4, #4
8014ada4:	ea000001 	b	8014adb0 <_RME_Kot_Erase+0x88>
8014ada8:	e153000e 	cmp	r3, lr
8014adac:	0a00000f 	beq	8014adf0 <_RME_Kot_Erase+0xc8>
8014adb0:	e5b01004 	ldr	r1, [r0, #4]!
8014adb4:	e2833001 	add	r3, r3, #1
8014adb8:	e3710001 	cmn	r1, #1
8014adbc:	0afffff9 	beq	8014ada8 <_RME_Kot_Erase+0x80>
8014adc0:	e3e00000 	mvn	r0, #0
8014adc4:	e8bd81f0 	pop	{r4, r5, r6, r7, r8, pc}
8014adc8:	e30e2000 	movw	r2, #57344	; 0xe000
8014adcc:	e0055008 	and	r5, r5, r8
8014add0:	e3482014 	movt	r2, #32788	; 0x8014
8014add4:	e792310c 	ldr	r3, [r2, ip, lsl #2]
8014add8:	e1d53003 	bics	r3, r5, r3
8014addc:	01a00001 	moveq	r0, r1
8014ade0:	0792310c 	ldreq	r3, [r2, ip, lsl #2]
8014ade4:	01c33005 	biceq	r3, r3, r5
8014ade8:	0782310c 	streq	r3, [r2, ip, lsl #2]
8014adec:	e8bd81f0 	pop	{r4, r5, r6, r7, r8, pc}
8014adf0:	e7963102 	ldr	r3, [r6, r2, lsl #2]
8014adf4:	e1d83003 	bics	r3, r8, r3
8014adf8:	1afffff0 	bne	8014adc0 <_RME_Kot_Erase+0x98>
8014adfc:	e796310c 	ldr	r3, [r6, ip, lsl #2]
8014ae00:	e1c35005 	bic	r5, r3, r5
8014ae04:	e2423003 	sub	r3, r2, #3
8014ae08:	e043300c 	sub	r3, r3, ip
8014ae0c:	e786510c 	str	r5, [r6, ip, lsl #2]
8014ae10:	e3530002 	cmp	r3, #2
8014ae14:	e2423002 	sub	r3, r2, #2
8014ae18:	e043c00c 	sub	ip, r3, ip
8014ae1c:	9a00000a 	bls	8014ae4c <_RME_Kot_Erase+0x124>
8014ae20:	e1a0112c 	lsr	r1, ip, #2
8014ae24:	e1a03004 	mov	r3, r4
8014ae28:	f2c00050 	vmov.i32	q8, #0	; 0x00000000
8014ae2c:	e0841201 	add	r1, r4, r1, lsl #4
8014ae30:	f4430a8d 	vst1.32	{d16-d17}, [r3]!
8014ae34:	e1530001 	cmp	r3, r1
8014ae38:	1afffffc 	bne	8014ae30 <_RME_Kot_Erase+0x108>
8014ae3c:	e3cc3003 	bic	r3, ip, #3
8014ae40:	e15c0003 	cmp	ip, r3
8014ae44:	e0877003 	add	r7, r7, r3
8014ae48:	0a000008 	beq	8014ae70 <_RME_Kot_Erase+0x148>
8014ae4c:	e2871001 	add	r1, r7, #1
8014ae50:	e3a03000 	mov	r3, #0
8014ae54:	e151000e 	cmp	r1, lr
8014ae58:	e7863107 	str	r3, [r6, r7, lsl #2]
8014ae5c:	2a000003 	bcs	8014ae70 <_RME_Kot_Erase+0x148>
8014ae60:	e7863101 	str	r3, [r6, r1, lsl #2]
8014ae64:	e2877002 	add	r7, r7, #2
8014ae68:	e15e0007 	cmp	lr, r7
8014ae6c:	87863107 	strhi	r3, [r6, r7, lsl #2]
8014ae70:	e7963102 	ldr	r3, [r6, r2, lsl #2]
8014ae74:	e3a00000 	mov	r0, #0
8014ae78:	e1c33008 	bic	r3, r3, r8
8014ae7c:	e7863102 	str	r3, [r6, r2, lsl #2]
8014ae80:	e8bd81f0 	pop	{r4, r5, r6, r7, r8, pc}
8014ae84:	e7961102 	ldr	r1, [r6, r2, lsl #2]
8014ae88:	e1d81001 	bics	r1, r8, r1
8014ae8c:	18bd81f0 	popne	{r4, r5, r6, r7, r8, pc}
8014ae90:	e796110c 	ldr	r1, [r6, ip, lsl #2]
8014ae94:	e1c13003 	bic	r3, r1, r3
8014ae98:	e786310c 	str	r3, [r6, ip, lsl #2]
8014ae9c:	eafffff3 	b	8014ae70 <_RME_Kot_Erase+0x148>
8014aea0:	e3e00000 	mvn	r0, #0
8014aea4:	e12fff1e 	bx	lr

8014aea8 <_RME_Thd_Del.isra.0>:
8014aea8:	e3120080 	tst	r2, #128	; 0x80
8014aeac:	e92d4070 	push	{r4, r5, r6, lr}
8014aeb0:	e1a06002 	mov	r6, r2
8014aeb4:	e1a05003 	mov	r5, r3
8014aeb8:	1a000029 	bne	8014af64 <_RME_Thd_Del.isra.0+0xbc>
8014aebc:	e1520001 	cmp	r2, r1
8014aec0:	2a000043 	bcs	8014afd4 <_RME_Thd_Del.isra.0+0x12c>
8014aec4:	e0806282 	add	r6, r0, r2, lsl #5
8014aec8:	e1a00006 	mov	r0, r6
8014aecc:	ebfff60b 	bl	80148700 <__RME_A7A_Read_Acquire>
8014aed0:	e7e73850 	ubfx	r3, r0, #16, #8
8014aed4:	e3530002 	cmp	r3, #2
8014aed8:	0a000077 	beq	8014b0bc <_RME_Thd_Del.isra.0+0x214>
8014aedc:	e1a00c20 	lsr	r0, r0, #24
8014aee0:	e3500003 	cmp	r0, #3
8014aee4:	1a000069 	bne	8014b090 <_RME_Thd_Del.isra.0+0x1e8>
8014aee8:	e5963008 	ldr	r3, [r6, #8]
8014aeec:	e3130002 	tst	r3, #2
8014aef0:	0a000083 	beq	8014b104 <_RME_Thd_Del.isra.0+0x25c>
8014aef4:	e5963014 	ldr	r3, [r6, #20]
8014aef8:	e1530005 	cmp	r3, r5
8014aefc:	9a000034 	bls	8014afd4 <_RME_Thd_Del.isra.0+0x12c>
8014af00:	e596600c 	ldr	r6, [r6, #12]
8014af04:	e0864285 	add	r4, r6, r5, lsl #5
8014af08:	e1a00004 	mov	r0, r4
8014af0c:	ebfff5fb 	bl	80148700 <__RME_A7A_Read_Acquire>
8014af10:	e7e73850 	ubfx	r3, r0, #16, #8
8014af14:	e3530002 	cmp	r3, #2
8014af18:	1a000067 	bne	8014b0bc <_RME_Thd_Del.isra.0+0x214>
8014af1c:	e1a03c20 	lsr	r3, r0, #24
8014af20:	e3530006 	cmp	r3, #6
8014af24:	1a000059 	bne	8014b090 <_RME_Thd_Del.isra.0+0x1e8>
8014af28:	e5943004 	ldr	r3, [r4, #4]
8014af2c:	e3530000 	cmp	r3, #0
8014af30:	1a000075 	bne	8014b10c <_RME_Thd_Del.isra.0+0x264>
8014af34:	e6ffc070 	uxth	ip, r0
8014af38:	e35c0000 	cmp	ip, #0
8014af3c:	1a00001b 	bne	8014afb0 <_RME_Thd_Del.isra.0+0x108>
8014af40:	e594200c 	ldr	r2, [r4, #12]
8014af44:	e5923014 	ldr	r3, [r2, #20]
8014af48:	e3730001 	cmn	r3, #1
8014af4c:	1a00005c 	bne	8014b0c4 <_RME_Thd_Del.isra.0+0x21c>
8014af50:	e7961285 	ldr	r1, [r6, r5, lsl #5]
8014af54:	e1500001 	cmp	r0, r1
8014af58:	0a00001f 	beq	8014afdc <_RME_Thd_Del.isra.0+0x134>
8014af5c:	e1a00003 	mov	r0, r3
8014af60:	e8bd8070 	pop	{r4, r5, r6, pc}
8014af64:	e1a04422 	lsr	r4, r2, #8
8014af68:	e1540001 	cmp	r4, r1
8014af6c:	2a000018 	bcs	8014afd4 <_RME_Thd_Del.isra.0+0x12c>
8014af70:	e0804284 	add	r4, r0, r4, lsl #5
8014af74:	e1a00004 	mov	r0, r4
8014af78:	ebfff5e0 	bl	80148700 <__RME_A7A_Read_Acquire>
8014af7c:	e7e73850 	ubfx	r3, r0, #16, #8
8014af80:	e3530002 	cmp	r3, #2
8014af84:	0a00004c 	beq	8014b0bc <_RME_Thd_Del.isra.0+0x214>
8014af88:	e1a00c20 	lsr	r0, r0, #24
8014af8c:	e3500003 	cmp	r0, #3
8014af90:	1a00003e 	bne	8014b090 <_RME_Thd_Del.isra.0+0x1e8>
8014af94:	e5943014 	ldr	r3, [r4, #20]
8014af98:	e206607f 	and	r6, r6, #127	; 0x7f
8014af9c:	e1560003 	cmp	r6, r3
8014afa0:	2a00000b 	bcs	8014afd4 <_RME_Thd_Del.isra.0+0x12c>
8014afa4:	e594400c 	ldr	r4, [r4, #12]
8014afa8:	e0846286 	add	r6, r4, r6, lsl #5
8014afac:	eaffffc5 	b	8014aec8 <_RME_Thd_Del.isra.0+0x20>
8014afb0:	e30d3d80 	movw	r3, #56704	; 0xdd80
8014afb4:	e30d2d8c 	movw	r2, #56716	; 0xdd8c
8014afb8:	e3483014 	movt	r3, #32788	; 0x8014
8014afbc:	e30d0d98 	movw	r0, #56728	; 0xdd98
8014afc0:	e3482014 	movt	r2, #32788	; 0x8014
8014afc4:	e30114f3 	movw	r1, #5363	; 0x14f3
8014afc8:	e3480014 	movt	r0, #32788	; 0x8014
8014afcc:	ebfff97b 	bl	801495c0 <RME_Log>
8014afd0:	eafffffe 	b	8014afd0 <_RME_Thd_Del.isra.0+0x128>
8014afd4:	e3e00002 	mvn	r0, #2
8014afd8:	e8bd8070 	pop	{r4, r5, r6, pc}
8014afdc:	e786c285 	str	ip, [r6, r5, lsl #5]
8014afe0:	e1a0e002 	mov	lr, r2
8014afe4:	e5be304c 	ldr	r3, [lr, #76]!	; 0x4c
8014afe8:	e153000e 	cmp	r3, lr
8014afec:	0a000042 	beq	8014b0fc <_RME_Thd_Del.isra.0+0x254>
8014aff0:	e1c300d0 	ldrd	r0, [r3]
8014aff4:	e5801004 	str	r1, [r0, #4]
8014aff8:	e5810000 	str	r0, [r1]
8014affc:	e583c00c 	str	ip, [r3, #12]
8014b000:	e592304c 	ldr	r3, [r2, #76]	; 0x4c
8014b004:	e5921054 	ldr	r1, [r2, #84]	; 0x54
8014b008:	e153000e 	cmp	r3, lr
8014b00c:	e2411001 	sub	r1, r1, #1
8014b010:	e5821054 	str	r1, [r2, #84]	; 0x54
8014b014:	1afffff5 	bne	8014aff0 <_RME_Thd_Del.isra.0+0x148>
8014b018:	e3510000 	cmp	r1, #0
8014b01c:	1a00001d 	bne	8014b098 <_RME_Thd_Del.isra.0+0x1f0>
8014b020:	e592102c 	ldr	r1, [r2, #44]	; 0x2c
8014b024:	e5913004 	ldr	r3, [r1, #4]
8014b028:	e2433001 	sub	r3, r3, #1
8014b02c:	e5813004 	str	r3, [r1, #4]
8014b030:	e5923044 	ldr	r3, [r2, #68]	; 0x44
8014b034:	e3530000 	cmp	r3, #0
8014b038:	ba000006 	blt	8014b058 <_RME_Thd_Del.isra.0+0x1b0>
8014b03c:	e3a0109c 	mov	r1, #156	; 0x9c
8014b040:	e1a00002 	mov	r0, r2
8014b044:	ebffff37 	bl	8014ad28 <_RME_Kot_Erase>
8014b048:	e3500000 	cmp	r0, #0
8014b04c:	1a000021 	bne	8014b0d8 <_RME_Thd_Del.isra.0+0x230>
8014b050:	e3a00000 	mov	r0, #0
8014b054:	e8bd8070 	pop	{r4, r5, r6, pc}
8014b058:	e3a01058 	mov	r1, #88	; 0x58
8014b05c:	e1a00002 	mov	r0, r2
8014b060:	ebffff30 	bl	8014ad28 <_RME_Kot_Erase>
8014b064:	e3500000 	cmp	r0, #0
8014b068:	0afffff8 	beq	8014b050 <_RME_Thd_Del.isra.0+0x1a8>
8014b06c:	e30d3d80 	movw	r3, #56704	; 0xdd80
8014b070:	e30d2d8c 	movw	r2, #56716	; 0xdd8c
8014b074:	e3483014 	movt	r3, #32788	; 0x8014
8014b078:	e30d0d98 	movw	r0, #56728	; 0xdd98
8014b07c:	e3482014 	movt	r2, #32788	; 0x8014
8014b080:	e3011525 	movw	r1, #5413	; 0x1525
8014b084:	e3480014 	movt	r0, #32788	; 0x8014
8014b088:	ebfff94c 	bl	801495c0 <RME_Log>
8014b08c:	eafffffe 	b	8014b08c <_RME_Thd_Del.isra.0+0x1e4>
8014b090:	e3e00001 	mvn	r0, #1
8014b094:	e8bd8070 	pop	{r4, r5, r6, pc}
8014b098:	e30d3d80 	movw	r3, #56704	; 0xdd80
8014b09c:	e30d2d8c 	movw	r2, #56716	; 0xdd8c
8014b0a0:	e3483014 	movt	r3, #32788	; 0x8014
8014b0a4:	e30d0d98 	movw	r0, #56728	; 0xdd98
8014b0a8:	e3482014 	movt	r2, #32788	; 0x8014
8014b0ac:	e3011514 	movw	r1, #5396	; 0x1514
8014b0b0:	e3480014 	movt	r0, #32788	; 0x8014
8014b0b4:	ebfff941 	bl	801495c0 <RME_Log>
8014b0b8:	eafffffe 	b	8014b0b8 <_RME_Thd_Del.isra.0+0x210>
8014b0bc:	e3e00008 	mvn	r0, #8
8014b0c0:	e8bd8070 	pop	{r4, r5, r6, pc}
8014b0c4:	e7963285 	ldr	r3, [r6, r5, lsl #5]
8014b0c8:	e1500003 	cmp	r0, r3
8014b0cc:	0a000016 	beq	8014b12c <_RME_Thd_Del.isra.0+0x284>
8014b0d0:	e3e000cb 	mvn	r0, #203	; 0xcb
8014b0d4:	e8bd8070 	pop	{r4, r5, r6, pc}
8014b0d8:	e30d3d80 	movw	r3, #56704	; 0xdd80
8014b0dc:	e30d2d8c 	movw	r2, #56716	; 0xdd8c
8014b0e0:	e3483014 	movt	r3, #32788	; 0x8014
8014b0e4:	e30d0d98 	movw	r0, #56728	; 0xdd98
8014b0e8:	e3482014 	movt	r2, #32788	; 0x8014
8014b0ec:	e301151e 	movw	r1, #5406	; 0x151e
8014b0f0:	e3480014 	movt	r0, #32788	; 0x8014
8014b0f4:	ebfff931 	bl	801495c0 <RME_Log>
8014b0f8:	eafffffe 	b	8014b0f8 <_RME_Thd_Del.isra.0+0x250>
8014b0fc:	e5921054 	ldr	r1, [r2, #84]	; 0x54
8014b100:	eaffffc4 	b	8014b018 <_RME_Thd_Del.isra.0+0x170>
8014b104:	e3e00006 	mvn	r0, #6
8014b108:	e8bd8070 	pop	{r4, r5, r6, pc}
8014b10c:	e6ff3070 	uxth	r3, r0
8014b110:	e3530000 	cmp	r3, #0
8014b114:	1a000002 	bne	8014b124 <_RME_Thd_Del.isra.0+0x27c>
8014b118:	e7963285 	ldr	r3, [r6, r5, lsl #5]
8014b11c:	e1500003 	cmp	r0, r3
8014b120:	0a000005 	beq	8014b13c <_RME_Thd_Del.isra.0+0x294>
8014b124:	e3e00005 	mvn	r0, #5
8014b128:	e8bd8070 	pop	{r4, r5, r6, pc}
8014b12c:	e3c028ff 	bic	r2, r0, #16711680	; 0xff0000
8014b130:	e3e000cb 	mvn	r0, #203	; 0xcb
8014b134:	e7862285 	str	r2, [r6, r5, lsl #5]
8014b138:	e8bd8070 	pop	{r4, r5, r6, pc}
8014b13c:	e3c028ff 	bic	r2, r0, #16711680	; 0xff0000
8014b140:	e3e00005 	mvn	r0, #5
8014b144:	e7862285 	str	r2, [r6, r5, lsl #5]
8014b148:	e8bd8070 	pop	{r4, r5, r6, pc}
8014b14c:	00000000 	andeq	r0, r0, r0

8014b150 <_RME_CPU_Local_Init>:
8014b150:	e52de004 	push	{lr}		; (str lr, [sp, #-4]!)
8014b154:	e280c004 	add	ip, r0, #4
8014b158:	ed2d8b04 	vpush	{d8-d9}
8014b15c:	eea00b90 	vdup.32	q8, r0
8014b160:	ed9f8b56 	vldr	d8, [pc, #344]	; 8014b2c0 <_RME_CPU_Local_Init+0x170>
8014b164:	ed9f9b57 	vldr	d9, [pc, #348]	; 8014b2c8 <_RME_CPU_Local_Init+0x178>
8014b168:	eddf6b58 	vldr	d22, [pc, #352]	; 8014b2d0 <_RME_CPU_Local_Init+0x180>
8014b16c:	eddf7b59 	vldr	d23, [pc, #356]	; 8014b2d8 <_RME_CPU_Local_Init+0x188>
8014b170:	eddf8b5a 	vldr	d24, [pc, #360]	; 8014b2e0 <_RME_CPU_Local_Init+0x190>
8014b174:	eddf9b5b 	vldr	d25, [pc, #364]	; 8014b2e8 <_RME_CPU_Local_Init+0x198>
8014b178:	eddf4b5c 	vldr	d20, [pc, #368]	; 8014b2f0 <_RME_CPU_Local_Init+0x1a0>
8014b17c:	eddf5b5d 	vldr	d21, [pc, #372]	; 8014b2f8 <_RME_CPU_Local_Init+0x1a8>
8014b180:	f22088c8 	vadd.i32	q4, q8, q4
8014b184:	f2c02010 	vmov.i32	d18, #0	; 0x00000000
8014b188:	ed9f0b5c 	vldr	d0, [pc, #368]	; 8014b300 <_RME_CPU_Local_Init+0x1b0>
8014b18c:	ed9f1b5d 	vldr	d1, [pc, #372]	; 8014b308 <_RME_CPU_Local_Init+0x1b8>
8014b190:	ed9f2b5e 	vldr	d2, [pc, #376]	; 8014b310 <_RME_CPU_Local_Init+0x1c0>
8014b194:	ed9f3b5f 	vldr	d3, [pc, #380]	; 8014b318 <_RME_CPU_Local_Init+0x1c8>
8014b198:	f26068e6 	vadd.i32	q11, q8, q11
8014b19c:	f26048e4 	vadd.i32	q10, q8, q10
8014b1a0:	f26088e8 	vadd.i32	q12, q8, q12
8014b1a4:	e5801000 	str	r1, [r0]
8014b1a8:	e2802014 	add	r2, r0, #20
8014b1ac:	ed9f4b5b 	vldr	d4, [pc, #364]	; 8014b320 <_RME_CPU_Local_Init+0x1d0>
8014b1b0:	ed9f5b5c 	vldr	d5, [pc, #368]	; 8014b328 <_RME_CPU_Local_Init+0x1d8>
8014b1b4:	ed9f6b5d 	vldr	d6, [pc, #372]	; 8014b330 <_RME_CPU_Local_Init+0x1e0>
8014b1b8:	ed9f7b5e 	vldr	d7, [pc, #376]	; 8014b338 <_RME_CPU_Local_Init+0x1e8>
8014b1bc:	e3a03000 	mov	r3, #0
8014b1c0:	e280e024 	add	lr, r0, #36	; 0x24
8014b1c4:	e580300c 	str	r3, [r0, #12]
8014b1c8:	e2801054 	add	r1, r0, #84	; 0x54
8014b1cc:	f44c278f 	vst1.32	{d18}, [ip]
8014b1d0:	f22028c2 	vadd.i32	q1, q8, q1
8014b1d4:	f4028a8f 	vst1.32	{d8-d9}, [r2]
8014b1d8:	f22008c0 	vadd.i32	q0, q8, q0
8014b1dc:	e280c034 	add	ip, r0, #52	; 0x34
8014b1e0:	e2802044 	add	r2, r0, #68	; 0x44
8014b1e4:	eddfeb55 	vldr	d30, [pc, #340]	; 8014b340 <_RME_CPU_Local_Init+0x1f0>
8014b1e8:	eddffb56 	vldr	d31, [pc, #344]	; 8014b348 <_RME_CPU_Local_Init+0x1f8>
8014b1ec:	eddfcb57 	vldr	d28, [pc, #348]	; 8014b350 <_RME_CPU_Local_Init+0x200>
8014b1f0:	eddfdb58 	vldr	d29, [pc, #352]	; 8014b358 <_RME_CPU_Local_Init+0x208>
8014b1f4:	f44e6a8f 	vst1.32	{d22-d23}, [lr]
8014b1f8:	f22048c4 	vadd.i32	q2, q8, q2
8014b1fc:	f44c8a8f 	vst1.32	{d24-d25}, [ip]
8014b200:	f22068c6 	vadd.i32	q3, q8, q3
8014b204:	f4424a8f 	vst1.32	{d20-d21}, [r2]
8014b208:	eddfab54 	vldr	d26, [pc, #336]	; 8014b360 <_RME_CPU_Local_Init+0x210>
8014b20c:	eddfbb55 	vldr	d27, [pc, #340]	; 8014b368 <_RME_CPU_Local_Init+0x218>
8014b210:	e2802064 	add	r2, r0, #100	; 0x64
8014b214:	e280c074 	add	ip, r0, #116	; 0x74
8014b218:	ed9f8b54 	vldr	d8, [pc, #336]	; 8014b370 <_RME_CPU_Local_Init+0x220>
8014b21c:	ed9f9b55 	vldr	d9, [pc, #340]	; 8014b378 <_RME_CPU_Local_Init+0x228>
8014b220:	eddf6b56 	vldr	d22, [pc, #344]	; 8014b380 <_RME_CPU_Local_Init+0x230>
8014b224:	eddf7b57 	vldr	d23, [pc, #348]	; 8014b388 <_RME_CPU_Local_Init+0x238>
8014b228:	f4010a8f 	vst1.32	{d0-d1}, [r1]
8014b22c:	f260e8ee 	vadd.i32	q15, q8, q15
8014b230:	f4022a8f 	vst1.32	{d2-d3}, [r2]
8014b234:	f260c8ec 	vadd.i32	q14, q8, q14
8014b238:	e2802084 	add	r2, r0, #132	; 0x84
8014b23c:	e2801094 	add	r1, r0, #148	; 0x94
8014b240:	eddf4b52 	vldr	d20, [pc, #328]	; 8014b390 <_RME_CPU_Local_Init+0x240>
8014b244:	eddf5b53 	vldr	d21, [pc, #332]	; 8014b398 <_RME_CPU_Local_Init+0x248>
8014b248:	eddf2b54 	vldr	d18, [pc, #336]	; 8014b3a0 <_RME_CPU_Local_Init+0x250>
8014b24c:	eddf3b55 	vldr	d19, [pc, #340]	; 8014b3a8 <_RME_CPU_Local_Init+0x258>
8014b250:	ed9f2b56 	vldr	d2, [pc, #344]	; 8014b3b0 <_RME_CPU_Local_Init+0x260>
8014b254:	ed9f3b57 	vldr	d3, [pc, #348]	; 8014b3b8 <_RME_CPU_Local_Init+0x268>
8014b258:	f40c4a8f 	vst1.32	{d4-d5}, [ip]
8014b25c:	f22088c8 	vadd.i32	q4, q8, q4
8014b260:	f4026a8f 	vst1.32	{d6-d7}, [r2]
8014b264:	f260a8ea 	vadd.i32	q13, q8, q13
8014b268:	f26068e6 	vadd.i32	q11, q8, q11
8014b26c:	e28020a4 	add	r2, r0, #164	; 0xa4
8014b270:	e280c0b4 	add	ip, r0, #180	; 0xb4
8014b274:	f441ea8f 	vst1.32	{d30-d31}, [r1]
8014b278:	f26048e4 	vadd.i32	q10, q8, q10
8014b27c:	f442ca8f 	vst1.32	{d28-d29}, [r2]
8014b280:	f26028e2 	vadd.i32	q9, q8, q9
8014b284:	e28010c4 	add	r1, r0, #196	; 0xc4
8014b288:	e28020d4 	add	r2, r0, #212	; 0xd4
8014b28c:	f26008c2 	vadd.i32	q8, q8, q1
8014b290:	f44caa8f 	vst1.32	{d26-d27}, [ip]
8014b294:	f4018a8f 	vst1.32	{d8-d9}, [r1]
8014b298:	e280c0e4 	add	ip, r0, #228	; 0xe4
8014b29c:	e28010f4 	add	r1, r0, #244	; 0xf4
8014b2a0:	f4426a8f 	vst1.32	{d22-d23}, [r2]
8014b2a4:	e2802f41 	add	r2, r0, #260	; 0x104
8014b2a8:	f44c4a8f 	vst1.32	{d20-d21}, [ip]
8014b2ac:	f4412a8f 	vst1.32	{d18-d19}, [r1]
8014b2b0:	f4420a8f 	vst1.32	{d16-d17}, [r2]
8014b2b4:	e5803010 	str	r3, [r0, #16]
8014b2b8:	ecbd8b04 	vpop	{d8-d9}
8014b2bc:	e49df004 	pop	{pc}		; (ldr pc, [sp], #4)
8014b2c0:	00000014 	.word	0x00000014
8014b2c4:	00000014 	.word	0x00000014
8014b2c8:	0000001c 	.word	0x0000001c
8014b2cc:	0000001c 	.word	0x0000001c
8014b2d0:	00000024 	.word	0x00000024
8014b2d4:	00000024 	.word	0x00000024
8014b2d8:	0000002c 	.word	0x0000002c
8014b2dc:	0000002c 	.word	0x0000002c
8014b2e0:	00000034 	.word	0x00000034
8014b2e4:	00000034 	.word	0x00000034
8014b2e8:	0000003c 	.word	0x0000003c
8014b2ec:	0000003c 	.word	0x0000003c
8014b2f0:	00000044 	.word	0x00000044
8014b2f4:	00000044 	.word	0x00000044
8014b2f8:	0000004c 	.word	0x0000004c
8014b2fc:	0000004c 	.word	0x0000004c
8014b300:	00000054 	.word	0x00000054
8014b304:	00000054 	.word	0x00000054
8014b308:	0000005c 	.word	0x0000005c
8014b30c:	0000005c 	.word	0x0000005c
8014b310:	00000064 	.word	0x00000064
8014b314:	00000064 	.word	0x00000064
8014b318:	0000006c 	.word	0x0000006c
8014b31c:	0000006c 	.word	0x0000006c
8014b320:	00000074 	.word	0x00000074
8014b324:	00000074 	.word	0x00000074
8014b328:	0000007c 	.word	0x0000007c
8014b32c:	0000007c 	.word	0x0000007c
8014b330:	00000084 	.word	0x00000084
8014b334:	00000084 	.word	0x00000084
8014b338:	0000008c 	.word	0x0000008c
8014b33c:	0000008c 	.word	0x0000008c
8014b340:	00000094 	.word	0x00000094
8014b344:	00000094 	.word	0x00000094
8014b348:	0000009c 	.word	0x0000009c
8014b34c:	0000009c 	.word	0x0000009c
8014b350:	000000a4 	.word	0x000000a4
8014b354:	000000a4 	.word	0x000000a4
8014b358:	000000ac 	.word	0x000000ac
8014b35c:	000000ac 	.word	0x000000ac
8014b360:	000000b4 	.word	0x000000b4
8014b364:	000000b4 	.word	0x000000b4
8014b368:	000000bc 	.word	0x000000bc
8014b36c:	000000bc 	.word	0x000000bc
8014b370:	000000c4 	.word	0x000000c4
8014b374:	000000c4 	.word	0x000000c4
8014b378:	000000cc 	.word	0x000000cc
8014b37c:	000000cc 	.word	0x000000cc
8014b380:	000000d4 	.word	0x000000d4
8014b384:	000000d4 	.word	0x000000d4
8014b388:	000000dc 	.word	0x000000dc
8014b38c:	000000dc 	.word	0x000000dc
8014b390:	000000e4 	.word	0x000000e4
8014b394:	000000e4 	.word	0x000000e4
8014b398:	000000ec 	.word	0x000000ec
8014b39c:	000000ec 	.word	0x000000ec
8014b3a0:	000000f4 	.word	0x000000f4
8014b3a4:	000000f4 	.word	0x000000f4
8014b3a8:	000000fc 	.word	0x000000fc
8014b3ac:	000000fc 	.word	0x000000fc
8014b3b0:	00000104 	.word	0x00000104
8014b3b4:	00000104 	.word	0x00000104
8014b3b8:	0000010c 	.word	0x0000010c
8014b3bc:	0000010c 	.word	0x0000010c

8014b3c0 <_RME_Kern_High>:
8014b3c0:	e92d4070 	push	{r4, r5, r6, lr}
8014b3c4:	e1a06000 	mov	r6, r0
8014b3c8:	e5910010 	ldr	r0, [r1, #16]
8014b3cc:	e3500000 	cmp	r0, #0
8014b3d0:	1a000008 	bne	8014b3f8 <_RME_Kern_High+0x38>
8014b3d4:	e30d3d80 	movw	r3, #56704	; 0xdd80
8014b3d8:	e30d2d8c 	movw	r2, #56716	; 0xdd8c
8014b3dc:	e3483014 	movt	r3, #32788	; 0x8014
8014b3e0:	e30d0d98 	movw	r0, #56728	; 0xdd98
8014b3e4:	e3482014 	movt	r2, #32788	; 0x8014
8014b3e8:	e3011186 	movw	r1, #4486	; 0x1186
8014b3ec:	e3480014 	movt	r0, #32788	; 0x8014
8014b3f0:	ebfff872 	bl	801495c0 <RME_Log>
8014b3f4:	eafffffe 	b	8014b3f4 <_RME_Kern_High+0x34>
8014b3f8:	e1a04001 	mov	r4, r1
8014b3fc:	ebfff4cd 	bl	80148738 <__RME_A7A_MSB_Get>
8014b400:	e0843180 	add	r3, r4, r0, lsl #3
8014b404:	e5935014 	ldr	r5, [r3, #20]
8014b408:	e3550000 	cmp	r5, #0
8014b40c:	0a00001a 	beq	8014b47c <_RME_Kern_High+0xbc>
8014b410:	e5941004 	ldr	r1, [r4, #4]
8014b414:	e1510005 	cmp	r1, r5
8014b418:	08bd8070 	popeq	{r4, r5, r6, pc}
8014b41c:	e591301c 	ldr	r3, [r1, #28]
8014b420:	e3530000 	cmp	r3, #0
8014b424:	1a000003 	bne	8014b438 <_RME_Kern_High+0x78>
8014b428:	e5952020 	ldr	r2, [r5, #32]
8014b42c:	e5913020 	ldr	r3, [r1, #32]
8014b430:	e1520003 	cmp	r2, r3
8014b434:	98bd8070 	popls	{r4, r5, r6, pc}
8014b438:	e595301c 	ldr	r3, [r5, #28]
8014b43c:	e3530000 	cmp	r3, #0
8014b440:	0a000008 	beq	8014b468 <_RME_Kern_High+0xa8>
8014b444:	e30d3d80 	movw	r3, #56704	; 0xdd80
8014b448:	e30d2d8c 	movw	r2, #56716	; 0xdd8c
8014b44c:	e3483014 	movt	r3, #32788	; 0x8014
8014b450:	e30d0d98 	movw	r0, #56728	; 0xdd98
8014b454:	e3482014 	movt	r2, #32788	; 0x8014
8014b458:	e3011b0e 	movw	r1, #6926	; 0x1b0e
8014b45c:	e3480014 	movt	r0, #32788	; 0x8014
8014b460:	ebfff856 	bl	801495c0 <RME_Log>
8014b464:	eafffffe 	b	8014b464 <_RME_Kern_High+0xa4>
8014b468:	e1a02005 	mov	r2, r5
8014b46c:	e1a00006 	mov	r0, r6
8014b470:	ebfffa53 	bl	80149dc4 <_RME_Run_Swt.isra.0>
8014b474:	e5845004 	str	r5, [r4, #4]
8014b478:	e8bd8070 	pop	{r4, r5, r6, pc}
8014b47c:	e30d3d80 	movw	r3, #56704	; 0xdd80
8014b480:	e30d2d8c 	movw	r2, #56716	; 0xdd8c
8014b484:	e3483014 	movt	r3, #32788	; 0x8014
8014b488:	e30d0d98 	movw	r0, #56728	; 0xdd98
8014b48c:	e3482014 	movt	r2, #32788	; 0x8014
8014b490:	e3011ae3 	movw	r1, #6883	; 0x1ae3
8014b494:	e3480014 	movt	r0, #32788	; 0x8014
8014b498:	ebfff848 	bl	801495c0 <RME_Log>
8014b49c:	eafffffe 	b	8014b49c <_RME_Kern_High+0xdc>

8014b4a0 <_RME_Svc_Handler>:
8014b4a0:	e92d4ff0 	push	{r4, r5, r6, r7, r8, r9, sl, fp, lr}
8014b4a4:	e24dd06c 	sub	sp, sp, #108	; 0x6c
8014b4a8:	e28d2034 	add	r2, sp, #52	; 0x34
8014b4ac:	e28d3038 	add	r3, sp, #56	; 0x38
8014b4b0:	e28d1030 	add	r1, sp, #48	; 0x30
8014b4b4:	e1a05000 	mov	r5, r0
8014b4b8:	eb000984 	bl	8014dad0 <__RME_Svc_Param_Get>
8014b4bc:	e59dc030 	ldr	ip, [sp, #48]	; 0x30
8014b4c0:	e21c203f 	ands	r2, ip, #63	; 0x3f
8014b4c4:	0a000017 	beq	8014b528 <_RME_Svc_Handler+0x88>
8014b4c8:	e30e4000 	movw	r4, #57344	; 0xe000
8014b4cc:	e3484094 	movt	r4, #32916	; 0x8094
8014b4d0:	e5947004 	ldr	r7, [r4, #4]
8014b4d4:	e1a03007 	mov	r3, r7
8014b4d8:	e5b3104c 	ldr	r1, [r3, #76]!	; 0x4c
8014b4dc:	e3510000 	cmp	r1, #0
8014b4e0:	11510003 	cmpne	r1, r3
8014b4e4:	0597302c 	ldreq	r3, [r7, #44]	; 0x2c
8014b4e8:	15913008 	ldrne	r3, [r1, #8]
8014b4ec:	e3520001 	cmp	r2, #1
8014b4f0:	e5936014 	ldr	r6, [r3, #20]
8014b4f4:	0a000012 	beq	8014b544 <_RME_Svc_Handler+0xa4>
8014b4f8:	e2423002 	sub	r3, r2, #2
8014b4fc:	e3530007 	cmp	r3, #7
8014b500:	979ff103 	ldrls	pc, [pc, r3, lsl #2]
8014b504:	ea000448 	b	8014c62c <_RME_Svc_Handler+0x118c>
8014b508:	8014b6d0 	.word	0x8014b6d0
8014b50c:	8014b7a0 	.word	0x8014b7a0
8014b510:	8014b800 	.word	0x8014b800
8014b514:	8014b894 	.word	0x8014b894
8014b518:	8014b9c4 	.word	0x8014b9c4
8014b51c:	8014bab8 	.word	0x8014bab8
8014b520:	8014bbec 	.word	0x8014bbec
8014b524:	8014b600 	.word	0x8014b600
8014b528:	e59d1038 	ldr	r1, [sp, #56]	; 0x38
8014b52c:	e1a00005 	mov	r0, r5
8014b530:	ebfff980 	bl	80149b38 <_RME_Inv_Ret>
8014b534:	e2501000 	subs	r1, r0, #0
8014b538:	ba00002c 	blt	8014b5f0 <_RME_Svc_Handler+0x150>
8014b53c:	e28dd06c 	add	sp, sp, #108	; 0x6c
8014b540:	e8bd8ff0 	pop	{r4, r5, r6, r7, r8, r9, sl, fp, pc}
8014b544:	e59d9038 	ldr	r9, [sp, #56]	; 0x38
8014b548:	e59d703c 	ldr	r7, [sp, #60]	; 0x3c
8014b54c:	e596200c 	ldr	r2, [r6, #12]
8014b550:	e3190080 	tst	r9, #128	; 0x80
8014b554:	e5963014 	ldr	r3, [r6, #20]
8014b558:	0a000212 	beq	8014bda8 <_RME_Svc_Handler+0x908>
8014b55c:	e1a08429 	lsr	r8, r9, #8
8014b560:	e1530008 	cmp	r3, r8
8014b564:	9a00025d 	bls	8014bee0 <_RME_Svc_Handler+0xa40>
8014b568:	e0828288 	add	r8, r2, r8, lsl #5
8014b56c:	e1a00008 	mov	r0, r8
8014b570:	ebfff462 	bl	80148700 <__RME_A7A_Read_Acquire>
8014b574:	e7e73850 	ubfx	r3, r0, #16, #8
8014b578:	e3530002 	cmp	r3, #2
8014b57c:	0a0003fc 	beq	8014c574 <_RME_Svc_Handler+0x10d4>
8014b580:	e1a00c20 	lsr	r0, r0, #24
8014b584:	e3500003 	cmp	r0, #3
8014b588:	1a0002e4 	bne	8014c120 <_RME_Svc_Handler+0xc80>
8014b58c:	e5982014 	ldr	r2, [r8, #20]
8014b590:	e209307f 	and	r3, r9, #127	; 0x7f
8014b594:	e1530002 	cmp	r3, r2
8014b598:	2a000250 	bcs	8014bee0 <_RME_Svc_Handler+0xa40>
8014b59c:	e598600c 	ldr	r6, [r8, #12]
8014b5a0:	e0866283 	add	r6, r6, r3, lsl #5
8014b5a4:	e1a00006 	mov	r0, r6
8014b5a8:	ebfff454 	bl	80148700 <__RME_A7A_Read_Acquire>
8014b5ac:	e7e73850 	ubfx	r3, r0, #16, #8
8014b5b0:	e3530002 	cmp	r3, #2
8014b5b4:	0a0003ee 	beq	8014c574 <_RME_Svc_Handler+0x10d4>
8014b5b8:	e1a00c20 	lsr	r0, r0, #24
8014b5bc:	e3500007 	cmp	r0, #7
8014b5c0:	1a0002d6 	bne	8014c120 <_RME_Svc_Handler+0xc80>
8014b5c4:	e5963008 	ldr	r3, [r6, #8]
8014b5c8:	e3130002 	tst	r3, #2
8014b5cc:	0a000261 	beq	8014bf58 <_RME_Svc_Handler+0xab8>
8014b5d0:	e596600c 	ldr	r6, [r6, #12]
8014b5d4:	e596300c 	ldr	r3, [r6, #12]
8014b5d8:	e3530000 	cmp	r3, #0
8014b5dc:	1a000002 	bne	8014b5ec <_RME_Svc_Handler+0x14c>
8014b5e0:	e596300c 	ldr	r3, [r6, #12]
8014b5e4:	e3530000 	cmp	r3, #0
8014b5e8:	0a00030b 	beq	8014c21c <_RME_Svc_Handler+0xd7c>
8014b5ec:	e3e01f4b 	mvn	r1, #300	; 0x12c
8014b5f0:	e1a00005 	mov	r0, r5
8014b5f4:	eb000940 	bl	8014dafc <__RME_Svc_Retval_Set>
8014b5f8:	e28dd06c 	add	sp, sp, #108	; 0x6c
8014b5fc:	e8bd8ff0 	pop	{r4, r5, r6, r7, r8, r9, sl, fp, pc}
8014b600:	e1cd83d8 	ldrd	r8, [sp, #56]	; 0x38
8014b604:	e3580902 	cmp	r8, #32768	; 0x8000
8014b608:	aa0001f6 	bge	8014bde8 <_RME_Svc_Handler+0x948>
8014b60c:	e3180080 	tst	r8, #128	; 0x80
8014b610:	1a00029e 	bne	8014c090 <_RME_Svc_Handler+0xbf0>
8014b614:	e5963014 	ldr	r3, [r6, #20]
8014b618:	e1580003 	cmp	r8, r3
8014b61c:	2a00022f 	bcs	8014bee0 <_RME_Svc_Handler+0xa40>
8014b620:	e596300c 	ldr	r3, [r6, #12]
8014b624:	e0838288 	add	r8, r3, r8, lsl #5
8014b628:	e1a00008 	mov	r0, r8
8014b62c:	ebfff433 	bl	80148700 <__RME_A7A_Read_Acquire>
8014b630:	e7e73850 	ubfx	r3, r0, #16, #8
8014b634:	e3530002 	cmp	r3, #2
8014b638:	0a0003cd 	beq	8014c574 <_RME_Svc_Handler+0x10d4>
8014b63c:	e1a00c20 	lsr	r0, r0, #24
8014b640:	e3500006 	cmp	r0, #6
8014b644:	1a0002b5 	bne	8014c120 <_RME_Svc_Handler+0xc80>
8014b648:	e5983008 	ldr	r3, [r8, #8]
8014b64c:	e3130c01 	tst	r3, #256	; 0x100
8014b650:	0a000240 	beq	8014bf58 <_RME_Svc_Handler+0xab8>
8014b654:	e598600c 	ldr	r6, [r8, #12]
8014b658:	e5963014 	ldr	r3, [r6, #20]
8014b65c:	e1530004 	cmp	r3, r4
8014b660:	1a0002eb 	bne	8014c214 <_RME_Svc_Handler+0xd74>
8014b664:	e5972020 	ldr	r2, [r7, #32]
8014b668:	e5963020 	ldr	r3, [r6, #32]
8014b66c:	e1520003 	cmp	r2, r3
8014b670:	1a00035c 	bne	8014c3e8 <_RME_Svc_Handler+0xf48>
8014b674:	e596301c 	ldr	r3, [r6, #28]
8014b678:	e2433001 	sub	r3, r3, #1
8014b67c:	e3530002 	cmp	r3, #2
8014b680:	9a0002e3 	bls	8014c214 <_RME_Svc_Handler+0xd74>
8014b684:	e3590000 	cmp	r9, #0
8014b688:	0a000002 	beq	8014b698 <_RME_Svc_Handler+0x1f8>
8014b68c:	e5973018 	ldr	r3, [r7, #24]
8014b690:	e373010e 	cmn	r3, #-2147483645	; 0x80000003
8014b694:	9a0002a3 	bls	8014c128 <_RME_Svc_Handler+0xc88>
8014b698:	e3a01000 	mov	r1, #0
8014b69c:	e1a00005 	mov	r0, r5
8014b6a0:	eb000915 	bl	8014dafc <__RME_Svc_Retval_Set>
8014b6a4:	e596301c 	ldr	r3, [r6, #28]
8014b6a8:	e3530000 	cmp	r3, #0
8014b6ac:	1a0002b6 	bne	8014c18c <_RME_Svc_Handler+0xcec>
8014b6b0:	e1570006 	cmp	r7, r6
8014b6b4:	0affffa0 	beq	8014b53c <_RME_Svc_Handler+0x9c>
8014b6b8:	e1a02006 	mov	r2, r6
8014b6bc:	e1a01007 	mov	r1, r7
8014b6c0:	e1a00005 	mov	r0, r5
8014b6c4:	ebfff9be 	bl	80149dc4 <_RME_Run_Swt.isra.0>
8014b6c8:	e5846004 	str	r6, [r4, #4]
8014b6cc:	eaffff9a 	b	8014b53c <_RME_Svc_Handler+0x9c>
8014b6d0:	e59d7038 	ldr	r7, [sp, #56]	; 0x38
8014b6d4:	e596300c 	ldr	r3, [r6, #12]
8014b6d8:	e5962014 	ldr	r2, [r6, #20]
8014b6dc:	e3170080 	tst	r7, #128	; 0x80
8014b6e0:	0a0001bc 	beq	8014bdd8 <_RME_Svc_Handler+0x938>
8014b6e4:	e1a06427 	lsr	r6, r7, #8
8014b6e8:	e1520006 	cmp	r2, r6
8014b6ec:	9a0001fb 	bls	8014bee0 <_RME_Svc_Handler+0xa40>
8014b6f0:	e0836286 	add	r6, r3, r6, lsl #5
8014b6f4:	e1a00006 	mov	r0, r6
8014b6f8:	ebfff400 	bl	80148700 <__RME_A7A_Read_Acquire>
8014b6fc:	e7e73850 	ubfx	r3, r0, #16, #8
8014b700:	e3530002 	cmp	r3, #2
8014b704:	0a00039a 	beq	8014c574 <_RME_Svc_Handler+0x10d4>
8014b708:	e1a00c20 	lsr	r0, r0, #24
8014b70c:	e3500003 	cmp	r0, #3
8014b710:	1a000282 	bne	8014c120 <_RME_Svc_Handler+0xc80>
8014b714:	e5962014 	ldr	r2, [r6, #20]
8014b718:	e207307f 	and	r3, r7, #127	; 0x7f
8014b71c:	e1530002 	cmp	r3, r2
8014b720:	2a0001ee 	bcs	8014bee0 <_RME_Svc_Handler+0xa40>
8014b724:	e596600c 	ldr	r6, [r6, #12]
8014b728:	e0866283 	add	r6, r6, r3, lsl #5
8014b72c:	e1a00006 	mov	r0, r6
8014b730:	ebfff3f2 	bl	80148700 <__RME_A7A_Read_Acquire>
8014b734:	e7e73850 	ubfx	r3, r0, #16, #8
8014b738:	e3530002 	cmp	r3, #2
8014b73c:	0a00038c 	beq	8014c574 <_RME_Svc_Handler+0x10d4>
8014b740:	e1a00c20 	lsr	r0, r0, #24
8014b744:	e3500008 	cmp	r0, #8
8014b748:	1a000274 	bne	8014c120 <_RME_Svc_Handler+0xc80>
8014b74c:	e5963008 	ldr	r3, [r6, #8]
8014b750:	e3130001 	tst	r3, #1
8014b754:	0a0001ff 	beq	8014bf58 <_RME_Svc_Handler+0xab8>
8014b758:	e1d630b0 	ldrh	r3, [r6]
8014b75c:	e3530000 	cmp	r3, #0
8014b760:	15966004 	ldrne	r6, [r6, #4]
8014b764:	e5967018 	ldr	r7, [r6, #24]
8014b768:	e3570000 	cmp	r7, #0
8014b76c:	0a000002 	beq	8014b77c <_RME_Svc_Handler+0x2dc>
8014b770:	e5973014 	ldr	r3, [r7, #20]
8014b774:	e1530004 	cmp	r3, r4
8014b778:	0a00032f 	beq	8014c43c <_RME_Svc_Handler+0xf9c>
8014b77c:	e5963014 	ldr	r3, [r6, #20]
8014b780:	e373010a 	cmn	r3, #-2147483646	; 0x80000002
8014b784:	e2833001 	add	r3, r3, #1
8014b788:	e5863014 	str	r3, [r6, #20]
8014b78c:	8a000399 	bhi	8014c5f8 <_RME_Svc_Handler+0x1158>
8014b790:	e3a01000 	mov	r1, #0
8014b794:	e1a00005 	mov	r0, r5
8014b798:	eb0008d7 	bl	8014dafc <__RME_Svc_Retval_Set>
8014b79c:	eaffff66 	b	8014b53c <_RME_Svc_Handler+0x9c>
8014b7a0:	e59d7038 	ldr	r7, [sp, #56]	; 0x38
8014b7a4:	e59d803c 	ldr	r8, [sp, #60]	; 0x3c
8014b7a8:	e596300c 	ldr	r3, [r6, #12]
8014b7ac:	e3170080 	tst	r7, #128	; 0x80
8014b7b0:	e5962014 	ldr	r2, [r6, #20]
8014b7b4:	1a0001b1 	bne	8014be80 <_RME_Svc_Handler+0x9e0>
8014b7b8:	e1570002 	cmp	r7, r2
8014b7bc:	2a0001c7 	bcs	8014bee0 <_RME_Svc_Handler+0xa40>
8014b7c0:	e0836287 	add	r6, r3, r7, lsl #5
8014b7c4:	e1a00006 	mov	r0, r6
8014b7c8:	ebfff3cc 	bl	80148700 <__RME_A7A_Read_Acquire>
8014b7cc:	e7e73850 	ubfx	r3, r0, #16, #8
8014b7d0:	e3530002 	cmp	r3, #2
8014b7d4:	0a000366 	beq	8014c574 <_RME_Svc_Handler+0x10d4>
8014b7d8:	e1a00c20 	lsr	r0, r0, #24
8014b7dc:	e3500008 	cmp	r0, #8
8014b7e0:	1a00024e 	bne	8014c120 <_RME_Svc_Handler+0xc80>
8014b7e4:	e3580003 	cmp	r8, #3
8014b7e8:	979ff108 	ldrls	pc, [pc, r8, lsl #2]
8014b7ec:	eaffff7e 	b	8014b5ec <_RME_Svc_Handler+0x14c>
8014b7f0:	8014bf70 	.word	0x8014bf70
8014b7f4:	8014bf60 	.word	0x8014bf60
8014b7f8:	8014bf4c 	.word	0x8014bf4c
8014b7fc:	8014bee8 	.word	0x8014bee8
8014b800:	e59d4034 	ldr	r4, [sp, #52]	; 0x34
8014b804:	e59d9038 	ldr	r9, [sp, #56]	; 0x38
8014b808:	e59d703c 	ldr	r7, [sp, #60]	; 0x3c
8014b80c:	e3140080 	tst	r4, #128	; 0x80
8014b810:	e59d8040 	ldr	r8, [sp, #64]	; 0x40
8014b814:	e6ffa079 	uxth	sl, r9
8014b818:	e1a09829 	lsr	r9, r9, #16
8014b81c:	1a000182 	bne	8014be2c <_RME_Svc_Handler+0x98c>
8014b820:	e5963014 	ldr	r3, [r6, #20]
8014b824:	e1540003 	cmp	r4, r3
8014b828:	3596100c 	ldrcc	r1, [r6, #12]
8014b82c:	30814284 	addcc	r4, r1, r4, lsl #5
8014b830:	2a0001aa 	bcs	8014bee0 <_RME_Svc_Handler+0xa40>
8014b834:	e1a00004 	mov	r0, r4
8014b838:	ebfff3b0 	bl	80148700 <__RME_A7A_Read_Acquire>
8014b83c:	e7e73850 	ubfx	r3, r0, #16, #8
8014b840:	e3530002 	cmp	r3, #2
8014b844:	0a00034a 	beq	8014c574 <_RME_Svc_Handler+0x10d4>
8014b848:	e1a00c20 	lsr	r0, r0, #24
8014b84c:	e3500001 	cmp	r0, #1
8014b850:	1a000232 	bne	8014c120 <_RME_Svc_Handler+0xc80>
8014b854:	e5941008 	ldr	r1, [r4, #8]
8014b858:	e15a0821 	cmp	sl, r1, lsr #16
8014b85c:	8a0001bd 	bhi	8014bf58 <_RME_Svc_Handler+0xab8>
8014b860:	e6ff1071 	uxth	r1, r1
8014b864:	e15a0001 	cmp	sl, r1
8014b868:	3a0001ba 	bcc	8014bf58 <_RME_Svc_Handler+0xab8>
8014b86c:	e58d8004 	str	r8, [sp, #4]
8014b870:	e1a01005 	mov	r1, r5
8014b874:	e58d7000 	str	r7, [sp]
8014b878:	e1a03009 	mov	r3, r9
8014b87c:	e1a0200a 	mov	r2, sl
8014b880:	e1a00006 	mov	r0, r6
8014b884:	eb0008d0 	bl	8014dbcc <__RME_Kfn_Handler>
8014b888:	e2501000 	subs	r1, r0, #0
8014b88c:	aaffff2a 	bge	8014b53c <_RME_Svc_Handler+0x9c>
8014b890:	eaffff56 	b	8014b5f0 <_RME_Svc_Handler+0x150>
8014b894:	e59d8038 	ldr	r8, [sp, #56]	; 0x38
8014b898:	e596200c 	ldr	r2, [r6, #12]
8014b89c:	e5963014 	ldr	r3, [r6, #20]
8014b8a0:	e3180080 	tst	r8, #128	; 0x80
8014b8a4:	0a000147 	beq	8014bdc8 <_RME_Svc_Handler+0x928>
8014b8a8:	e1a07428 	lsr	r7, r8, #8
8014b8ac:	e1530007 	cmp	r3, r7
8014b8b0:	9a00018a 	bls	8014bee0 <_RME_Svc_Handler+0xa40>
8014b8b4:	e0827287 	add	r7, r2, r7, lsl #5
8014b8b8:	e1a00007 	mov	r0, r7
8014b8bc:	ebfff38f 	bl	80148700 <__RME_A7A_Read_Acquire>
8014b8c0:	e7e73850 	ubfx	r3, r0, #16, #8
8014b8c4:	e3530002 	cmp	r3, #2
8014b8c8:	0a000329 	beq	8014c574 <_RME_Svc_Handler+0x10d4>
8014b8cc:	e1a00c20 	lsr	r0, r0, #24
8014b8d0:	e3500003 	cmp	r0, #3
8014b8d4:	1a000211 	bne	8014c120 <_RME_Svc_Handler+0xc80>
8014b8d8:	e5972014 	ldr	r2, [r7, #20]
8014b8dc:	e208307f 	and	r3, r8, #127	; 0x7f
8014b8e0:	e1530002 	cmp	r3, r2
8014b8e4:	2a00017d 	bcs	8014bee0 <_RME_Svc_Handler+0xa40>
8014b8e8:	e597600c 	ldr	r6, [r7, #12]
8014b8ec:	e0866283 	add	r6, r6, r3, lsl #5
8014b8f0:	e1a00006 	mov	r0, r6
8014b8f4:	ebfff381 	bl	80148700 <__RME_A7A_Read_Acquire>
8014b8f8:	e7e73850 	ubfx	r3, r0, #16, #8
8014b8fc:	e3530002 	cmp	r3, #2
8014b900:	0a00031b 	beq	8014c574 <_RME_Svc_Handler+0x10d4>
8014b904:	e1a00c20 	lsr	r0, r0, #24
8014b908:	e3500006 	cmp	r0, #6
8014b90c:	1a000203 	bne	8014c120 <_RME_Svc_Handler+0xc80>
8014b910:	e5963008 	ldr	r3, [r6, #8]
8014b914:	e3130010 	tst	r3, #16
8014b918:	0a00018e 	beq	8014bf58 <_RME_Svc_Handler+0xab8>
8014b91c:	e596600c 	ldr	r6, [r6, #12]
8014b920:	e5963014 	ldr	r3, [r6, #20]
8014b924:	e1530004 	cmp	r3, r4
8014b928:	1a000239 	bne	8014c214 <_RME_Svc_Handler+0xd74>
8014b92c:	e5963030 	ldr	r3, [r6, #48]	; 0x30
8014b930:	e3530000 	cmp	r3, #0
8014b934:	1a000335 	bne	8014c610 <_RME_Svc_Handler+0x1170>
8014b938:	e5962034 	ldr	r2, [r6, #52]	; 0x34
8014b93c:	e5923030 	ldr	r3, [r2, #48]	; 0x30
8014b940:	e2433001 	sub	r3, r3, #1
8014b944:	e5823030 	str	r3, [r2, #48]	; 0x30
8014b948:	e1a03006 	mov	r3, r6
8014b94c:	e5b32008 	ldr	r2, [r3, #8]!
8014b950:	e1520003 	cmp	r2, r3
8014b954:	0a000004 	beq	8014b96c <_RME_Svc_Handler+0x4cc>
8014b958:	ee803b90 	vdup.32	d16, r3
8014b95c:	e596100c 	ldr	r1, [r6, #12]
8014b960:	e5821004 	str	r1, [r2, #4]
8014b964:	e5812000 	str	r2, [r1]
8014b968:	f443078f 	vst1.32	{d16}, [r3]
8014b96c:	e5963038 	ldr	r3, [r6, #56]	; 0x38
8014b970:	e3a01000 	mov	r1, #0
8014b974:	e1a00005 	mov	r0, r5
8014b978:	e3530000 	cmp	r3, #0
8014b97c:	15932004 	ldrne	r2, [r3, #4]
8014b980:	12422001 	subne	r2, r2, #1
8014b984:	15832004 	strne	r2, [r3, #4]
8014b988:	eb00085b 	bl	8014dafc <__RME_Svc_Retval_Set>
8014b98c:	e596301c 	ldr	r3, [r6, #28]
8014b990:	e3530000 	cmp	r3, #0
8014b994:	0a0001a6 	beq	8014c034 <_RME_Svc_Handler+0xb94>
8014b998:	e3530001 	cmp	r3, #1
8014b99c:	0a000293 	beq	8014c3f0 <_RME_Svc_Handler+0xf50>
8014b9a0:	e5943004 	ldr	r3, [r4, #4]
8014b9a4:	e3a02000 	mov	r2, #0
8014b9a8:	e5862018 	str	r2, [r6, #24]
8014b9ac:	e1560003 	cmp	r6, r3
8014b9b0:	0a0001a4 	beq	8014c048 <_RME_Svc_Handler+0xba8>
8014b9b4:	e3e01000 	mvn	r1, #0
8014b9b8:	e2860014 	add	r0, r6, #20
8014b9bc:	ebfff352 	bl	8014870c <__RME_A7A_Write_Release>
8014b9c0:	eafffedd 	b	8014b53c <_RME_Svc_Handler+0x9c>
8014b9c4:	e59da034 	ldr	sl, [sp, #52]	; 0x34
8014b9c8:	e28d7038 	add	r7, sp, #56	; 0x38
8014b9cc:	e596300c 	ldr	r3, [r6, #12]
8014b9d0:	e5962014 	ldr	r2, [r6, #20]
8014b9d4:	e31a0080 	tst	sl, #128	; 0x80
8014b9d8:	e8970380 	ldm	r7, {r7, r8, r9}
8014b9dc:	0a0000f5 	beq	8014bdb8 <_RME_Svc_Handler+0x918>
8014b9e0:	e1a0642a 	lsr	r6, sl, #8
8014b9e4:	e1520006 	cmp	r2, r6
8014b9e8:	9a00013c 	bls	8014bee0 <_RME_Svc_Handler+0xa40>
8014b9ec:	e0836286 	add	r6, r3, r6, lsl #5
8014b9f0:	e1a00006 	mov	r0, r6
8014b9f4:	ebfff341 	bl	80148700 <__RME_A7A_Read_Acquire>
8014b9f8:	e7e73850 	ubfx	r3, r0, #16, #8
8014b9fc:	e3530002 	cmp	r3, #2
8014ba00:	0a0002db 	beq	8014c574 <_RME_Svc_Handler+0x10d4>
8014ba04:	e1a00c20 	lsr	r0, r0, #24
8014ba08:	e3500003 	cmp	r0, #3
8014ba0c:	1a0001c3 	bne	8014c120 <_RME_Svc_Handler+0xc80>
8014ba10:	e5962014 	ldr	r2, [r6, #20]
8014ba14:	e20a307f 	and	r3, sl, #127	; 0x7f
8014ba18:	e1530002 	cmp	r3, r2
8014ba1c:	2a00012f 	bcs	8014bee0 <_RME_Svc_Handler+0xa40>
8014ba20:	e596a00c 	ldr	sl, [r6, #12]
8014ba24:	e08aa283 	add	sl, sl, r3, lsl #5
8014ba28:	e1a0000a 	mov	r0, sl
8014ba2c:	ebfff333 	bl	80148700 <__RME_A7A_Read_Acquire>
8014ba30:	e7e73850 	ubfx	r3, r0, #16, #8
8014ba34:	e3530002 	cmp	r3, #2
8014ba38:	0a0002cd 	beq	8014c574 <_RME_Svc_Handler+0x10d4>
8014ba3c:	e1a00c20 	lsr	r0, r0, #24
8014ba40:	e3500006 	cmp	r0, #6
8014ba44:	1a0001b5 	bne	8014c120 <_RME_Svc_Handler+0xc80>
8014ba48:	e59a3008 	ldr	r3, [sl, #8]
8014ba4c:	e3130001 	tst	r3, #1
8014ba50:	0a000140 	beq	8014bf58 <_RME_Svc_Handler+0xab8>
8014ba54:	e59a600c 	ldr	r6, [sl, #12]
8014ba58:	e5963014 	ldr	r3, [r6, #20]
8014ba5c:	e1530004 	cmp	r3, r4
8014ba60:	1a0001eb 	bne	8014c214 <_RME_Svc_Handler+0xd74>
8014ba64:	e3570000 	cmp	r7, #0
8014ba68:	13580000 	cmpne	r8, #0
8014ba6c:	1a000167 	bne	8014c010 <_RME_Svc_Handler+0xb70>
8014ba70:	e3a01000 	mov	r1, #0
8014ba74:	e1a00005 	mov	r0, r5
8014ba78:	eb00081f 	bl	8014dafc <__RME_Svc_Retval_Set>
8014ba7c:	e596301c 	ldr	r3, [r6, #28]
8014ba80:	e3530003 	cmp	r3, #3
8014ba84:	1afffeac 	bne	8014b53c <_RME_Svc_Handler+0x9c>
8014ba88:	e5963018 	ldr	r3, [r6, #24]
8014ba8c:	e3530000 	cmp	r3, #0
8014ba90:	0a000220 	beq	8014c318 <_RME_Svc_Handler+0xe78>
8014ba94:	e3a03000 	mov	r3, #0
8014ba98:	e1a00006 	mov	r0, r6
8014ba9c:	e586301c 	str	r3, [r6, #28]
8014baa0:	ebfff8aa 	bl	80149d50 <_RME_Run_Ins>
8014baa4:	e30e1000 	movw	r1, #57344	; 0xe000
8014baa8:	e1a00005 	mov	r0, r5
8014baac:	e3481094 	movt	r1, #32916	; 0x8094
8014bab0:	ebfffe42 	bl	8014b3c0 <_RME_Kern_High>
8014bab4:	eafffea0 	b	8014b53c <_RME_Svc_Handler+0x9c>
8014bab8:	e59dc034 	ldr	ip, [sp, #52]	; 0x34
8014babc:	e1cd23dc 	ldrd	r2, [sp, #60]	; 0x3c
8014bac0:	e59da038 	ldr	sl, [sp, #56]	; 0x38
8014bac4:	e24c1001 	sub	r1, ip, #1
8014bac8:	e58dc020 	str	ip, [sp, #32]
8014bacc:	e3510002 	cmp	r1, #2
8014bad0:	e1a07822 	lsr	r7, r2, #16
8014bad4:	e6ff1072 	uxth	r1, r2
8014bad8:	e1a0e82a 	lsr	lr, sl, #16
8014badc:	e6ff2073 	uxth	r2, r3
8014bae0:	e1a03823 	lsr	r3, r3, #16
8014bae4:	e6ff007a 	uxth	r0, sl
8014bae8:	e58de024 	str	lr, [sp, #36]	; 0x24
8014baec:	e58d7028 	str	r7, [sp, #40]	; 0x28
8014baf0:	e58d302c 	str	r3, [sp, #44]	; 0x2c
8014baf4:	8a0001c6 	bhi	8014c214 <_RME_Svc_Handler+0xd74>
8014baf8:	e58d7054 	str	r7, [sp, #84]	; 0x54
8014bafc:	e28da044 	add	sl, sp, #68	; 0x44
8014bb00:	e58d204c 	str	r2, [sp, #76]	; 0x4c
8014bb04:	e28d8050 	add	r8, sp, #80	; 0x50
8014bb08:	e58de050 	str	lr, [sp, #80]	; 0x50
8014bb0c:	e28d705c 	add	r7, sp, #92	; 0x5c
8014bb10:	e08a910c 	add	r9, sl, ip, lsl #2
8014bb14:	e1cd04f4 	strd	r0, [sp, #68]	; 0x44
8014bb18:	e58d3058 	str	r3, [sp, #88]	; 0x58
8014bb1c:	e58d501c 	str	r5, [sp, #28]
8014bb20:	ea00001a 	b	8014bb90 <_RME_Svc_Handler+0x6f0>
8014bb24:	e5963014 	ldr	r3, [r6, #20]
8014bb28:	e15b0003 	cmp	fp, r3
8014bb2c:	2a0001f1 	bcs	8014c2f8 <_RME_Svc_Handler+0xe58>
8014bb30:	e596300c 	ldr	r3, [r6, #12]
8014bb34:	e083b28b 	add	fp, r3, fp, lsl #5
8014bb38:	e1a0000b 	mov	r0, fp
8014bb3c:	ebfff2ef 	bl	80148700 <__RME_A7A_Read_Acquire>
8014bb40:	e7e73850 	ubfx	r3, r0, #16, #8
8014bb44:	e3530002 	cmp	r3, #2
8014bb48:	0a0001ec 	beq	8014c300 <_RME_Svc_Handler+0xe60>
8014bb4c:	e1a00c20 	lsr	r0, r0, #24
8014bb50:	e3500006 	cmp	r0, #6
8014bb54:	1a0001ec 	bne	8014c30c <_RME_Svc_Handler+0xe6c>
8014bb58:	e59b3008 	ldr	r3, [fp, #8]
8014bb5c:	e3130008 	tst	r3, #8
8014bb60:	0a000249 	beq	8014c48c <_RME_Svc_Handler+0xfec>
8014bb64:	e59b300c 	ldr	r3, [fp, #12]
8014bb68:	e5932014 	ldr	r2, [r3, #20]
8014bb6c:	e4873004 	str	r3, [r7], #4
8014bb70:	e1520004 	cmp	r2, r4
8014bb74:	1a0001a5 	bne	8014c210 <_RME_Svc_Handler+0xd70>
8014bb78:	e5932024 	ldr	r2, [r3, #36]	; 0x24
8014bb7c:	e4983004 	ldr	r3, [r8], #4
8014bb80:	e1520003 	cmp	r2, r3
8014bb84:	3a000216 	bcc	8014c3e4 <_RME_Svc_Handler+0xf44>
8014bb88:	e159000a 	cmp	r9, sl
8014bb8c:	0a0001f1 	beq	8014c358 <_RME_Svc_Handler+0xeb8>
8014bb90:	e49ab004 	ldr	fp, [sl], #4
8014bb94:	e31b0080 	tst	fp, #128	; 0x80
8014bb98:	0affffe1 	beq	8014bb24 <_RME_Svc_Handler+0x684>
8014bb9c:	e5962014 	ldr	r2, [r6, #20]
8014bba0:	e1a0342b 	lsr	r3, fp, #8
8014bba4:	e1530002 	cmp	r3, r2
8014bba8:	2a0001d2 	bcs	8014c2f8 <_RME_Svc_Handler+0xe58>
8014bbac:	e596200c 	ldr	r2, [r6, #12]
8014bbb0:	e0825283 	add	r5, r2, r3, lsl #5
8014bbb4:	e1a00005 	mov	r0, r5
8014bbb8:	ebfff2d0 	bl	80148700 <__RME_A7A_Read_Acquire>
8014bbbc:	e7e72850 	ubfx	r2, r0, #16, #8
8014bbc0:	e3520002 	cmp	r2, #2
8014bbc4:	0a0001cd 	beq	8014c300 <_RME_Svc_Handler+0xe60>
8014bbc8:	e1a00c20 	lsr	r0, r0, #24
8014bbcc:	e3500003 	cmp	r0, #3
8014bbd0:	1a0001cd 	bne	8014c30c <_RME_Svc_Handler+0xe6c>
8014bbd4:	e5952014 	ldr	r2, [r5, #20]
8014bbd8:	e20bb07f 	and	fp, fp, #127	; 0x7f
8014bbdc:	e15b0002 	cmp	fp, r2
8014bbe0:	2a0001c4 	bcs	8014c2f8 <_RME_Svc_Handler+0xe58>
8014bbe4:	e595300c 	ldr	r3, [r5, #12]
8014bbe8:	eaffffd1 	b	8014bb34 <_RME_Svc_Handler+0x694>
8014bbec:	e59d7040 	ldr	r7, [sp, #64]	; 0x40
8014bbf0:	e1cd83d8 	ldrd	r8, [sp, #56]	; 0x38
8014bbf4:	e3570000 	cmp	r7, #0
8014bbf8:	0a000185 	beq	8014c214 <_RME_Svc_Handler+0xd74>
8014bbfc:	e3180080 	tst	r8, #128	; 0x80
8014bc00:	0a0000b1 	beq	8014becc <_RME_Svc_Handler+0xa2c>
8014bc04:	e5962014 	ldr	r2, [r6, #20]
8014bc08:	e1a03428 	lsr	r3, r8, #8
8014bc0c:	e1530002 	cmp	r3, r2
8014bc10:	2a0000b2 	bcs	8014bee0 <_RME_Svc_Handler+0xa40>
8014bc14:	e596a00c 	ldr	sl, [r6, #12]
8014bc18:	e08aa283 	add	sl, sl, r3, lsl #5
8014bc1c:	e1a0000a 	mov	r0, sl
8014bc20:	ebfff2b6 	bl	80148700 <__RME_A7A_Read_Acquire>
8014bc24:	e7e73850 	ubfx	r3, r0, #16, #8
8014bc28:	e3530002 	cmp	r3, #2
8014bc2c:	0a000250 	beq	8014c574 <_RME_Svc_Handler+0x10d4>
8014bc30:	e1a00c20 	lsr	r0, r0, #24
8014bc34:	e3500003 	cmp	r0, #3
8014bc38:	1a000138 	bne	8014c120 <_RME_Svc_Handler+0xc80>
8014bc3c:	e59a2014 	ldr	r2, [sl, #20]
8014bc40:	e208307f 	and	r3, r8, #127	; 0x7f
8014bc44:	e1530002 	cmp	r3, r2
8014bc48:	2a0000a4 	bcs	8014bee0 <_RME_Svc_Handler+0xa40>
8014bc4c:	e59a800c 	ldr	r8, [sl, #12]
8014bc50:	e0888283 	add	r8, r8, r3, lsl #5
8014bc54:	e1a00008 	mov	r0, r8
8014bc58:	ebfff2a8 	bl	80148700 <__RME_A7A_Read_Acquire>
8014bc5c:	e7e73850 	ubfx	r3, r0, #16, #8
8014bc60:	e3530002 	cmp	r3, #2
8014bc64:	0a000242 	beq	8014c574 <_RME_Svc_Handler+0x10d4>
8014bc68:	e1a00c20 	lsr	r0, r0, #24
8014bc6c:	e3500006 	cmp	r0, #6
8014bc70:	1a00012a 	bne	8014c120 <_RME_Svc_Handler+0xc80>
8014bc74:	e3190080 	tst	r9, #128	; 0x80
8014bc78:	1a0000c0 	bne	8014bf80 <_RME_Svc_Handler+0xae0>
8014bc7c:	e5963014 	ldr	r3, [r6, #20]
8014bc80:	e1590003 	cmp	r9, r3
8014bc84:	2a000095 	bcs	8014bee0 <_RME_Svc_Handler+0xa40>
8014bc88:	e596200c 	ldr	r2, [r6, #12]
8014bc8c:	e0826289 	add	r6, r2, r9, lsl #5
8014bc90:	e1a00006 	mov	r0, r6
8014bc94:	ebfff299 	bl	80148700 <__RME_A7A_Read_Acquire>
8014bc98:	e7e73850 	ubfx	r3, r0, #16, #8
8014bc9c:	e3530002 	cmp	r3, #2
8014bca0:	0a000233 	beq	8014c574 <_RME_Svc_Handler+0x10d4>
8014bca4:	e1a00c20 	lsr	r0, r0, #24
8014bca8:	e3500006 	cmp	r0, #6
8014bcac:	1a00011b 	bne	8014c120 <_RME_Svc_Handler+0xc80>
8014bcb0:	e5983008 	ldr	r3, [r8, #8]
8014bcb4:	e3130080 	tst	r3, #128	; 0x80
8014bcb8:	0a0000a6 	beq	8014bf58 <_RME_Svc_Handler+0xab8>
8014bcbc:	e5963008 	ldr	r3, [r6, #8]
8014bcc0:	e3130040 	tst	r3, #64	; 0x40
8014bcc4:	0a0000a3 	beq	8014bf58 <_RME_Svc_Handler+0xab8>
8014bcc8:	e596600c 	ldr	r6, [r6, #12]
8014bccc:	e5963014 	ldr	r3, [r6, #20]
8014bcd0:	e1530004 	cmp	r3, r4
8014bcd4:	1a00014e 	bne	8014c214 <_RME_Svc_Handler+0xd74>
8014bcd8:	e5963018 	ldr	r3, [r6, #24]
8014bcdc:	e3530000 	cmp	r3, #0
8014bce0:	0a00014b 	beq	8014c214 <_RME_Svc_Handler+0xd74>
8014bce4:	e598800c 	ldr	r8, [r8, #12]
8014bce8:	e5982014 	ldr	r2, [r8, #20]
8014bcec:	e1520004 	cmp	r2, r4
8014bcf0:	1a000147 	bne	8014c214 <_RME_Svc_Handler+0xd74>
8014bcf4:	e5961024 	ldr	r1, [r6, #36]	; 0x24
8014bcf8:	e5982024 	ldr	r2, [r8, #36]	; 0x24
8014bcfc:	e1510002 	cmp	r1, r2
8014bd00:	2a000002 	bcs	8014bd10 <_RME_Svc_Handler+0x870>
8014bd04:	e5982018 	ldr	r2, [r8, #24]
8014bd08:	e3720106 	cmn	r2, #-2147483647	; 0x80000001
8014bd0c:	1a0001b5 	bne	8014c3e8 <_RME_Svc_Handler+0xf48>
8014bd10:	e373010e 	cmn	r3, #-2147483645	; 0x80000003
8014bd14:	8a0000ae 	bhi	8014bfd4 <_RME_Svc_Handler+0xb34>
8014bd18:	e377010e 	cmn	r7, #-2147483645	; 0x80000003
8014bd1c:	81a07003 	movhi	r7, r3
8014bd20:	8a000001 	bhi	8014bd2c <_RME_Svc_Handler+0x88c>
8014bd24:	e1570003 	cmp	r7, r3
8014bd28:	21a07003 	movcs	r7, r3
8014bd2c:	e5982018 	ldr	r2, [r8, #24]
8014bd30:	e372010e 	cmn	r2, #-2147483645	; 0x80000003
8014bd34:	8a000009 	bhi	8014bd60 <_RME_Svc_Handler+0x8c0>
8014bd38:	e0922007 	adds	r2, r2, r7
8014bd3c:	23a03001 	movcs	r3, #1
8014bd40:	33a03000 	movcc	r3, #0
8014bd44:	e372010e 	cmn	r2, #-2147483645	; 0x80000003
8014bd48:	93a01000 	movls	r1, #0
8014bd4c:	83a01001 	movhi	r1, #1
8014bd50:	e1913003 	orrs	r3, r1, r3
8014bd54:	1a00022f 	bne	8014c618 <_RME_Svc_Handler+0x1178>
8014bd58:	e5882018 	str	r2, [r8, #24]
8014bd5c:	e5963018 	ldr	r3, [r6, #24]
8014bd60:	e0433007 	sub	r3, r3, r7
8014bd64:	e5863018 	str	r3, [r6, #24]
8014bd68:	e3530000 	cmp	r3, #0
8014bd6c:	1a000002 	bne	8014bd7c <_RME_Svc_Handler+0x8dc>
8014bd70:	e596301c 	ldr	r3, [r6, #28]
8014bd74:	e3530000 	cmp	r3, #0
8014bd78:	0a00016f 	beq	8014c33c <_RME_Svc_Handler+0xe9c>
8014bd7c:	e5981018 	ldr	r1, [r8, #24]
8014bd80:	e1a00005 	mov	r0, r5
8014bd84:	eb00075c 	bl	8014dafc <__RME_Svc_Retval_Set>
8014bd88:	e598301c 	ldr	r3, [r8, #28]
8014bd8c:	e3530002 	cmp	r3, #2
8014bd90:	1affff43 	bne	8014baa4 <_RME_Svc_Handler+0x604>
8014bd94:	e3a03000 	mov	r3, #0
8014bd98:	e1a00008 	mov	r0, r8
8014bd9c:	e588301c 	str	r3, [r8, #28]
8014bda0:	ebfff7ea 	bl	80149d50 <_RME_Run_Ins>
8014bda4:	eaffff3e 	b	8014baa4 <_RME_Svc_Handler+0x604>
8014bda8:	e1590003 	cmp	r9, r3
8014bdac:	2a00004b 	bcs	8014bee0 <_RME_Svc_Handler+0xa40>
8014bdb0:	e0826289 	add	r6, r2, r9, lsl #5
8014bdb4:	eafffdfa 	b	8014b5a4 <_RME_Svc_Handler+0x104>
8014bdb8:	e15a0002 	cmp	sl, r2
8014bdbc:	2a000047 	bcs	8014bee0 <_RME_Svc_Handler+0xa40>
8014bdc0:	e083a28a 	add	sl, r3, sl, lsl #5
8014bdc4:	eaffff17 	b	8014ba28 <_RME_Svc_Handler+0x588>
8014bdc8:	e1580003 	cmp	r8, r3
8014bdcc:	2a000043 	bcs	8014bee0 <_RME_Svc_Handler+0xa40>
8014bdd0:	e0826288 	add	r6, r2, r8, lsl #5
8014bdd4:	eafffec5 	b	8014b8f0 <_RME_Svc_Handler+0x450>
8014bdd8:	e1570002 	cmp	r7, r2
8014bddc:	2a00003f 	bcs	8014bee0 <_RME_Svc_Handler+0xa40>
8014bde0:	e0836287 	add	r6, r3, r7, lsl #5
8014bde4:	eafffe50 	b	8014b72c <_RME_Svc_Handler+0x28c>
8014bde8:	e3590000 	cmp	r9, #0
8014bdec:	0a000002 	beq	8014bdfc <_RME_Svc_Handler+0x95c>
8014bdf0:	e5973018 	ldr	r3, [r7, #24]
8014bdf4:	e373010e 	cmn	r3, #-2147483645	; 0x80000003
8014bdf8:	9a0001a6 	bls	8014c498 <_RME_Svc_Handler+0xff8>
8014bdfc:	e597301c 	ldr	r3, [r7, #28]
8014be00:	e3530000 	cmp	r3, #0
8014be04:	0a000126 	beq	8014c2a4 <_RME_Svc_Handler+0xe04>
8014be08:	e30d3d80 	movw	r3, #56704	; 0xdd80
8014be0c:	e30d2d8c 	movw	r2, #56716	; 0xdd8c
8014be10:	e3483014 	movt	r3, #32788	; 0x8014
8014be14:	e30d0d98 	movw	r0, #56728	; 0xdd98
8014be18:	e3482014 	movt	r2, #32788	; 0x8014
8014be1c:	e3011a15 	movw	r1, #6677	; 0x1a15
8014be20:	e3480014 	movt	r0, #32788	; 0x8014
8014be24:	ebfff5e5 	bl	801495c0 <RME_Log>
8014be28:	eafffffe 	b	8014be28 <_RME_Svc_Handler+0x988>
8014be2c:	e5962014 	ldr	r2, [r6, #20]
8014be30:	e1a03424 	lsr	r3, r4, #8
8014be34:	e1530002 	cmp	r3, r2
8014be38:	2a000028 	bcs	8014bee0 <_RME_Svc_Handler+0xa40>
8014be3c:	e596b00c 	ldr	fp, [r6, #12]
8014be40:	e08bb283 	add	fp, fp, r3, lsl #5
8014be44:	e1a0000b 	mov	r0, fp
8014be48:	ebfff22c 	bl	80148700 <__RME_A7A_Read_Acquire>
8014be4c:	e7e73850 	ubfx	r3, r0, #16, #8
8014be50:	e3530002 	cmp	r3, #2
8014be54:	0a0001c6 	beq	8014c574 <_RME_Svc_Handler+0x10d4>
8014be58:	e1a00c20 	lsr	r0, r0, #24
8014be5c:	e3500003 	cmp	r0, #3
8014be60:	1a0000ae 	bne	8014c120 <_RME_Svc_Handler+0xc80>
8014be64:	e59b3014 	ldr	r3, [fp, #20]
8014be68:	e204107f 	and	r1, r4, #127	; 0x7f
8014be6c:	e1510003 	cmp	r1, r3
8014be70:	2a00001a 	bcs	8014bee0 <_RME_Svc_Handler+0xa40>
8014be74:	e59b400c 	ldr	r4, [fp, #12]
8014be78:	e0844281 	add	r4, r4, r1, lsl #5
8014be7c:	eafffe6c 	b	8014b834 <_RME_Svc_Handler+0x394>
8014be80:	e1a06427 	lsr	r6, r7, #8
8014be84:	e1520006 	cmp	r2, r6
8014be88:	9a000014 	bls	8014bee0 <_RME_Svc_Handler+0xa40>
8014be8c:	e0836286 	add	r6, r3, r6, lsl #5
8014be90:	e1a00006 	mov	r0, r6
8014be94:	ebfff219 	bl	80148700 <__RME_A7A_Read_Acquire>
8014be98:	e7e73850 	ubfx	r3, r0, #16, #8
8014be9c:	e3530002 	cmp	r3, #2
8014bea0:	0a0001b3 	beq	8014c574 <_RME_Svc_Handler+0x10d4>
8014bea4:	e1a00c20 	lsr	r0, r0, #24
8014bea8:	e3500003 	cmp	r0, #3
8014beac:	1a00009b 	bne	8014c120 <_RME_Svc_Handler+0xc80>
8014beb0:	e5962014 	ldr	r2, [r6, #20]
8014beb4:	e207307f 	and	r3, r7, #127	; 0x7f
8014beb8:	e1530002 	cmp	r3, r2
8014bebc:	2a000007 	bcs	8014bee0 <_RME_Svc_Handler+0xa40>
8014bec0:	e596600c 	ldr	r6, [r6, #12]
8014bec4:	e0866283 	add	r6, r6, r3, lsl #5
8014bec8:	eafffe3d 	b	8014b7c4 <_RME_Svc_Handler+0x324>
8014becc:	e5963014 	ldr	r3, [r6, #20]
8014bed0:	e1580003 	cmp	r8, r3
8014bed4:	3596300c 	ldrcc	r3, [r6, #12]
8014bed8:	30838288 	addcc	r8, r3, r8, lsl #5
8014bedc:	3affff5c 	bcc	8014bc54 <_RME_Svc_Handler+0x7b4>
8014bee0:	e3e01002 	mvn	r1, #2
8014bee4:	eafffdc1 	b	8014b5f0 <_RME_Svc_Handler+0x150>
8014bee8:	e5963008 	ldr	r3, [r6, #8]
8014beec:	e3130010 	tst	r3, #16
8014bef0:	0a000018 	beq	8014bf58 <_RME_Svc_Handler+0xab8>
8014bef4:	e1d630b0 	ldrh	r3, [r6]
8014bef8:	e3530000 	cmp	r3, #0
8014befc:	15966004 	ldrne	r6, [r6, #4]
8014bf00:	e5962018 	ldr	r2, [r6, #24]
8014bf04:	e3520000 	cmp	r2, #0
8014bf08:	1afffdb7 	bne	8014b5ec <_RME_Svc_Handler+0x14c>
8014bf0c:	e5940004 	ldr	r0, [r4, #4]
8014bf10:	e5903018 	ldr	r3, [r0, #24]
8014bf14:	e3530000 	cmp	r3, #0
8014bf18:	0a0000b3 	beq	8014c1ec <_RME_Svc_Handler+0xd4c>
8014bf1c:	e3730106 	cmn	r3, #-2147483647	; 0x80000001
8014bf20:	0a0001be 	beq	8014c620 <_RME_Svc_Handler+0x1180>
8014bf24:	e5961014 	ldr	r1, [r6, #20]
8014bf28:	e3510000 	cmp	r1, #0
8014bf2c:	0a00009f 	beq	8014c1b0 <_RME_Svc_Handler+0xd10>
8014bf30:	e3d83002 	bics	r3, r8, #2
8014bf34:	e5963014 	ldr	r3, [r6, #20]
8014bf38:	1a000137 	bne	8014c41c <_RME_Svc_Handler+0xf7c>
8014bf3c:	e1510003 	cmp	r1, r3
8014bf40:	0a0001a6 	beq	8014c5e0 <_RME_Svc_Handler+0x1140>
8014bf44:	e3e01e13 	mvn	r1, #304	; 0x130
8014bf48:	eafffda8 	b	8014b5f0 <_RME_Svc_Handler+0x150>
8014bf4c:	e5963008 	ldr	r3, [r6, #8]
8014bf50:	e3130008 	tst	r3, #8
8014bf54:	1affffe6 	bne	8014bef4 <_RME_Svc_Handler+0xa54>
8014bf58:	e3e01006 	mvn	r1, #6
8014bf5c:	eafffda3 	b	8014b5f0 <_RME_Svc_Handler+0x150>
8014bf60:	e5963008 	ldr	r3, [r6, #8]
8014bf64:	e3130004 	tst	r3, #4
8014bf68:	1affffe1 	bne	8014bef4 <_RME_Svc_Handler+0xa54>
8014bf6c:	eafffff9 	b	8014bf58 <_RME_Svc_Handler+0xab8>
8014bf70:	e5963008 	ldr	r3, [r6, #8]
8014bf74:	e3130002 	tst	r3, #2
8014bf78:	1affffdd 	bne	8014bef4 <_RME_Svc_Handler+0xa54>
8014bf7c:	eafffff5 	b	8014bf58 <_RME_Svc_Handler+0xab8>
8014bf80:	e5962014 	ldr	r2, [r6, #20]
8014bf84:	e1a03429 	lsr	r3, r9, #8
8014bf88:	e1530002 	cmp	r3, r2
8014bf8c:	2affffd3 	bcs	8014bee0 <_RME_Svc_Handler+0xa40>
8014bf90:	e596600c 	ldr	r6, [r6, #12]
8014bf94:	e0866283 	add	r6, r6, r3, lsl #5
8014bf98:	e1a00006 	mov	r0, r6
8014bf9c:	ebfff1d7 	bl	80148700 <__RME_A7A_Read_Acquire>
8014bfa0:	e7e73850 	ubfx	r3, r0, #16, #8
8014bfa4:	e3530002 	cmp	r3, #2
8014bfa8:	0a000171 	beq	8014c574 <_RME_Svc_Handler+0x10d4>
8014bfac:	e1a00c20 	lsr	r0, r0, #24
8014bfb0:	e3500003 	cmp	r0, #3
8014bfb4:	1a000059 	bne	8014c120 <_RME_Svc_Handler+0xc80>
8014bfb8:	e5963014 	ldr	r3, [r6, #20]
8014bfbc:	e209207f 	and	r2, r9, #127	; 0x7f
8014bfc0:	e1520003 	cmp	r2, r3
8014bfc4:	2affffc5 	bcs	8014bee0 <_RME_Svc_Handler+0xa40>
8014bfc8:	e596600c 	ldr	r6, [r6, #12]
8014bfcc:	e0866282 	add	r6, r6, r2, lsl #5
8014bfd0:	eaffff2e 	b	8014bc90 <_RME_Svc_Handler+0x7f0>
8014bfd4:	e377010e 	cmn	r7, #-2147483645	; 0x80000003
8014bfd8:	9a0000ba 	bls	8014c2c8 <_RME_Svc_Handler+0xe28>
8014bfdc:	e2933106 	adds	r3, r3, #-2147483647	; 0x80000001
8014bfe0:	13a03001 	movne	r3, #1
8014bfe4:	e3770106 	cmn	r7, #-2147483647	; 0x80000001
8014bfe8:	13a03000 	movne	r3, #0
8014bfec:	e3530000 	cmp	r3, #0
8014bff0:	1a000166 	bne	8014c590 <_RME_Svc_Handler+0x10f0>
8014bff4:	e5981018 	ldr	r1, [r8, #24]
8014bff8:	e371010e 	cmn	r1, #-2147483645	; 0x80000003
8014bffc:	8affff5f 	bhi	8014bd80 <_RME_Svc_Handler+0x8e0>
8014c000:	e3e03106 	mvn	r3, #-2147483647	; 0x80000001
8014c004:	e5883018 	str	r3, [r8, #24]
8014c008:	e5963018 	ldr	r3, [r6, #24]
8014c00c:	eaffff55 	b	8014bd68 <_RME_Svc_Handler+0x8c8>
8014c010:	e5960044 	ldr	r0, [r6, #68]	; 0x44
8014c014:	e1a03009 	mov	r3, r9
8014c018:	e5961048 	ldr	r1, [r6, #72]	; 0x48
8014c01c:	e1a02008 	mov	r2, r8
8014c020:	e3c00102 	bic	r0, r0, #-2147483648	; 0x80000000
8014c024:	e58d1000 	str	r1, [sp]
8014c028:	e1a01007 	mov	r1, r7
8014c02c:	eb0006b4 	bl	8014db04 <__RME_Thd_Reg_Init>
8014c030:	eafffe8e 	b	8014ba70 <_RME_Svc_Handler+0x5d0>
8014c034:	e1a00006 	mov	r0, r6
8014c038:	ebfff723 	bl	80149ccc <_RME_Run_Del>
8014c03c:	e3a03002 	mov	r3, #2
8014c040:	e586301c 	str	r3, [r6, #28]
8014c044:	eafffe55 	b	8014b9a0 <_RME_Svc_Handler+0x500>
8014c048:	e30e0000 	movw	r0, #57344	; 0xe000
8014c04c:	e3480094 	movt	r0, #32916	; 0x8094
8014c050:	ebfff5c8 	bl	80149778 <_RME_Run_High>
8014c054:	e5840004 	str	r0, [r4, #4]
8014c058:	ebfff73c 	bl	80149d50 <_RME_Run_Ins>
8014c05c:	e5942004 	ldr	r2, [r4, #4]
8014c060:	e592301c 	ldr	r3, [r2, #28]
8014c064:	e3530000 	cmp	r3, #0
8014c068:	0a0000af 	beq	8014c32c <_RME_Svc_Handler+0xe8c>
8014c06c:	e30d3d80 	movw	r3, #56704	; 0xdd80
8014c070:	e30d2d8c 	movw	r2, #56716	; 0xdd8c
8014c074:	e3483014 	movt	r3, #32788	; 0x8014
8014c078:	e30d0d98 	movw	r0, #56728	; 0xdd98
8014c07c:	e3482014 	movt	r2, #32788	; 0x8014
8014c080:	e30116cd 	movw	r1, #5837	; 0x16cd
8014c084:	e3480014 	movt	r0, #32788	; 0x8014
8014c088:	ebfff54c 	bl	801495c0 <RME_Log>
8014c08c:	eafffffe 	b	8014c08c <_RME_Svc_Handler+0xbec>
8014c090:	e5962014 	ldr	r2, [r6, #20]
8014c094:	e1a03428 	lsr	r3, r8, #8
8014c098:	e1530002 	cmp	r3, r2
8014c09c:	2affff8f 	bcs	8014bee0 <_RME_Svc_Handler+0xa40>
8014c0a0:	e596600c 	ldr	r6, [r6, #12]
8014c0a4:	e0866283 	add	r6, r6, r3, lsl #5
8014c0a8:	e1a00006 	mov	r0, r6
8014c0ac:	ebfff193 	bl	80148700 <__RME_A7A_Read_Acquire>
8014c0b0:	e7e73850 	ubfx	r3, r0, #16, #8
8014c0b4:	e3530002 	cmp	r3, #2
8014c0b8:	0a00012d 	beq	8014c574 <_RME_Svc_Handler+0x10d4>
8014c0bc:	e1a00c20 	lsr	r0, r0, #24
8014c0c0:	e3500003 	cmp	r0, #3
8014c0c4:	1a000015 	bne	8014c120 <_RME_Svc_Handler+0xc80>
8014c0c8:	e5963014 	ldr	r3, [r6, #20]
8014c0cc:	e208807f 	and	r8, r8, #127	; 0x7f
8014c0d0:	e1580003 	cmp	r8, r3
8014c0d4:	3afffd51 	bcc	8014b620 <_RME_Svc_Handler+0x180>
8014c0d8:	eaffff80 	b	8014bee0 <_RME_Svc_Handler+0xa40>
8014c0dc:	e59d7038 	ldr	r7, [sp, #56]	; 0x38
8014c0e0:	e596200c 	ldr	r2, [r6, #12]
8014c0e4:	e5961014 	ldr	r1, [r6, #20]
8014c0e8:	e3170080 	tst	r7, #128	; 0x80
8014c0ec:	0a000269 	beq	8014ca98 <_RME_Svc_Handler+0x15f8>
8014c0f0:	e1510427 	cmp	r1, r7, lsr #8
8014c0f4:	e1a06427 	lsr	r6, r7, #8
8014c0f8:	9affff78 	bls	8014bee0 <_RME_Svc_Handler+0xa40>
8014c0fc:	e0826286 	add	r6, r2, r6, lsl #5
8014c100:	e1a00006 	mov	r0, r6
8014c104:	ebfff17d 	bl	80148700 <__RME_A7A_Read_Acquire>
8014c108:	e7e73850 	ubfx	r3, r0, #16, #8
8014c10c:	e3530002 	cmp	r3, #2
8014c110:	0a000117 	beq	8014c574 <_RME_Svc_Handler+0x10d4>
8014c114:	e1a02c20 	lsr	r2, r0, #24
8014c118:	e3520003 	cmp	r2, #3
8014c11c:	0a000280 	beq	8014cb24 <_RME_Svc_Handler+0x1684>
8014c120:	e3e01001 	mvn	r1, #1
8014c124:	eafffd31 	b	8014b5f0 <_RME_Svc_Handler+0x150>
8014c128:	e3a03000 	mov	r3, #0
8014c12c:	e1a00007 	mov	r0, r7
8014c130:	e5873018 	str	r3, [r7, #24]
8014c134:	ebfff6e4 	bl	80149ccc <_RME_Run_Del>
8014c138:	e3a03002 	mov	r3, #2
8014c13c:	e1a00007 	mov	r0, r7
8014c140:	e587301c 	str	r3, [r7, #28]
8014c144:	ebfff755 	bl	80149ea0 <_RME_Run_Notif>
8014c148:	e1a00004 	mov	r0, r4
8014c14c:	ebfff589 	bl	80149778 <_RME_Run_High>
8014c150:	e0471006 	sub	r1, r7, r6
8014c154:	e16f1f11 	clz	r1, r1
8014c158:	e5963020 	ldr	r3, [r6, #32]
8014c15c:	e1a012a1 	lsr	r1, r1, #5
8014c160:	e5902020 	ldr	r2, [r0, #32]
8014c164:	e1520003 	cmp	r2, r3
8014c168:	83811001 	orrhi	r1, r1, #1
8014c16c:	e3510000 	cmp	r1, #0
8014c170:	11a06000 	movne	r6, r0
8014c174:	1afffd47 	bne	8014b698 <_RME_Svc_Handler+0x1f8>
8014c178:	e1a00005 	mov	r0, r5
8014c17c:	eb00065e 	bl	8014dafc <__RME_Svc_Retval_Set>
8014c180:	e596301c 	ldr	r3, [r6, #28]
8014c184:	e3530000 	cmp	r3, #0
8014c188:	0afffd4a 	beq	8014b6b8 <_RME_Svc_Handler+0x218>
8014c18c:	e30d3d80 	movw	r3, #56704	; 0xdd80
8014c190:	e30d2d8c 	movw	r2, #56716	; 0xdd8c
8014c194:	e3483014 	movt	r3, #32788	; 0x8014
8014c198:	e30d0d98 	movw	r0, #56728	; 0xdd98
8014c19c:	e3482014 	movt	r2, #32788	; 0x8014
8014c1a0:	e3011a20 	movw	r1, #6688	; 0x1a20
8014c1a4:	e3480014 	movt	r0, #32788	; 0x8014
8014c1a8:	ebfff504 	bl	801495c0 <RME_Log>
8014c1ac:	eafffffe 	b	8014c1ac <_RME_Svc_Handler+0xd0c>
8014c1b0:	e3580001 	cmp	r8, #1
8014c1b4:	8afffd75 	bhi	8014b790 <_RME_Svc_Handler+0x2f0>
8014c1b8:	e5963018 	ldr	r3, [r6, #24]
8014c1bc:	e3530000 	cmp	r3, #0
8014c1c0:	1affff5f 	bne	8014bf44 <_RME_Svc_Handler+0xaa4>
8014c1c4:	e5860018 	str	r0, [r6, #24]
8014c1c8:	e3a03001 	mov	r3, #1
8014c1cc:	e5806028 	str	r6, [r0, #40]	; 0x28
8014c1d0:	e580301c 	str	r3, [r0, #28]
8014c1d4:	ebfff6bc 	bl	80149ccc <_RME_Run_Del>
8014c1d8:	e30e1000 	movw	r1, #57344	; 0xe000
8014c1dc:	e1a00005 	mov	r0, r5
8014c1e0:	e3481094 	movt	r1, #32916	; 0x8094
8014c1e4:	ebfffc75 	bl	8014b3c0 <_RME_Kern_High>
8014c1e8:	eafffcd3 	b	8014b53c <_RME_Svc_Handler+0x9c>
8014c1ec:	e30d3d80 	movw	r3, #56704	; 0xdd80
8014c1f0:	e30d2d8c 	movw	r2, #56716	; 0xdd8c
8014c1f4:	e3483014 	movt	r3, #32788	; 0x8014
8014c1f8:	e30d0d98 	movw	r0, #56728	; 0xdd98
8014c1fc:	e3482014 	movt	r2, #32788	; 0x8014
8014c200:	e3011c51 	movw	r1, #7249	; 0x1c51
8014c204:	e3480014 	movt	r0, #32788	; 0x8014
8014c208:	ebfff4ec 	bl	801495c0 <RME_Log>
8014c20c:	eafffffe 	b	8014c20c <_RME_Svc_Handler+0xd6c>
8014c210:	e59d501c 	ldr	r5, [sp, #28]
8014c214:	e3e010cb 	mvn	r1, #203	; 0xcb
8014c218:	eafffcf4 	b	8014b5f0 <_RME_Svc_Handler+0x150>
8014c21c:	e5944004 	ldr	r4, [r4, #4]
8014c220:	e1a01005 	mov	r1, r5
8014c224:	e286001c 	add	r0, r6, #28
8014c228:	e586400c 	str	r4, [r6, #12]
8014c22c:	eb00065a 	bl	8014db9c <__RME_Inv_Reg_Save>
8014c230:	e1a02004 	mov	r2, r4
8014c234:	e1a03007 	mov	r3, r7
8014c238:	e5b2104c 	ldr	r1, [r2, #76]!	; 0x4c
8014c23c:	e5816004 	str	r6, [r1, #4]
8014c240:	e8860006 	stm	r6, {r1, r2}
8014c244:	e5942054 	ldr	r2, [r4, #84]	; 0x54
8014c248:	e5940044 	ldr	r0, [r4, #68]	; 0x44
8014c24c:	e584604c 	str	r6, [r4, #76]	; 0x4c
8014c250:	e2822001 	add	r2, r2, #1
8014c254:	e5842054 	str	r2, [r4, #84]	; 0x54
8014c258:	e3c00102 	bic	r0, r0, #-2147483648	; 0x80000000
8014c25c:	e5962014 	ldr	r2, [r6, #20]
8014c260:	e5961010 	ldr	r1, [r6, #16]
8014c264:	e58d5000 	str	r5, [sp]
8014c268:	eb000625 	bl	8014db04 <__RME_Thd_Reg_Init>
8014c26c:	e5963008 	ldr	r3, [r6, #8]
8014c270:	e5930018 	ldr	r0, [r3, #24]
8014c274:	e1d030b0 	ldrh	r3, [r0]
8014c278:	e3530000 	cmp	r3, #0
8014c27c:	0a00006c 	beq	8014c434 <_RME_Svc_Handler+0xf94>
8014c280:	e30d3d80 	movw	r3, #56704	; 0xdd80
8014c284:	e30d2d8c 	movw	r2, #56716	; 0xdd8c
8014c288:	e3483014 	movt	r3, #32788	; 0x8014
8014c28c:	e30d0d98 	movw	r0, #56728	; 0xdd98
8014c290:	e3482014 	movt	r2, #32788	; 0x8014
8014c294:	e3011de9 	movw	r1, #7657	; 0x1de9
8014c298:	e3480014 	movt	r0, #32788	; 0x8014
8014c29c:	ebfff4c7 	bl	801495c0 <RME_Log>
8014c2a0:	eafffffe 	b	8014c2a0 <_RME_Svc_Handler+0xe00>
8014c2a4:	e1a00007 	mov	r0, r7
8014c2a8:	ebfff687 	bl	80149ccc <_RME_Run_Del>
8014c2ac:	e1a00007 	mov	r0, r7
8014c2b0:	ebfff6a6 	bl	80149d50 <_RME_Run_Ins>
8014c2b4:	e30e0000 	movw	r0, #57344	; 0xe000
8014c2b8:	e3480094 	movt	r0, #32916	; 0x8094
8014c2bc:	ebfff52d 	bl	80149778 <_RME_Run_High>
8014c2c0:	e1a06000 	mov	r6, r0
8014c2c4:	eafffcf3 	b	8014b698 <_RME_Svc_Handler+0x1f8>
8014c2c8:	e5983018 	ldr	r3, [r8, #24]
8014c2cc:	e0973003 	adds	r3, r7, r3
8014c2d0:	23a01001 	movcs	r1, #1
8014c2d4:	33a01000 	movcc	r1, #0
8014c2d8:	e373010e 	cmn	r3, #-2147483645	; 0x80000003
8014c2dc:	93a02000 	movls	r2, #0
8014c2e0:	83a02001 	movhi	r2, #1
8014c2e4:	e1912002 	orrs	r2, r1, r2
8014c2e8:	1a0000ca 	bne	8014c618 <_RME_Svc_Handler+0x1178>
8014c2ec:	e5883018 	str	r3, [r8, #24]
8014c2f0:	e5963018 	ldr	r3, [r6, #24]
8014c2f4:	eafffe9b 	b	8014bd68 <_RME_Svc_Handler+0x8c8>
8014c2f8:	e59d501c 	ldr	r5, [sp, #28]
8014c2fc:	eafffef7 	b	8014bee0 <_RME_Svc_Handler+0xa40>
8014c300:	e59d501c 	ldr	r5, [sp, #28]
8014c304:	e3e01008 	mvn	r1, #8
8014c308:	eafffcb8 	b	8014b5f0 <_RME_Svc_Handler+0x150>
8014c30c:	e59d501c 	ldr	r5, [sp, #28]
8014c310:	e3e01001 	mvn	r1, #1
8014c314:	eafffcb5 	b	8014b5f0 <_RME_Svc_Handler+0x150>
8014c318:	e3a03002 	mov	r3, #2
8014c31c:	e1a00006 	mov	r0, r6
8014c320:	e586301c 	str	r3, [r6, #28]
8014c324:	ebfff6dd 	bl	80149ea0 <_RME_Run_Notif>
8014c328:	eafffddd 	b	8014baa4 <_RME_Svc_Handler+0x604>
8014c32c:	e1a01006 	mov	r1, r6
8014c330:	e1a00005 	mov	r0, r5
8014c334:	ebfff6a2 	bl	80149dc4 <_RME_Run_Swt.isra.0>
8014c338:	eafffd9d 	b	8014b9b4 <_RME_Svc_Handler+0x514>
8014c33c:	e1a00006 	mov	r0, r6
8014c340:	ebfff661 	bl	80149ccc <_RME_Run_Del>
8014c344:	e3a03002 	mov	r3, #2
8014c348:	e1a00006 	mov	r0, r6
8014c34c:	e586301c 	str	r3, [r6, #28]
8014c350:	ebfff6d2 	bl	80149ea0 <_RME_Run_Notif>
8014c354:	eafffe88 	b	8014bd7c <_RME_Svc_Handler+0x8dc>
8014c358:	e59d501c 	ldr	r5, [sp, #28]
8014c35c:	e3a01000 	mov	r1, #0
8014c360:	e1a00005 	mov	r0, r5
8014c364:	eb0005e4 	bl	8014dafc <__RME_Svc_Retval_Set>
8014c368:	e59d405c 	ldr	r4, [sp, #92]	; 0x5c
8014c36c:	e594301c 	ldr	r3, [r4, #28]
8014c370:	e3530000 	cmp	r3, #0
8014c374:	0a00008b 	beq	8014c5a8 <_RME_Svc_Handler+0x1108>
8014c378:	e59d3024 	ldr	r3, [sp, #36]	; 0x24
8014c37c:	e5843020 	str	r3, [r4, #32]
8014c380:	e59d3020 	ldr	r3, [sp, #32]
8014c384:	e3530001 	cmp	r3, #1
8014c388:	0afffdc5 	beq	8014baa4 <_RME_Svc_Handler+0x604>
8014c38c:	e59d4060 	ldr	r4, [sp, #96]	; 0x60
8014c390:	e594301c 	ldr	r3, [r4, #28]
8014c394:	e3530000 	cmp	r3, #0
8014c398:	0a000089 	beq	8014c5c4 <_RME_Svc_Handler+0x1124>
8014c39c:	e59d3028 	ldr	r3, [sp, #40]	; 0x28
8014c3a0:	e5843020 	str	r3, [r4, #32]
8014c3a4:	e59d3020 	ldr	r3, [sp, #32]
8014c3a8:	e3530003 	cmp	r3, #3
8014c3ac:	1afffdbc 	bne	8014baa4 <_RME_Svc_Handler+0x604>
8014c3b0:	e59d4064 	ldr	r4, [sp, #100]	; 0x64
8014c3b4:	e594301c 	ldr	r3, [r4, #28]
8014c3b8:	e3530000 	cmp	r3, #0
8014c3bc:	159d302c 	ldrne	r3, [sp, #44]	; 0x2c
8014c3c0:	15843020 	strne	r3, [r4, #32]
8014c3c4:	1afffdb6 	bne	8014baa4 <_RME_Svc_Handler+0x604>
8014c3c8:	e1a00004 	mov	r0, r4
8014c3cc:	ebfff63e 	bl	80149ccc <_RME_Run_Del>
8014c3d0:	e59d302c 	ldr	r3, [sp, #44]	; 0x2c
8014c3d4:	e1a00004 	mov	r0, r4
8014c3d8:	e5843020 	str	r3, [r4, #32]
8014c3dc:	ebfff65b 	bl	80149d50 <_RME_Run_Ins>
8014c3e0:	eafffdaf 	b	8014baa4 <_RME_Svc_Handler+0x604>
8014c3e4:	e59d501c 	ldr	r5, [sp, #28]
8014c3e8:	e3e010cc 	mvn	r1, #204	; 0xcc
8014c3ec:	eafffc7f 	b	8014b5f0 <_RME_Svc_Handler+0x150>
8014c3f0:	e5960048 	ldr	r0, [r6, #72]	; 0x48
8014c3f4:	e30f1ece 	movw	r1, #65230	; 0xfece
8014c3f8:	e34f1fff 	movt	r1, #65535	; 0xffff
8014c3fc:	eb0005be 	bl	8014dafc <__RME_Svc_Retval_Set>
8014c400:	e5962028 	ldr	r2, [r6, #40]	; 0x28
8014c404:	e3a03000 	mov	r3, #0
8014c408:	e5823018 	str	r3, [r2, #24]
8014c40c:	e3a02002 	mov	r2, #2
8014c410:	e5863028 	str	r3, [r6, #40]	; 0x28
8014c414:	e586201c 	str	r2, [r6, #28]
8014c418:	eafffd60 	b	8014b9a0 <_RME_Svc_Handler+0x500>
8014c41c:	e1510003 	cmp	r1, r3
8014c420:	1afffec7 	bne	8014bf44 <_RME_Svc_Handler+0xaa4>
8014c424:	e5862014 	str	r2, [r6, #20]
8014c428:	e1a00005 	mov	r0, r5
8014c42c:	eb0005b2 	bl	8014dafc <__RME_Svc_Retval_Set>
8014c430:	eafffc41 	b	8014b53c <_RME_Svc_Handler+0x9c>
8014c434:	eb000623 	bl	8014dcc8 <__RME_Pgt_Set>
8014c438:	eafffc3f 	b	8014b53c <_RME_Svc_Handler+0x9c>
8014c43c:	e3a01000 	mov	r1, #0
8014c440:	e1a00005 	mov	r0, r5
8014c444:	eb0005ac 	bl	8014dafc <__RME_Svc_Retval_Set>
8014c448:	e5970048 	ldr	r0, [r7, #72]	; 0x48
8014c44c:	e3a01001 	mov	r1, #1
8014c450:	eb0005a9 	bl	8014dafc <__RME_Svc_Retval_Set>
8014c454:	e5973018 	ldr	r3, [r7, #24]
8014c458:	e3530000 	cmp	r3, #0
8014c45c:	0a000046 	beq	8014c57c <_RME_Svc_Handler+0x10dc>
8014c460:	e3a03000 	mov	r3, #0
8014c464:	e1a00007 	mov	r0, r7
8014c468:	e587301c 	str	r3, [r7, #28]
8014c46c:	ebfff637 	bl	80149d50 <_RME_Run_Ins>
8014c470:	e30e1000 	movw	r1, #57344	; 0xe000
8014c474:	e1a00005 	mov	r0, r5
8014c478:	e3481094 	movt	r1, #32916	; 0x8094
8014c47c:	ebfffbcf 	bl	8014b3c0 <_RME_Kern_High>
8014c480:	e3a03000 	mov	r3, #0
8014c484:	e5863018 	str	r3, [r6, #24]
8014c488:	eafffc2b 	b	8014b53c <_RME_Svc_Handler+0x9c>
8014c48c:	e59d501c 	ldr	r5, [sp, #28]
8014c490:	e3e01006 	mvn	r1, #6
8014c494:	eafffc55 	b	8014b5f0 <_RME_Svc_Handler+0x150>
8014c498:	e3a03000 	mov	r3, #0
8014c49c:	e1a00007 	mov	r0, r7
8014c4a0:	e5873018 	str	r3, [r7, #24]
8014c4a4:	ebfff608 	bl	80149ccc <_RME_Run_Del>
8014c4a8:	e3a03002 	mov	r3, #2
8014c4ac:	e1a00007 	mov	r0, r7
8014c4b0:	e587301c 	str	r3, [r7, #28]
8014c4b4:	ebfff679 	bl	80149ea0 <_RME_Run_Notif>
8014c4b8:	eaffff7d 	b	8014c2b4 <_RME_Svc_Handler+0xe14>
8014c4bc:	e59d4034 	ldr	r4, [sp, #52]	; 0x34
8014c4c0:	e59d7038 	ldr	r7, [sp, #56]	; 0x38
8014c4c4:	e596300c 	ldr	r3, [r6, #12]
8014c4c8:	e3140080 	tst	r4, #128	; 0x80
8014c4cc:	e5962014 	ldr	r2, [r6, #20]
8014c4d0:	0a000302 	beq	8014d0e0 <_RME_Svc_Handler+0x1c40>
8014c4d4:	e1520424 	cmp	r2, r4, lsr #8
8014c4d8:	e1a06424 	lsr	r6, r4, #8
8014c4dc:	9afffe7f 	bls	8014bee0 <_RME_Svc_Handler+0xa40>
8014c4e0:	e0836286 	add	r6, r3, r6, lsl #5
8014c4e4:	e1a00006 	mov	r0, r6
8014c4e8:	ebfff084 	bl	80148700 <__RME_A7A_Read_Acquire>
8014c4ec:	e7e72850 	ubfx	r2, r0, #16, #8
8014c4f0:	e3520002 	cmp	r2, #2
8014c4f4:	0a00001e 	beq	8014c574 <_RME_Svc_Handler+0x10d4>
8014c4f8:	e1a03c20 	lsr	r3, r0, #24
8014c4fc:	e3530003 	cmp	r3, #3
8014c500:	1affff06 	bne	8014c120 <_RME_Svc_Handler+0xc80>
8014c504:	e5963014 	ldr	r3, [r6, #20]
8014c508:	e204407f 	and	r4, r4, #127	; 0x7f
8014c50c:	e1540003 	cmp	r4, r3
8014c510:	2afffe72 	bcs	8014bee0 <_RME_Svc_Handler+0xa40>
8014c514:	e596300c 	ldr	r3, [r6, #12]
8014c518:	e0834284 	add	r4, r3, r4, lsl #5
8014c51c:	e1a00004 	mov	r0, r4
8014c520:	ebfff076 	bl	80148700 <__RME_A7A_Read_Acquire>
8014c524:	e7e72850 	ubfx	r2, r0, #16, #8
8014c528:	e3520002 	cmp	r2, #2
8014c52c:	0a000010 	beq	8014c574 <_RME_Svc_Handler+0x10d4>
8014c530:	e1a03c20 	lsr	r3, r0, #24
8014c534:	e3530003 	cmp	r3, #3
8014c538:	1afffef8 	bne	8014c120 <_RME_Svc_Handler+0xc80>
8014c53c:	e5943008 	ldr	r3, [r4, #8]
8014c540:	e3130002 	tst	r3, #2
8014c544:	0afffe83 	beq	8014bf58 <_RME_Svc_Handler+0xab8>
8014c548:	e5943014 	ldr	r3, [r4, #20]
8014c54c:	e1570003 	cmp	r7, r3
8014c550:	2afffe62 	bcs	8014bee0 <_RME_Svc_Handler+0xa40>
8014c554:	e594400c 	ldr	r4, [r4, #12]
8014c558:	e0846287 	add	r6, r4, r7, lsl #5
8014c55c:	e1a00006 	mov	r0, r6
8014c560:	ebfff066 	bl	80148700 <__RME_A7A_Read_Acquire>
8014c564:	e7e72850 	ubfx	r2, r0, #16, #8
8014c568:	e1a03000 	mov	r3, r0
8014c56c:	e3520002 	cmp	r2, #2
8014c570:	0a000195 	beq	8014cbcc <_RME_Svc_Handler+0x172c>
8014c574:	e3e01008 	mvn	r1, #8
8014c578:	eafffc1c 	b	8014b5f0 <_RME_Svc_Handler+0x150>
8014c57c:	e3a03002 	mov	r3, #2
8014c580:	e1a00007 	mov	r0, r7
8014c584:	e587301c 	str	r3, [r7, #28]
8014c588:	ebfff644 	bl	80149ea0 <_RME_Run_Notif>
8014c58c:	eaffffb7 	b	8014c470 <_RME_Svc_Handler+0xfd0>
8014c590:	e3a03000 	mov	r3, #0
8014c594:	e5863018 	str	r3, [r6, #24]
8014c598:	e5983018 	ldr	r3, [r8, #24]
8014c59c:	e373010e 	cmn	r3, #-2147483645	; 0x80000003
8014c5a0:	8afffdf2 	bhi	8014bd70 <_RME_Svc_Handler+0x8d0>
8014c5a4:	eafffe95 	b	8014c000 <_RME_Svc_Handler+0xb60>
8014c5a8:	e1a00004 	mov	r0, r4
8014c5ac:	ebfff5c6 	bl	80149ccc <_RME_Run_Del>
8014c5b0:	e59d3024 	ldr	r3, [sp, #36]	; 0x24
8014c5b4:	e1a00004 	mov	r0, r4
8014c5b8:	e5843020 	str	r3, [r4, #32]
8014c5bc:	ebfff5e3 	bl	80149d50 <_RME_Run_Ins>
8014c5c0:	eaffff6e 	b	8014c380 <_RME_Svc_Handler+0xee0>
8014c5c4:	e1a00004 	mov	r0, r4
8014c5c8:	ebfff5bf 	bl	80149ccc <_RME_Run_Del>
8014c5cc:	e59d3028 	ldr	r3, [sp, #40]	; 0x28
8014c5d0:	e1a00004 	mov	r0, r4
8014c5d4:	e5843020 	str	r3, [r4, #32]
8014c5d8:	ebfff5dc 	bl	80149d50 <_RME_Run_Ins>
8014c5dc:	eaffff70 	b	8014c3a4 <_RME_Svc_Handler+0xf04>
8014c5e0:	e2413001 	sub	r3, r1, #1
8014c5e4:	e1a00005 	mov	r0, r5
8014c5e8:	e5863014 	str	r3, [r6, #20]
8014c5ec:	e3a01001 	mov	r1, #1
8014c5f0:	eb000541 	bl	8014dafc <__RME_Svc_Retval_Set>
8014c5f4:	eafffbd0 	b	8014b53c <_RME_Svc_Handler+0x9c>
8014c5f8:	e5963014 	ldr	r3, [r6, #20]
8014c5fc:	e30f1ed1 	movw	r1, #65233	; 0xfed1
8014c600:	e34f1fff 	movt	r1, #65535	; 0xffff
8014c604:	e2433001 	sub	r3, r3, #1
8014c608:	e5863014 	str	r3, [r6, #20]
8014c60c:	eafffbf7 	b	8014b5f0 <_RME_Svc_Handler+0x150>
8014c610:	e3e010cd 	mvn	r1, #205	; 0xcd
8014c614:	eafffbf5 	b	8014b5f0 <_RME_Svc_Handler+0x150>
8014c618:	e3e010cf 	mvn	r1, #207	; 0xcf
8014c61c:	eafffbf3 	b	8014b5f0 <_RME_Svc_Handler+0x150>
8014c620:	e30f1ecd 	movw	r1, #65229	; 0xfecd
8014c624:	e34f1fff 	movt	r1, #65535	; 0xffff
8014c628:	eafffbf0 	b	8014b5f0 <_RME_Svc_Handler+0x150>
8014c62c:	e242200a 	sub	r2, r2, #10
8014c630:	e3520017 	cmp	r2, #23
8014c634:	979ff102 	ldrls	pc, [pc, r2, lsl #2]
8014c638:	ea000055 	b	8014c794 <_RME_Svc_Handler+0x12f4>
8014c63c:	8014d0b0 	.word	0x8014d0b0
8014c640:	8014c4bc 	.word	0x8014c4bc
8014c644:	8014d0ec 	.word	0x8014d0ec
8014c648:	8014d070 	.word	0x8014d070
8014c64c:	8014ce7c 	.word	0x8014ce7c
8014c650:	8014ce34 	.word	0x8014ce34
8014c654:	8014cd70 	.word	0x8014cd70
8014c658:	8014cd34 	.word	0x8014cd34
8014c65c:	8014d324 	.word	0x8014d324
8014c660:	8014d300 	.word	0x8014d300
8014c664:	8014d2e8 	.word	0x8014d2e8
8014c668:	8014d2c8 	.word	0x8014d2c8
8014c66c:	8014d474 	.word	0x8014d474
8014c670:	8014d3a8 	.word	0x8014d3a8
8014c674:	8014d670 	.word	0x8014d670
8014c678:	8014ccec 	.word	0x8014ccec
8014c67c:	8014c9fc 	.word	0x8014c9fc
8014c680:	8014c9c4 	.word	0x8014c9c4
8014c684:	8014c0dc 	.word	0x8014c0dc
8014c688:	8014c85c 	.word	0x8014c85c
8014c68c:	8014c904 	.word	0x8014c904
8014c690:	8014c8d4 	.word	0x8014c8d4
8014c694:	8014c69c 	.word	0x8014c69c
8014c698:	8014c79c 	.word	0x8014c79c
8014c69c:	e59d4034 	ldr	r4, [sp, #52]	; 0x34
8014c6a0:	e59d7038 	ldr	r7, [sp, #56]	; 0x38
8014c6a4:	e596200c 	ldr	r2, [r6, #12]
8014c6a8:	e3140080 	tst	r4, #128	; 0x80
8014c6ac:	e5963014 	ldr	r3, [r6, #20]
8014c6b0:	0a0000d7 	beq	8014ca14 <_RME_Svc_Handler+0x1574>
8014c6b4:	e1530424 	cmp	r3, r4, lsr #8
8014c6b8:	e1a06424 	lsr	r6, r4, #8
8014c6bc:	9afffe07 	bls	8014bee0 <_RME_Svc_Handler+0xa40>
8014c6c0:	e0826286 	add	r6, r2, r6, lsl #5
8014c6c4:	e1a00006 	mov	r0, r6
8014c6c8:	ebfff00c 	bl	80148700 <__RME_A7A_Read_Acquire>
8014c6cc:	e7e73850 	ubfx	r3, r0, #16, #8
8014c6d0:	e3530002 	cmp	r3, #2
8014c6d4:	0affffa6 	beq	8014c574 <_RME_Svc_Handler+0x10d4>
8014c6d8:	e1a02c20 	lsr	r2, r0, #24
8014c6dc:	e3520003 	cmp	r2, #3
8014c6e0:	1afffe8e 	bne	8014c120 <_RME_Svc_Handler+0xc80>
8014c6e4:	e5962014 	ldr	r2, [r6, #20]
8014c6e8:	e204307f 	and	r3, r4, #127	; 0x7f
8014c6ec:	e1530002 	cmp	r3, r2
8014c6f0:	2afffdfa 	bcs	8014bee0 <_RME_Svc_Handler+0xa40>
8014c6f4:	e596400c 	ldr	r4, [r6, #12]
8014c6f8:	e0844283 	add	r4, r4, r3, lsl #5
8014c6fc:	e1a00004 	mov	r0, r4
8014c700:	ebffeffe 	bl	80148700 <__RME_A7A_Read_Acquire>
8014c704:	e7e72850 	ubfx	r2, r0, #16, #8
8014c708:	e3520002 	cmp	r2, #2
8014c70c:	0affff98 	beq	8014c574 <_RME_Svc_Handler+0x10d4>
8014c710:	e1a03c20 	lsr	r3, r0, #24
8014c714:	e3530003 	cmp	r3, #3
8014c718:	1afffe80 	bne	8014c120 <_RME_Svc_Handler+0xc80>
8014c71c:	e5943008 	ldr	r3, [r4, #8]
8014c720:	e3130002 	tst	r3, #2
8014c724:	0afffe0b 	beq	8014bf58 <_RME_Svc_Handler+0xab8>
8014c728:	e5943014 	ldr	r3, [r4, #20]
8014c72c:	e1570003 	cmp	r7, r3
8014c730:	2afffdea 	bcs	8014bee0 <_RME_Svc_Handler+0xa40>
8014c734:	e594600c 	ldr	r6, [r4, #12]
8014c738:	e0864287 	add	r4, r6, r7, lsl #5
8014c73c:	e1a00004 	mov	r0, r4
8014c740:	ebffefee 	bl	80148700 <__RME_A7A_Read_Acquire>
8014c744:	e7e72850 	ubfx	r2, r0, #16, #8
8014c748:	e1a03000 	mov	r3, r0
8014c74c:	e3520002 	cmp	r2, #2
8014c750:	1affff87 	bne	8014c574 <_RME_Svc_Handler+0x10d4>
8014c754:	e1a02c20 	lsr	r2, r0, #24
8014c758:	e3520007 	cmp	r2, #7
8014c75c:	1afffe6f 	bne	8014c120 <_RME_Svc_Handler+0xc80>
8014c760:	e5942004 	ldr	r2, [r4, #4]
8014c764:	e3520000 	cmp	r2, #0
8014c768:	e6ff2070 	uxth	r2, r0
8014c76c:	1a0000bf 	bne	8014ca70 <_RME_Svc_Handler+0x15d0>
8014c770:	e3520000 	cmp	r2, #0
8014c774:	1a00010b 	bne	8014cba8 <_RME_Svc_Handler+0x1708>
8014c778:	e594000c 	ldr	r0, [r4, #12]
8014c77c:	e590200c 	ldr	r2, [r0, #12]
8014c780:	e3520000 	cmp	r2, #0
8014c784:	1a00012f 	bne	8014cc48 <_RME_Svc_Handler+0x17a8>
8014c788:	e7961287 	ldr	r1, [r6, r7, lsl #5]
8014c78c:	e1530001 	cmp	r3, r1
8014c790:	0a000133 	beq	8014cc64 <_RME_Svc_Handler+0x17c4>
8014c794:	e3e01000 	mvn	r1, #0
8014c798:	eafffb94 	b	8014b5f0 <_RME_Svc_Handler+0x150>
8014c79c:	e59d9038 	ldr	r9, [sp, #56]	; 0x38
8014c7a0:	e59d803c 	ldr	r8, [sp, #60]	; 0x3c
8014c7a4:	e59d7040 	ldr	r7, [sp, #64]	; 0x40
8014c7a8:	e3190080 	tst	r9, #128	; 0x80
8014c7ac:	e596300c 	ldr	r3, [r6, #12]
8014c7b0:	e6ff2079 	uxth	r2, r9
8014c7b4:	e5961014 	ldr	r1, [r6, #20]
8014c7b8:	e1a04829 	lsr	r4, r9, #16
8014c7bc:	1a000013 	bne	8014c810 <_RME_Svc_Handler+0x1370>
8014c7c0:	e1510002 	cmp	r1, r2
8014c7c4:	9afffdc5 	bls	8014bee0 <_RME_Svc_Handler+0xa40>
8014c7c8:	e0836282 	add	r6, r3, r2, lsl #5
8014c7cc:	e1a00006 	mov	r0, r6
8014c7d0:	ebffefca 	bl	80148700 <__RME_A7A_Read_Acquire>
8014c7d4:	e7e72850 	ubfx	r2, r0, #16, #8
8014c7d8:	e3520002 	cmp	r2, #2
8014c7dc:	0affff64 	beq	8014c574 <_RME_Svc_Handler+0x10d4>
8014c7e0:	e1a03c20 	lsr	r3, r0, #24
8014c7e4:	e3530007 	cmp	r3, #7
8014c7e8:	1afffe4c 	bne	8014c120 <_RME_Svc_Handler+0xc80>
8014c7ec:	e5963008 	ldr	r3, [r6, #8]
8014c7f0:	e3130001 	tst	r3, #1
8014c7f4:	0afffdd7 	beq	8014bf58 <_RME_Svc_Handler+0xab8>
8014c7f8:	e596300c 	ldr	r3, [r6, #12]
8014c7fc:	e3a01000 	mov	r1, #0
8014c800:	e5838010 	str	r8, [r3, #16]
8014c804:	e5837014 	str	r7, [r3, #20]
8014c808:	e5834018 	str	r4, [r3, #24]
8014c80c:	eafffb77 	b	8014b5f0 <_RME_Svc_Handler+0x150>
8014c810:	e1510422 	cmp	r1, r2, lsr #8
8014c814:	e1a02422 	lsr	r2, r2, #8
8014c818:	9afffdb0 	bls	8014bee0 <_RME_Svc_Handler+0xa40>
8014c81c:	e0836282 	add	r6, r3, r2, lsl #5
8014c820:	e1a00006 	mov	r0, r6
8014c824:	ebffefb5 	bl	80148700 <__RME_A7A_Read_Acquire>
8014c828:	e7e73850 	ubfx	r3, r0, #16, #8
8014c82c:	e3530002 	cmp	r3, #2
8014c830:	0affff4f 	beq	8014c574 <_RME_Svc_Handler+0x10d4>
8014c834:	e1a02c20 	lsr	r2, r0, #24
8014c838:	e3520003 	cmp	r2, #3
8014c83c:	1afffe37 	bne	8014c120 <_RME_Svc_Handler+0xc80>
8014c840:	e5962014 	ldr	r2, [r6, #20]
8014c844:	e209307f 	and	r3, r9, #127	; 0x7f
8014c848:	e1530002 	cmp	r3, r2
8014c84c:	2afffda3 	bcs	8014bee0 <_RME_Svc_Handler+0xa40>
8014c850:	e596200c 	ldr	r2, [r6, #12]
8014c854:	e0826283 	add	r6, r2, r3, lsl #5
8014c858:	eaffffdb 	b	8014c7cc <_RME_Svc_Handler+0x132c>
8014c85c:	e59d4034 	ldr	r4, [sp, #52]	; 0x34
8014c860:	e59d7038 	ldr	r7, [sp, #56]	; 0x38
8014c864:	e596200c 	ldr	r2, [r6, #12]
8014c868:	e3140080 	tst	r4, #128	; 0x80
8014c86c:	e5963014 	ldr	r3, [r6, #20]
8014c870:	1a00006b 	bne	8014ca24 <_RME_Svc_Handler+0x1584>
8014c874:	e1540003 	cmp	r4, r3
8014c878:	2afffd98 	bcs	8014bee0 <_RME_Svc_Handler+0xa40>
8014c87c:	e0824284 	add	r4, r2, r4, lsl #5
8014c880:	e1a00004 	mov	r0, r4
8014c884:	ebffef9d 	bl	80148700 <__RME_A7A_Read_Acquire>
8014c888:	e7e72850 	ubfx	r2, r0, #16, #8
8014c88c:	e3520002 	cmp	r2, #2
8014c890:	0affff37 	beq	8014c574 <_RME_Svc_Handler+0x10d4>
8014c894:	e1a03c20 	lsr	r3, r0, #24
8014c898:	e3530003 	cmp	r3, #3
8014c89c:	1afffe1f 	bne	8014c120 <_RME_Svc_Handler+0xc80>
8014c8a0:	e5943008 	ldr	r3, [r4, #8]
8014c8a4:	e3130001 	tst	r3, #1
8014c8a8:	0afffdaa 	beq	8014bf58 <_RME_Svc_Handler+0xab8>
8014c8ac:	e5943014 	ldr	r3, [r4, #20]
8014c8b0:	e1570003 	cmp	r7, r3
8014c8b4:	2afffd89 	bcs	8014bee0 <_RME_Svc_Handler+0xa40>
8014c8b8:	e594200c 	ldr	r2, [r4, #12]
8014c8bc:	e7924287 	ldr	r4, [r2, r7, lsl #5]
8014c8c0:	e0820287 	add	r0, r2, r7, lsl #5
8014c8c4:	e3540000 	cmp	r4, #0
8014c8c8:	0a0000f7 	beq	8014ccac <_RME_Svc_Handler+0x180c>
8014c8cc:	e3e01004 	mvn	r1, #4
8014c8d0:	eafffb46 	b	8014b5f0 <_RME_Svc_Handler+0x150>
8014c8d4:	e59d2038 	ldr	r2, [sp, #56]	; 0x38
8014c8d8:	e1a00006 	mov	r0, r6
8014c8dc:	e59d1040 	ldr	r1, [sp, #64]	; 0x40
8014c8e0:	e59d303c 	ldr	r3, [sp, #60]	; 0x3c
8014c8e4:	e58d1004 	str	r1, [sp, #4]
8014c8e8:	e58d3000 	str	r3, [sp]
8014c8ec:	e6ff3072 	uxth	r3, r2
8014c8f0:	e59d1034 	ldr	r1, [sp, #52]	; 0x34
8014c8f4:	e1a02822 	lsr	r2, r2, #16
8014c8f8:	ebfff84e 	bl	8014aa38 <_RME_Inv_Crt>
8014c8fc:	e1a01000 	mov	r1, r0
8014c900:	eafffb3a 	b	8014b5f0 <_RME_Svc_Handler+0x150>
8014c904:	e59d4034 	ldr	r4, [sp, #52]	; 0x34
8014c908:	e59d7038 	ldr	r7, [sp, #56]	; 0x38
8014c90c:	e596200c 	ldr	r2, [r6, #12]
8014c910:	e3140080 	tst	r4, #128	; 0x80
8014c914:	e5963014 	ldr	r3, [r6, #20]
8014c918:	1a000088 	bne	8014cb40 <_RME_Svc_Handler+0x16a0>
8014c91c:	e1540003 	cmp	r4, r3
8014c920:	2afffd6e 	bcs	8014bee0 <_RME_Svc_Handler+0xa40>
8014c924:	e0824284 	add	r4, r2, r4, lsl #5
8014c928:	e1a00004 	mov	r0, r4
8014c92c:	ebffef73 	bl	80148700 <__RME_A7A_Read_Acquire>
8014c930:	e7e72850 	ubfx	r2, r0, #16, #8
8014c934:	e3520002 	cmp	r2, #2
8014c938:	0affff0d 	beq	8014c574 <_RME_Svc_Handler+0x10d4>
8014c93c:	e1a03c20 	lsr	r3, r0, #24
8014c940:	e3530003 	cmp	r3, #3
8014c944:	1afffdf5 	bne	8014c120 <_RME_Svc_Handler+0xc80>
8014c948:	e5943008 	ldr	r3, [r4, #8]
8014c94c:	e3130002 	tst	r3, #2
8014c950:	0afffd80 	beq	8014bf58 <_RME_Svc_Handler+0xab8>
8014c954:	e5943014 	ldr	r3, [r4, #20]
8014c958:	e1570003 	cmp	r7, r3
8014c95c:	2afffd5f 	bcs	8014bee0 <_RME_Svc_Handler+0xa40>
8014c960:	e594400c 	ldr	r4, [r4, #12]
8014c964:	e0846287 	add	r6, r4, r7, lsl #5
8014c968:	e1a00006 	mov	r0, r6
8014c96c:	ebffef63 	bl	80148700 <__RME_A7A_Read_Acquire>
8014c970:	e7e72850 	ubfx	r2, r0, #16, #8
8014c974:	e1a03000 	mov	r3, r0
8014c978:	e3520002 	cmp	r2, #2
8014c97c:	1afffefc 	bne	8014c574 <_RME_Svc_Handler+0x10d4>
8014c980:	e1a02c20 	lsr	r2, r0, #24
8014c984:	e3520008 	cmp	r2, #8
8014c988:	1afffde4 	bne	8014c120 <_RME_Svc_Handler+0xc80>
8014c98c:	e5962004 	ldr	r2, [r6, #4]
8014c990:	e3520000 	cmp	r2, #0
8014c994:	e6ff2070 	uxth	r2, r0
8014c998:	1a000092 	bne	8014cbe8 <_RME_Svc_Handler+0x1748>
8014c99c:	e3520000 	cmp	r2, #0
8014c9a0:	1a000099 	bne	8014cc0c <_RME_Svc_Handler+0x176c>
8014c9a4:	e5961018 	ldr	r1, [r6, #24]
8014c9a8:	e7942287 	ldr	r2, [r4, r7, lsl #5]
8014c9ac:	e3510000 	cmp	r1, #0
8014c9b0:	1a00009e 	bne	8014cc30 <_RME_Svc_Handler+0x1790>
8014c9b4:	e1500002 	cmp	r0, r2
8014c9b8:	07841287 	streq	r1, [r4, r7, lsl #5]
8014c9bc:	1affff74 	bne	8014c794 <_RME_Svc_Handler+0x12f4>
8014c9c0:	eafffb0a 	b	8014b5f0 <_RME_Svc_Handler+0x150>
8014c9c4:	e1cd23d8 	ldrd	r2, [sp, #56]	; 0x38
8014c9c8:	e59d1040 	ldr	r1, [sp, #64]	; 0x40
8014c9cc:	e1a00006 	mov	r0, r6
8014c9d0:	e58d1008 	str	r1, [sp, #8]
8014c9d4:	e6ff1073 	uxth	r1, r3
8014c9d8:	e1a03823 	lsr	r3, r3, #16
8014c9dc:	e58d1004 	str	r1, [sp, #4]
8014c9e0:	e58d3000 	str	r3, [sp]
8014c9e4:	e6ff3072 	uxth	r3, r2
8014c9e8:	e59d1034 	ldr	r1, [sp, #52]	; 0x34
8014c9ec:	e1a02822 	lsr	r2, r2, #16
8014c9f0:	ebfff372 	bl	801497c0 <_RME_Thd_Sched_Bind>
8014c9f4:	e1a01000 	mov	r1, r0
8014c9f8:	eafffafc 	b	8014b5f0 <_RME_Svc_Handler+0x150>
8014c9fc:	e5961014 	ldr	r1, [r6, #20]
8014ca00:	e1cd23d4 	ldrd	r2, [sp, #52]	; 0x34
8014ca04:	e596000c 	ldr	r0, [r6, #12]
8014ca08:	ebfff926 	bl	8014aea8 <_RME_Thd_Del.isra.0>
8014ca0c:	e1a01000 	mov	r1, r0
8014ca10:	eafffaf6 	b	8014b5f0 <_RME_Svc_Handler+0x150>
8014ca14:	e1540003 	cmp	r4, r3
8014ca18:	2afffd30 	bcs	8014bee0 <_RME_Svc_Handler+0xa40>
8014ca1c:	e0824284 	add	r4, r2, r4, lsl #5
8014ca20:	eaffff35 	b	8014c6fc <_RME_Svc_Handler+0x125c>
8014ca24:	e1530424 	cmp	r3, r4, lsr #8
8014ca28:	e1a06424 	lsr	r6, r4, #8
8014ca2c:	9afffd2b 	bls	8014bee0 <_RME_Svc_Handler+0xa40>
8014ca30:	e0826286 	add	r6, r2, r6, lsl #5
8014ca34:	e1a00006 	mov	r0, r6
8014ca38:	ebffef30 	bl	80148700 <__RME_A7A_Read_Acquire>
8014ca3c:	e7e73850 	ubfx	r3, r0, #16, #8
8014ca40:	e3530002 	cmp	r3, #2
8014ca44:	0afffeca 	beq	8014c574 <_RME_Svc_Handler+0x10d4>
8014ca48:	e1a02c20 	lsr	r2, r0, #24
8014ca4c:	e3520003 	cmp	r2, #3
8014ca50:	1afffdb2 	bne	8014c120 <_RME_Svc_Handler+0xc80>
8014ca54:	e5962014 	ldr	r2, [r6, #20]
8014ca58:	e204307f 	and	r3, r4, #127	; 0x7f
8014ca5c:	e1530002 	cmp	r3, r2
8014ca60:	2afffd1e 	bcs	8014bee0 <_RME_Svc_Handler+0xa40>
8014ca64:	e596400c 	ldr	r4, [r6, #12]
8014ca68:	e0844283 	add	r4, r4, r3, lsl #5
8014ca6c:	eaffff83 	b	8014c880 <_RME_Svc_Handler+0x13e0>
8014ca70:	e3520000 	cmp	r2, #0
8014ca74:	1a000005 	bne	8014ca90 <_RME_Svc_Handler+0x15f0>
8014ca78:	e7962287 	ldr	r2, [r6, r7, lsl #5]
8014ca7c:	e1500002 	cmp	r0, r2
8014ca80:	03c038ff 	biceq	r3, r0, #16711680	; 0xff0000
8014ca84:	03e01005 	mvneq	r1, #5
8014ca88:	07863287 	streq	r3, [r6, r7, lsl #5]
8014ca8c:	0afffad7 	beq	8014b5f0 <_RME_Svc_Handler+0x150>
8014ca90:	e3e01005 	mvn	r1, #5
8014ca94:	eafffad5 	b	8014b5f0 <_RME_Svc_Handler+0x150>
8014ca98:	e1570001 	cmp	r7, r1
8014ca9c:	2afffd0f 	bcs	8014bee0 <_RME_Svc_Handler+0xa40>
8014caa0:	e0827287 	add	r7, r2, r7, lsl #5
8014caa4:	e1a00007 	mov	r0, r7
8014caa8:	ebffef14 	bl	80148700 <__RME_A7A_Read_Acquire>
8014caac:	e7e72850 	ubfx	r2, r0, #16, #8
8014cab0:	e3520002 	cmp	r2, #2
8014cab4:	0afffeae 	beq	8014c574 <_RME_Svc_Handler+0x10d4>
8014cab8:	e1a03c20 	lsr	r3, r0, #24
8014cabc:	e3530006 	cmp	r3, #6
8014cac0:	1afffd96 	bne	8014c120 <_RME_Svc_Handler+0xc80>
8014cac4:	e5973008 	ldr	r3, [r7, #8]
8014cac8:	e3130020 	tst	r3, #32
8014cacc:	0afffd21 	beq	8014bf58 <_RME_Svc_Handler+0xab8>
8014cad0:	e597200c 	ldr	r2, [r7, #12]
8014cad4:	e5923014 	ldr	r3, [r2, #20]
8014cad8:	e1530004 	cmp	r3, r4
8014cadc:	1afffdcc 	bne	8014c214 <_RME_Svc_Handler+0xd74>
8014cae0:	e5b2303c 	ldr	r3, [r2, #60]!	; 0x3c
8014cae4:	e1530002 	cmp	r3, r2
8014cae8:	0a000027 	beq	8014cb8c <_RME_Svc_Handler+0x16ec>
8014caec:	e8930006 	ldm	r3, {r1, r2}
8014caf0:	ee803b90 	vdup.32	d16, r3
8014caf4:	e5812004 	str	r2, [r1, #4]
8014caf8:	e5821000 	str	r1, [r2]
8014cafc:	e5932014 	ldr	r2, [r3, #20]
8014cb00:	f443078f 	vst1.32	{d16}, [r3]
8014cb04:	e3520003 	cmp	r2, #3
8014cb08:	0a000021 	beq	8014cb94 <_RME_Svc_Handler+0x16f4>
8014cb0c:	e3520002 	cmp	r2, #2
8014cb10:	03a01202 	moveq	r1, #536870912	; 0x20000000
8014cb14:	13a01000 	movne	r1, #0
8014cb18:	e5933008 	ldr	r3, [r3, #8]
8014cb1c:	e1811003 	orr	r1, r1, r3
8014cb20:	eafffab2 	b	8014b5f0 <_RME_Svc_Handler+0x150>
8014cb24:	e5962014 	ldr	r2, [r6, #20]
8014cb28:	e207307f 	and	r3, r7, #127	; 0x7f
8014cb2c:	e1530002 	cmp	r3, r2
8014cb30:	2afffcea 	bcs	8014bee0 <_RME_Svc_Handler+0xa40>
8014cb34:	e596200c 	ldr	r2, [r6, #12]
8014cb38:	e0827283 	add	r7, r2, r3, lsl #5
8014cb3c:	eaffffd8 	b	8014caa4 <_RME_Svc_Handler+0x1604>
8014cb40:	e1530424 	cmp	r3, r4, lsr #8
8014cb44:	e1a06424 	lsr	r6, r4, #8
8014cb48:	9afffce4 	bls	8014bee0 <_RME_Svc_Handler+0xa40>
8014cb4c:	e0826286 	add	r6, r2, r6, lsl #5
8014cb50:	e1a00006 	mov	r0, r6
8014cb54:	ebffeee9 	bl	80148700 <__RME_A7A_Read_Acquire>
8014cb58:	e7e73850 	ubfx	r3, r0, #16, #8
8014cb5c:	e3530002 	cmp	r3, #2
8014cb60:	0afffe83 	beq	8014c574 <_RME_Svc_Handler+0x10d4>
8014cb64:	e1a02c20 	lsr	r2, r0, #24
8014cb68:	e3520003 	cmp	r2, #3
8014cb6c:	1afffd6b 	bne	8014c120 <_RME_Svc_Handler+0xc80>
8014cb70:	e5962014 	ldr	r2, [r6, #20]
8014cb74:	e204307f 	and	r3, r4, #127	; 0x7f
8014cb78:	e1530002 	cmp	r3, r2
8014cb7c:	2afffcd7 	bcs	8014bee0 <_RME_Svc_Handler+0xa40>
8014cb80:	e596400c 	ldr	r4, [r6, #12]
8014cb84:	e0844283 	add	r4, r4, r3, lsl #5
8014cb88:	eaffff66 	b	8014c928 <_RME_Svc_Handler+0x1488>
8014cb8c:	e3e010ce 	mvn	r1, #206	; 0xce
8014cb90:	eafffa96 	b	8014b5f0 <_RME_Svc_Handler+0x150>
8014cb94:	e5932010 	ldr	r2, [r3, #16]
8014cb98:	e3520000 	cmp	r2, #0
8014cb9c:	13a01101 	movne	r1, #1073741824	; 0x40000000
8014cba0:	03a01206 	moveq	r1, #1610612736	; 0x60000000
8014cba4:	eaffffdb 	b	8014cb18 <_RME_Svc_Handler+0x1678>
8014cba8:	e30d3d80 	movw	r3, #56704	; 0xdd80
8014cbac:	e30d2d8c 	movw	r2, #56716	; 0xdd8c
8014cbb0:	e3483014 	movt	r3, #32788	; 0x8014
8014cbb4:	e30d0d98 	movw	r0, #56728	; 0xdd98
8014cbb8:	e3482014 	movt	r2, #32788	; 0x8014
8014cbbc:	e3011d3c 	movw	r1, #7484	; 0x1d3c
8014cbc0:	e3480014 	movt	r0, #32788	; 0x8014
8014cbc4:	ebfff27d 	bl	801495c0 <RME_Log>
8014cbc8:	eafffffe 	b	8014cbc8 <_RME_Svc_Handler+0x1728>
8014cbcc:	e1a02c20 	lsr	r2, r0, #24
8014cbd0:	e3520003 	cmp	r2, #3
8014cbd4:	1afffd51 	bne	8014c120 <_RME_Svc_Handler+0xc80>
8014cbd8:	e5962004 	ldr	r2, [r6, #4]
8014cbdc:	e3520000 	cmp	r2, #0
8014cbe0:	e6ff2070 	uxth	r2, r0
8014cbe4:	0a000186 	beq	8014d204 <_RME_Svc_Handler+0x1d64>
8014cbe8:	e3520000 	cmp	r2, #0
8014cbec:	1affffa7 	bne	8014ca90 <_RME_Svc_Handler+0x15f0>
8014cbf0:	e7942287 	ldr	r2, [r4, r7, lsl #5]
8014cbf4:	e1530002 	cmp	r3, r2
8014cbf8:	03c338ff 	biceq	r3, r3, #16711680	; 0xff0000
8014cbfc:	03e01005 	mvneq	r1, #5
8014cc00:	07843287 	streq	r3, [r4, r7, lsl #5]
8014cc04:	1affffa1 	bne	8014ca90 <_RME_Svc_Handler+0x15f0>
8014cc08:	eafffa78 	b	8014b5f0 <_RME_Svc_Handler+0x150>
8014cc0c:	e30d3d80 	movw	r3, #56704	; 0xdd80
8014cc10:	e30d2d8c 	movw	r2, #56716	; 0xdd8c
8014cc14:	e3483014 	movt	r3, #32788	; 0x8014
8014cc18:	e30d0d98 	movw	r0, #56728	; 0xdd98
8014cc1c:	e3482014 	movt	r2, #32788	; 0x8014
8014cc20:	e3011aba 	movw	r1, #6842	; 0x1aba
8014cc24:	e3480014 	movt	r0, #32788	; 0x8014
8014cc28:	ebfff264 	bl	801495c0 <RME_Log>
8014cc2c:	eafffffe 	b	8014cc2c <_RME_Svc_Handler+0x178c>
8014cc30:	e1500002 	cmp	r0, r2
8014cc34:	03c038ff 	biceq	r3, r0, #16711680	; 0xff0000
8014cc38:	03e01f4b 	mvneq	r1, #300	; 0x12c
8014cc3c:	07843287 	streq	r3, [r4, r7, lsl #5]
8014cc40:	1afffa69 	bne	8014b5ec <_RME_Svc_Handler+0x14c>
8014cc44:	eafffa69 	b	8014b5f0 <_RME_Svc_Handler+0x150>
8014cc48:	e7962287 	ldr	r2, [r6, r7, lsl #5]
8014cc4c:	e1530002 	cmp	r3, r2
8014cc50:	03c338ff 	biceq	r3, r3, #16711680	; 0xff0000
8014cc54:	03e01f4b 	mvneq	r1, #300	; 0x12c
8014cc58:	07863287 	streq	r3, [r6, r7, lsl #5]
8014cc5c:	1afffa62 	bne	8014b5ec <_RME_Svc_Handler+0x14c>
8014cc60:	eafffa62 	b	8014b5f0 <_RME_Svc_Handler+0x150>
8014cc64:	e7862287 	str	r2, [r6, r7, lsl #5]
8014cc68:	e3a01024 	mov	r1, #36	; 0x24
8014cc6c:	e5902008 	ldr	r2, [r0, #8]
8014cc70:	e5923004 	ldr	r3, [r2, #4]
8014cc74:	e2433001 	sub	r3, r3, #1
8014cc78:	e5823004 	str	r3, [r2, #4]
8014cc7c:	ebfff829 	bl	8014ad28 <_RME_Kot_Erase>
8014cc80:	e2501000 	subs	r1, r0, #0
8014cc84:	0afffa59 	beq	8014b5f0 <_RME_Svc_Handler+0x150>
8014cc88:	e30d3d80 	movw	r3, #56704	; 0xdd80
8014cc8c:	e30d2d8c 	movw	r2, #56716	; 0xdd8c
8014cc90:	e3483014 	movt	r3, #32788	; 0x8014
8014cc94:	e30d0d98 	movw	r0, #56728	; 0xdd98
8014cc98:	e3482014 	movt	r2, #32788	; 0x8014
8014cc9c:	e3011d56 	movw	r1, #7510	; 0x1d56
8014cca0:	e3480014 	movt	r0, #32788	; 0x8014
8014cca4:	ebfff245 	bl	801495c0 <RME_Log>
8014cca8:	eafffffe 	b	8014cca8 <_RME_Svc_Handler+0x1808>
8014ccac:	e30e3114 	movw	r3, #57620	; 0xe114
8014ccb0:	e3a01801 	mov	r1, #65536	; 0x10000
8014ccb4:	e3483094 	movt	r3, #32916	; 0x8094
8014ccb8:	e7821287 	str	r1, [r2, r7, lsl #5]
8014ccbc:	e3a0203f 	mov	r2, #63	; 0x3f
8014ccc0:	e5933000 	ldr	r3, [r3]
8014ccc4:	e3a01302 	mov	r1, #134217728	; 0x8000000
8014ccc8:	e5803010 	str	r3, [r0, #16]
8014cccc:	e5804004 	str	r4, [r0, #4]
8014ccd0:	e580400c 	str	r4, [r0, #12]
8014ccd4:	e5802008 	str	r2, [r0, #8]
8014ccd8:	e5804014 	str	r4, [r0, #20]
8014ccdc:	e5804018 	str	r4, [r0, #24]
8014cce0:	ebffee89 	bl	8014870c <__RME_A7A_Write_Release>
8014cce4:	e1a01004 	mov	r1, r4
8014cce8:	eafffa40 	b	8014b5f0 <_RME_Svc_Handler+0x150>
8014ccec:	e1cd23d8 	ldrd	r2, [sp, #56]	; 0x38
8014ccf0:	e59d1040 	ldr	r1, [sp, #64]	; 0x40
8014ccf4:	e20ce040 	and	lr, ip, #64	; 0x40
8014ccf8:	e1a0c3ac 	lsr	ip, ip, #7
8014ccfc:	e1a00006 	mov	r0, r6
8014cd00:	e58dc00c 	str	ip, [sp, #12]
8014cd04:	e6ffc073 	uxth	ip, r3
8014cd08:	e1a03823 	lsr	r3, r3, #16
8014cd0c:	e58d1008 	str	r1, [sp, #8]
8014cd10:	e58d3000 	str	r3, [sp]
8014cd14:	e6ff3072 	uxth	r3, r2
8014cd18:	e59d1034 	ldr	r1, [sp, #52]	; 0x34
8014cd1c:	e1a02822 	lsr	r2, r2, #16
8014cd20:	e58de010 	str	lr, [sp, #16]
8014cd24:	e58dc004 	str	ip, [sp, #4]
8014cd28:	ebfff65e 	bl	8014a6a8 <_RME_Thd_Crt>
8014cd2c:	e1a01000 	mov	r1, r0
8014cd30:	eafffa2e 	b	8014b5f0 <_RME_Svc_Handler+0x150>
8014cd34:	e59d303c 	ldr	r3, [sp, #60]	; 0x3c
8014cd38:	e1a00006 	mov	r0, r6
8014cd3c:	e59d2040 	ldr	r2, [sp, #64]	; 0x40
8014cd40:	e59d1038 	ldr	r1, [sp, #56]	; 0x38
8014cd44:	e6ffc073 	uxth	ip, r3
8014cd48:	e58d2008 	str	r2, [sp, #8]
8014cd4c:	e1a02823 	lsr	r2, r3, #16
8014cd50:	e58d2000 	str	r2, [sp]
8014cd54:	e6ff2071 	uxth	r2, r1
8014cd58:	e59d3034 	ldr	r3, [sp, #52]	; 0x34
8014cd5c:	e1a01821 	lsr	r1, r1, #16
8014cd60:	e58dc004 	str	ip, [sp, #4]
8014cd64:	ebfff059 	bl	80148ed0 <_RME_Pgt_Add>
8014cd68:	e1a01000 	mov	r1, r0
8014cd6c:	eafffa1f 	b	8014b5f0 <_RME_Svc_Handler+0x150>
8014cd70:	e59d4034 	ldr	r4, [sp, #52]	; 0x34
8014cd74:	e59d7038 	ldr	r7, [sp, #56]	; 0x38
8014cd78:	e596200c 	ldr	r2, [r6, #12]
8014cd7c:	e3140080 	tst	r4, #128	; 0x80
8014cd80:	e5963014 	ldr	r3, [r6, #20]
8014cd84:	1a00006b 	bne	8014cf38 <_RME_Svc_Handler+0x1a98>
8014cd88:	e1540003 	cmp	r4, r3
8014cd8c:	2afffc53 	bcs	8014bee0 <_RME_Svc_Handler+0xa40>
8014cd90:	e0824284 	add	r4, r2, r4, lsl #5
8014cd94:	e1a00004 	mov	r0, r4
8014cd98:	ebffee58 	bl	80148700 <__RME_A7A_Read_Acquire>
8014cd9c:	e7e72850 	ubfx	r2, r0, #16, #8
8014cda0:	e3520002 	cmp	r2, #2
8014cda4:	0afffdf2 	beq	8014c574 <_RME_Svc_Handler+0x10d4>
8014cda8:	e1a03c20 	lsr	r3, r0, #24
8014cdac:	e3530003 	cmp	r3, #3
8014cdb0:	1afffcda 	bne	8014c120 <_RME_Svc_Handler+0xc80>
8014cdb4:	e5943008 	ldr	r3, [r4, #8]
8014cdb8:	e3130002 	tst	r3, #2
8014cdbc:	0afffc65 	beq	8014bf58 <_RME_Svc_Handler+0xab8>
8014cdc0:	e5943014 	ldr	r3, [r4, #20]
8014cdc4:	e1570003 	cmp	r7, r3
8014cdc8:	2afffc44 	bcs	8014bee0 <_RME_Svc_Handler+0xa40>
8014cdcc:	e594800c 	ldr	r8, [r4, #12]
8014cdd0:	e0886287 	add	r6, r8, r7, lsl #5
8014cdd4:	e1a00006 	mov	r0, r6
8014cdd8:	ebffee48 	bl	80148700 <__RME_A7A_Read_Acquire>
8014cddc:	e7e73850 	ubfx	r3, r0, #16, #8
8014cde0:	e1a04000 	mov	r4, r0
8014cde4:	e3530002 	cmp	r3, #2
8014cde8:	1afffde1 	bne	8014c574 <_RME_Svc_Handler+0x10d4>
8014cdec:	e1a03c20 	lsr	r3, r0, #24
8014cdf0:	e3530004 	cmp	r3, #4
8014cdf4:	1afffcc9 	bne	8014c120 <_RME_Svc_Handler+0xc80>
8014cdf8:	e5963004 	ldr	r3, [r6, #4]
8014cdfc:	e3530000 	cmp	r3, #0
8014ce00:	e6ff3070 	uxth	r3, r0
8014ce04:	1a000071 	bne	8014cfd0 <_RME_Svc_Handler+0x1b30>
8014ce08:	e3530000 	cmp	r3, #0
8014ce0c:	0a000078 	beq	8014cff4 <_RME_Svc_Handler+0x1b54>
8014ce10:	e30d3d80 	movw	r3, #56704	; 0xdd80
8014ce14:	e30d2d8c 	movw	r2, #56716	; 0xdd8c
8014ce18:	e3483014 	movt	r3, #32788	; 0x8014
8014ce1c:	e30d0d98 	movw	r0, #56728	; 0xdd98
8014ce20:	e3482014 	movt	r2, #32788	; 0x8014
8014ce24:	e3a01d33 	mov	r1, #3264	; 0xcc0
8014ce28:	e3480014 	movt	r0, #32788	; 0x8014
8014ce2c:	ebfff1e3 	bl	801495c0 <RME_Log>
8014ce30:	eafffffe 	b	8014ce30 <_RME_Svc_Handler+0x1990>
8014ce34:	e59d2038 	ldr	r2, [sp, #56]	; 0x38
8014ce38:	e1a00006 	mov	r0, r6
8014ce3c:	e59d3040 	ldr	r3, [sp, #64]	; 0x40
8014ce40:	e1a0c42c 	lsr	ip, ip, #8
8014ce44:	e6ef1072 	uxtb	r1, r2
8014ce48:	e58d100c 	str	r1, [sp, #12]
8014ce4c:	e2031001 	and	r1, r3, #1
8014ce50:	e58d1008 	str	r1, [sp, #8]
8014ce54:	e59d103c 	ldr	r1, [sp, #60]	; 0x3c
8014ce58:	e3c33001 	bic	r3, r3, #1
8014ce5c:	e88d000a 	stm	sp, {r1, r3}
8014ce60:	e58dc010 	str	ip, [sp, #16]
8014ce64:	e7e73452 	ubfx	r3, r2, #8, #8
8014ce68:	e59d1034 	ldr	r1, [sp, #52]	; 0x34
8014ce6c:	e1a02822 	lsr	r2, r2, #16
8014ce70:	ebfff562 	bl	8014a400 <_RME_Pgt_Crt>
8014ce74:	e1a01000 	mov	r1, r0
8014ce78:	eafff9dc 	b	8014b5f0 <_RME_Svc_Handler+0x150>
8014ce7c:	e59d4034 	ldr	r4, [sp, #52]	; 0x34
8014ce80:	e59d7038 	ldr	r7, [sp, #56]	; 0x38
8014ce84:	e596200c 	ldr	r2, [r6, #12]
8014ce88:	e3140080 	tst	r4, #128	; 0x80
8014ce8c:	e5963014 	ldr	r3, [r6, #20]
8014ce90:	1a00003b 	bne	8014cf84 <_RME_Svc_Handler+0x1ae4>
8014ce94:	e1540003 	cmp	r4, r3
8014ce98:	2afffc10 	bcs	8014bee0 <_RME_Svc_Handler+0xa40>
8014ce9c:	e0824284 	add	r4, r2, r4, lsl #5
8014cea0:	e1a00004 	mov	r0, r4
8014cea4:	ebffee15 	bl	80148700 <__RME_A7A_Read_Acquire>
8014cea8:	e7e72850 	ubfx	r2, r0, #16, #8
8014ceac:	e3520002 	cmp	r2, #2
8014ceb0:	0afffdaf 	beq	8014c574 <_RME_Svc_Handler+0x10d4>
8014ceb4:	e1a03c20 	lsr	r3, r0, #24
8014ceb8:	e3530003 	cmp	r3, #3
8014cebc:	1afffc97 	bne	8014c120 <_RME_Svc_Handler+0xc80>
8014cec0:	e5943008 	ldr	r3, [r4, #8]
8014cec4:	e3130020 	tst	r3, #32
8014cec8:	0afffc22 	beq	8014bf58 <_RME_Svc_Handler+0xab8>
8014cecc:	e5943014 	ldr	r3, [r4, #20]
8014ced0:	e1570003 	cmp	r7, r3
8014ced4:	2afffc01 	bcs	8014bee0 <_RME_Svc_Handler+0xa40>
8014ced8:	e594400c 	ldr	r4, [r4, #12]
8014cedc:	e0846287 	add	r6, r4, r7, lsl #5
8014cee0:	e1a00006 	mov	r0, r6
8014cee4:	ebffee05 	bl	80148700 <__RME_A7A_Read_Acquire>
8014cee8:	e7e72850 	ubfx	r2, r0, #16, #8
8014ceec:	e3520002 	cmp	r2, #2
8014cef0:	1afffd9f 	bne	8014c574 <_RME_Svc_Handler+0x10d4>
8014cef4:	e6ff2070 	uxth	r2, r0
8014cef8:	e3520000 	cmp	r2, #0
8014cefc:	0a000053 	beq	8014d050 <_RME_Svc_Handler+0x1bb0>
8014cf00:	e1a02c20 	lsr	r2, r0, #24
8014cf04:	e2422001 	sub	r2, r2, #1
8014cf08:	e3520001 	cmp	r2, #1
8014cf0c:	9a000051 	bls	8014d058 <_RME_Svc_Handler+0x1bb8>
8014cf10:	e5962004 	ldr	r2, [r6, #4]
8014cf14:	e7941287 	ldr	r1, [r4, r7, lsl #5]
8014cf18:	e1500001 	cmp	r0, r1
8014cf1c:	1afffe1c 	bne	8014c794 <_RME_Svc_Handler+0x12f4>
8014cf20:	e3a01000 	mov	r1, #0
8014cf24:	e7841287 	str	r1, [r4, r7, lsl #5]
8014cf28:	e5923004 	ldr	r3, [r2, #4]
8014cf2c:	e2433001 	sub	r3, r3, #1
8014cf30:	e5823004 	str	r3, [r2, #4]
8014cf34:	eafff9ad 	b	8014b5f0 <_RME_Svc_Handler+0x150>
8014cf38:	e1530424 	cmp	r3, r4, lsr #8
8014cf3c:	e1a06424 	lsr	r6, r4, #8
8014cf40:	9afffbe6 	bls	8014bee0 <_RME_Svc_Handler+0xa40>
8014cf44:	e0826286 	add	r6, r2, r6, lsl #5
8014cf48:	e1a00006 	mov	r0, r6
8014cf4c:	ebffedeb 	bl	80148700 <__RME_A7A_Read_Acquire>
8014cf50:	e7e73850 	ubfx	r3, r0, #16, #8
8014cf54:	e3530002 	cmp	r3, #2
8014cf58:	0afffd85 	beq	8014c574 <_RME_Svc_Handler+0x10d4>
8014cf5c:	e1a02c20 	lsr	r2, r0, #24
8014cf60:	e3520003 	cmp	r2, #3
8014cf64:	1afffc6d 	bne	8014c120 <_RME_Svc_Handler+0xc80>
8014cf68:	e5962014 	ldr	r2, [r6, #20]
8014cf6c:	e204307f 	and	r3, r4, #127	; 0x7f
8014cf70:	e1530002 	cmp	r3, r2
8014cf74:	2afffbd9 	bcs	8014bee0 <_RME_Svc_Handler+0xa40>
8014cf78:	e596400c 	ldr	r4, [r6, #12]
8014cf7c:	e0844283 	add	r4, r4, r3, lsl #5
8014cf80:	eaffff83 	b	8014cd94 <_RME_Svc_Handler+0x18f4>
8014cf84:	e1530424 	cmp	r3, r4, lsr #8
8014cf88:	e1a06424 	lsr	r6, r4, #8
8014cf8c:	9afffbd3 	bls	8014bee0 <_RME_Svc_Handler+0xa40>
8014cf90:	e0826286 	add	r6, r2, r6, lsl #5
8014cf94:	e1a00006 	mov	r0, r6
8014cf98:	ebffedd8 	bl	80148700 <__RME_A7A_Read_Acquire>
8014cf9c:	e7e73850 	ubfx	r3, r0, #16, #8
8014cfa0:	e3530002 	cmp	r3, #2
8014cfa4:	0afffd72 	beq	8014c574 <_RME_Svc_Handler+0x10d4>
8014cfa8:	e1a02c20 	lsr	r2, r0, #24
8014cfac:	e3520003 	cmp	r2, #3
8014cfb0:	1afffc5a 	bne	8014c120 <_RME_Svc_Handler+0xc80>
8014cfb4:	e5962014 	ldr	r2, [r6, #20]
8014cfb8:	e204307f 	and	r3, r4, #127	; 0x7f
8014cfbc:	e1530002 	cmp	r3, r2
8014cfc0:	2afffbc6 	bcs	8014bee0 <_RME_Svc_Handler+0xa40>
8014cfc4:	e596400c 	ldr	r4, [r6, #12]
8014cfc8:	e0844283 	add	r4, r4, r3, lsl #5
8014cfcc:	eaffffb3 	b	8014cea0 <_RME_Svc_Handler+0x1a00>
8014cfd0:	e3530000 	cmp	r3, #0
8014cfd4:	1afffead 	bne	8014ca90 <_RME_Svc_Handler+0x15f0>
8014cfd8:	e7983287 	ldr	r3, [r8, r7, lsl #5]
8014cfdc:	e1500003 	cmp	r0, r3
8014cfe0:	03c048ff 	biceq	r4, r0, #16711680	; 0xff0000
8014cfe4:	03e01005 	mvneq	r1, #5
8014cfe8:	07884287 	streq	r4, [r8, r7, lsl #5]
8014cfec:	1afffea7 	bne	8014ca90 <_RME_Svc_Handler+0x15f0>
8014cff0:	eafff97e 	b	8014b5f0 <_RME_Svc_Handler+0x150>
8014cff4:	e1a00006 	mov	r0, r6
8014cff8:	eb00034a 	bl	8014dd28 <__RME_Pgt_Del_Check>
8014cffc:	e1d631b4 	ldrh	r3, [r6, #20]
8014d000:	e3a01001 	mov	r1, #1
8014d004:	e1a01311 	lsl	r1, r1, r3
8014d008:	e7983287 	ldr	r3, [r8, r7, lsl #5]
8014d00c:	e1540003 	cmp	r4, r3
8014d010:	1afffddf 	bne	8014c794 <_RME_Svc_Handler+0x12f4>
8014d014:	e596000c 	ldr	r0, [r6, #12]
8014d018:	e3a03000 	mov	r3, #0
8014d01c:	e7883287 	str	r3, [r8, r7, lsl #5]
8014d020:	ebfff740 	bl	8014ad28 <_RME_Kot_Erase>
8014d024:	e2501000 	subs	r1, r0, #0
8014d028:	0afff970 	beq	8014b5f0 <_RME_Svc_Handler+0x150>
8014d02c:	e30d3d80 	movw	r3, #56704	; 0xdd80
8014d030:	e30d2d8c 	movw	r2, #56716	; 0xdd8c
8014d034:	e3483014 	movt	r3, #32788	; 0x8014
8014d038:	e30d0d98 	movw	r0, #56728	; 0xdd98
8014d03c:	e3482014 	movt	r2, #32788	; 0x8014
8014d040:	e3001ce7 	movw	r1, #3303	; 0xce7
8014d044:	e3480014 	movt	r0, #32788	; 0x8014
8014d048:	ebfff15c 	bl	801495c0 <RME_Log>
8014d04c:	eafffffe 	b	8014d04c <_RME_Svc_Handler+0x1bac>
8014d050:	e3e01009 	mvn	r1, #9
8014d054:	eafff965 	b	8014b5f0 <_RME_Svc_Handler+0x150>
8014d058:	e7942287 	ldr	r2, [r4, r7, lsl #5]
8014d05c:	e1500002 	cmp	r0, r2
8014d060:	03a01000 	moveq	r1, #0
8014d064:	07841287 	streq	r1, [r4, r7, lsl #5]
8014d068:	1afffdc9 	bne	8014c794 <_RME_Svc_Handler+0x12f4>
8014d06c:	eafff95f 	b	8014b5f0 <_RME_Svc_Handler+0x150>
8014d070:	e59d2034 	ldr	r2, [sp, #52]	; 0x34
8014d074:	e1a00006 	mov	r0, r6
8014d078:	e59d303c 	ldr	r3, [sp, #60]	; 0x3c
8014d07c:	e182c80c 	orr	ip, r2, ip, lsl #16
8014d080:	e59d2040 	ldr	r2, [sp, #64]	; 0x40
8014d084:	e59d1038 	ldr	r1, [sp, #56]	; 0x38
8014d088:	e58d2004 	str	r2, [sp, #4]
8014d08c:	e6ff2073 	uxth	r2, r3
8014d090:	e58d2000 	str	r2, [sp]
8014d094:	e6ff2071 	uxth	r2, r1
8014d098:	e1a03823 	lsr	r3, r3, #16
8014d09c:	e1a01821 	lsr	r1, r1, #16
8014d0a0:	e58dc008 	str	ip, [sp, #8]
8014d0a4:	ebffedfb 	bl	80148898 <_RME_Cpt_Add>
8014d0a8:	e1a01000 	mov	r1, r0
8014d0ac:	eafff94f 	b	8014b5f0 <_RME_Svc_Handler+0x150>
8014d0b0:	e59d2038 	ldr	r2, [sp, #56]	; 0x38
8014d0b4:	e1a00006 	mov	r0, r6
8014d0b8:	e59d1040 	ldr	r1, [sp, #64]	; 0x40
8014d0bc:	e59d303c 	ldr	r3, [sp, #60]	; 0x3c
8014d0c0:	e58d1004 	str	r1, [sp, #4]
8014d0c4:	e58d3000 	str	r3, [sp]
8014d0c8:	e6ff3072 	uxth	r3, r2
8014d0cc:	e59d1034 	ldr	r1, [sp, #52]	; 0x34
8014d0d0:	e1a02822 	lsr	r2, r2, #16
8014d0d4:	ebfff437 	bl	8014a1b8 <_RME_Cpt_Crt>
8014d0d8:	e1a01000 	mov	r1, r0
8014d0dc:	eafff943 	b	8014b5f0 <_RME_Svc_Handler+0x150>
8014d0e0:	e1540002 	cmp	r4, r2
8014d0e4:	3afffd0b 	bcc	8014c518 <_RME_Svc_Handler+0x1078>
8014d0e8:	eafffb7c 	b	8014bee0 <_RME_Svc_Handler+0xa40>
8014d0ec:	e59d4034 	ldr	r4, [sp, #52]	; 0x34
8014d0f0:	e59d7038 	ldr	r7, [sp, #56]	; 0x38
8014d0f4:	e596200c 	ldr	r2, [r6, #12]
8014d0f8:	e3140080 	tst	r4, #128	; 0x80
8014d0fc:	e5963014 	ldr	r3, [r6, #20]
8014d100:	1a00002c 	bne	8014d1b8 <_RME_Svc_Handler+0x1d18>
8014d104:	e1540003 	cmp	r4, r3
8014d108:	2afffb74 	bcs	8014bee0 <_RME_Svc_Handler+0xa40>
8014d10c:	e0824284 	add	r4, r2, r4, lsl #5
8014d110:	e1a00004 	mov	r0, r4
8014d114:	ebffed79 	bl	80148700 <__RME_A7A_Read_Acquire>
8014d118:	e7e72850 	ubfx	r2, r0, #16, #8
8014d11c:	e3520002 	cmp	r2, #2
8014d120:	0afffd13 	beq	8014c574 <_RME_Svc_Handler+0x10d4>
8014d124:	e1a03c20 	lsr	r3, r0, #24
8014d128:	e3530003 	cmp	r3, #3
8014d12c:	1afffbfb 	bne	8014c120 <_RME_Svc_Handler+0xc80>
8014d130:	e5943008 	ldr	r3, [r4, #8]
8014d134:	e3130004 	tst	r3, #4
8014d138:	0afffb86 	beq	8014bf58 <_RME_Svc_Handler+0xab8>
8014d13c:	e5943014 	ldr	r3, [r4, #20]
8014d140:	e1570003 	cmp	r7, r3
8014d144:	2afffb65 	bcs	8014bee0 <_RME_Svc_Handler+0xa40>
8014d148:	e594400c 	ldr	r4, [r4, #12]
8014d14c:	e0846287 	add	r6, r4, r7, lsl #5
8014d150:	e1a00006 	mov	r0, r6
8014d154:	ebffed69 	bl	80148700 <__RME_A7A_Read_Acquire>
8014d158:	e1b02c20 	lsrs	r2, r0, #24
8014d15c:	e1a03000 	mov	r3, r0
8014d160:	0afffd8b 	beq	8014c794 <_RME_Svc_Handler+0x12f4>
8014d164:	e6ff2070 	uxth	r2, r0
8014d168:	e3520000 	cmp	r2, #0
8014d16c:	1a000002 	bne	8014d17c <_RME_Svc_Handler+0x1cdc>
8014d170:	e5962004 	ldr	r2, [r6, #4]
8014d174:	e3520000 	cmp	r2, #0
8014d178:	1afffe44 	bne	8014ca90 <_RME_Svc_Handler+0x15f0>
8014d17c:	e7e72853 	ubfx	r2, r3, #16, #8
8014d180:	e3520002 	cmp	r2, #2
8014d184:	0afffcfa 	beq	8014c574 <_RME_Svc_Handler+0x10d4>
8014d188:	e30e2114 	movw	r2, #57620	; 0xe114
8014d18c:	e3482094 	movt	r2, #32916	; 0x8094
8014d190:	e5922000 	ldr	r2, [r2]
8014d194:	e5862010 	str	r2, [r6, #16]
8014d198:	e7942287 	ldr	r2, [r4, r7, lsl #5]
8014d19c:	e1530002 	cmp	r3, r2
8014d1a0:	13a01000 	movne	r1, #0
8014d1a4:	03c338ff 	biceq	r3, r3, #16711680	; 0xff0000
8014d1a8:	03a01000 	moveq	r1, #0
8014d1ac:	03833802 	orreq	r3, r3, #131072	; 0x20000
8014d1b0:	07843287 	streq	r3, [r4, r7, lsl #5]
8014d1b4:	eafff90d 	b	8014b5f0 <_RME_Svc_Handler+0x150>
8014d1b8:	e1530424 	cmp	r3, r4, lsr #8
8014d1bc:	e1a06424 	lsr	r6, r4, #8
8014d1c0:	9afffb46 	bls	8014bee0 <_RME_Svc_Handler+0xa40>
8014d1c4:	e0826286 	add	r6, r2, r6, lsl #5
8014d1c8:	e1a00006 	mov	r0, r6
8014d1cc:	ebffed4b 	bl	80148700 <__RME_A7A_Read_Acquire>
8014d1d0:	e7e73850 	ubfx	r3, r0, #16, #8
8014d1d4:	e3530002 	cmp	r3, #2
8014d1d8:	0afffce5 	beq	8014c574 <_RME_Svc_Handler+0x10d4>
8014d1dc:	e1a02c20 	lsr	r2, r0, #24
8014d1e0:	e3520003 	cmp	r2, #3
8014d1e4:	1afffbcd 	bne	8014c120 <_RME_Svc_Handler+0xc80>
8014d1e8:	e5962014 	ldr	r2, [r6, #20]
8014d1ec:	e204307f 	and	r3, r4, #127	; 0x7f
8014d1f0:	e1530002 	cmp	r3, r2
8014d1f4:	2afffb39 	bcs	8014bee0 <_RME_Svc_Handler+0xa40>
8014d1f8:	e596400c 	ldr	r4, [r6, #12]
8014d1fc:	e0844283 	add	r4, r4, r3, lsl #5
8014d200:	eaffffc2 	b	8014d110 <_RME_Svc_Handler+0x1c70>
8014d204:	e3520000 	cmp	r2, #0
8014d208:	1a00001e 	bne	8014d288 <_RME_Svc_Handler+0x1de8>
8014d20c:	e596100c 	ldr	r1, [r6, #12]
8014d210:	e5960014 	ldr	r0, [r6, #20]
8014d214:	e3500000 	cmp	r0, #0
8014d218:	0a000006 	beq	8014d238 <_RME_Svc_Handler+0x1d98>
8014d21c:	e591c000 	ldr	ip, [r1]
8014d220:	e2822001 	add	r2, r2, #1
8014d224:	e2811020 	add	r1, r1, #32
8014d228:	e35c0000 	cmp	ip, #0
8014d22c:	1a00001e 	bne	8014d2ac <_RME_Svc_Handler+0x1e0c>
8014d230:	e1500002 	cmp	r0, r2
8014d234:	1afffff8 	bne	8014d21c <_RME_Svc_Handler+0x1d7c>
8014d238:	e596000c 	ldr	r0, [r6, #12]
8014d23c:	e5961014 	ldr	r1, [r6, #20]
8014d240:	e7942287 	ldr	r2, [r4, r7, lsl #5]
8014d244:	e1530002 	cmp	r3, r2
8014d248:	1afffd51 	bne	8014c794 <_RME_Svc_Handler+0x12f4>
8014d24c:	e1a01281 	lsl	r1, r1, #5
8014d250:	e3a03000 	mov	r3, #0
8014d254:	e7843287 	str	r3, [r4, r7, lsl #5]
8014d258:	ebfff6b2 	bl	8014ad28 <_RME_Kot_Erase>
8014d25c:	e2501000 	subs	r1, r0, #0
8014d260:	0afff8e2 	beq	8014b5f0 <_RME_Svc_Handler+0x150>
8014d264:	e30d3d80 	movw	r3, #56704	; 0xdd80
8014d268:	e30d2d8c 	movw	r2, #56716	; 0xdd8c
8014d26c:	e3483014 	movt	r3, #32788	; 0x8014
8014d270:	e30d0d98 	movw	r0, #56728	; 0xdd98
8014d274:	e3482014 	movt	r2, #32788	; 0x8014
8014d278:	e3001816 	movw	r1, #2070	; 0x816
8014d27c:	e3480014 	movt	r0, #32788	; 0x8014
8014d280:	ebfff0ce 	bl	801495c0 <RME_Log>
8014d284:	eafffffe 	b	8014d284 <_RME_Svc_Handler+0x1de4>
8014d288:	e30d3d80 	movw	r3, #56704	; 0xdd80
8014d28c:	e30d2d8c 	movw	r2, #56716	; 0xdd8c
8014d290:	e3483014 	movt	r3, #32788	; 0x8014
8014d294:	e30d0d98 	movw	r0, #56728	; 0xdd98
8014d298:	e3482014 	movt	r2, #32788	; 0x8014
8014d29c:	e30017f5 	movw	r1, #2037	; 0x7f5
8014d2a0:	e3480014 	movt	r0, #32788	; 0x8014
8014d2a4:	ebfff0c5 	bl	801495c0 <RME_Log>
8014d2a8:	eafffffe 	b	8014d2a8 <_RME_Svc_Handler+0x1e08>
8014d2ac:	e7942287 	ldr	r2, [r4, r7, lsl #5]
8014d2b0:	e1530002 	cmp	r3, r2
8014d2b4:	03c338ff 	biceq	r3, r3, #16711680	; 0xff0000
8014d2b8:	03e01004 	mvneq	r1, #4
8014d2bc:	07843287 	streq	r3, [r4, r7, lsl #5]
8014d2c0:	1afffd81 	bne	8014c8cc <_RME_Svc_Handler+0x142c>
8014d2c4:	eafff8c9 	b	8014b5f0 <_RME_Svc_Handler+0x150>
8014d2c8:	e59d1040 	ldr	r1, [sp, #64]	; 0x40
8014d2cc:	e1a00006 	mov	r0, r6
8014d2d0:	e1cd23d8 	ldrd	r2, [sp, #56]	; 0x38
8014d2d4:	e58d1000 	str	r1, [sp]
8014d2d8:	e59d1034 	ldr	r1, [sp, #52]	; 0x34
8014d2dc:	ebffee55 	bl	80148c38 <_RME_Prc_Crt>
8014d2e0:	e1a01000 	mov	r1, r0
8014d2e4:	eafff8c1 	b	8014b5f0 <_RME_Svc_Handler+0x150>
8014d2e8:	e59d1038 	ldr	r1, [sp, #56]	; 0x38
8014d2ec:	e1a00006 	mov	r0, r6
8014d2f0:	e1cd23dc 	ldrd	r2, [sp, #60]	; 0x3c
8014d2f4:	ebffeffc 	bl	801492ec <_RME_Pgt_Des>
8014d2f8:	e1a01000 	mov	r1, r0
8014d2fc:	eafff8bb 	b	8014b5f0 <_RME_Svc_Handler+0x150>
8014d300:	e28d1038 	add	r1, sp, #56	; 0x38
8014d304:	e1a00006 	mov	r0, r6
8014d308:	e891000e 	ldm	r1, {r1, r2, r3}
8014d30c:	e58d3000 	str	r3, [sp]
8014d310:	e6ff3071 	uxth	r3, r1
8014d314:	e1a01821 	lsr	r1, r1, #16
8014d318:	ebffef79 	bl	80149104 <_RME_Pgt_Con>
8014d31c:	e1a01000 	mov	r1, r0
8014d320:	eafff8b2 	b	8014b5f0 <_RME_Svc_Handler+0x150>
8014d324:	e59d8038 	ldr	r8, [sp, #56]	; 0x38
8014d328:	e59d703c 	ldr	r7, [sp, #60]	; 0x3c
8014d32c:	e596400c 	ldr	r4, [r6, #12]
8014d330:	e3180080 	tst	r8, #128	; 0x80
8014d334:	e5963014 	ldr	r3, [r6, #20]
8014d338:	1a000118 	bne	8014d7a0 <_RME_Svc_Handler+0x2300>
8014d33c:	e1580003 	cmp	r8, r3
8014d340:	2afffae6 	bcs	8014bee0 <_RME_Svc_Handler+0xa40>
8014d344:	e0844288 	add	r4, r4, r8, lsl #5
8014d348:	e1a00004 	mov	r0, r4
8014d34c:	ebffeceb 	bl	80148700 <__RME_A7A_Read_Acquire>
8014d350:	e7e72850 	ubfx	r2, r0, #16, #8
8014d354:	e3520002 	cmp	r2, #2
8014d358:	0afffc85 	beq	8014c574 <_RME_Svc_Handler+0x10d4>
8014d35c:	e1a03c20 	lsr	r3, r0, #24
8014d360:	e3530003 	cmp	r3, #3
8014d364:	1afffb6d 	bne	8014c120 <_RME_Svc_Handler+0xc80>
8014d368:	e5943008 	ldr	r3, [r4, #8]
8014d36c:	e3130004 	tst	r3, #4
8014d370:	0afffaf8 	beq	8014bf58 <_RME_Svc_Handler+0xab8>
8014d374:	e1570a23 	cmp	r7, r3, lsr #20
8014d378:	8afffaf6 	bhi	8014bf58 <_RME_Svc_Handler+0xab8>
8014d37c:	e7eb3453 	ubfx	r3, r3, #8, #12
8014d380:	e1570003 	cmp	r7, r3
8014d384:	3afffaf3 	bcc	8014bf58 <_RME_Svc_Handler+0xab8>
8014d388:	e1d431b4 	ldrh	r3, [r4, #20]
8014d38c:	e1b06337 	lsrs	r6, r7, r3
8014d390:	1a00012a 	bne	8014d840 <_RME_Svc_Handler+0x23a0>
8014d394:	e1a01007 	mov	r1, r7
8014d398:	e1a00004 	mov	r0, r4
8014d39c:	eb000264 	bl	8014dd34 <__RME_Pgt_Page_Unmap>
8014d3a0:	e1a01006 	mov	r1, r6
8014d3a4:	eafff891 	b	8014b5f0 <_RME_Svc_Handler+0x150>
8014d3a8:	e59d4038 	ldr	r4, [sp, #56]	; 0x38
8014d3ac:	e59d703c 	ldr	r7, [sp, #60]	; 0x3c
8014d3b0:	e3140080 	tst	r4, #128	; 0x80
8014d3b4:	1a000063 	bne	8014d548 <_RME_Svc_Handler+0x20a8>
8014d3b8:	e5963014 	ldr	r3, [r6, #20]
8014d3bc:	e1540003 	cmp	r4, r3
8014d3c0:	2afffac6 	bcs	8014bee0 <_RME_Svc_Handler+0xa40>
8014d3c4:	e596300c 	ldr	r3, [r6, #12]
8014d3c8:	e0834284 	add	r4, r3, r4, lsl #5
8014d3cc:	e1a00004 	mov	r0, r4
8014d3d0:	ebffecca 	bl	80148700 <__RME_A7A_Read_Acquire>
8014d3d4:	e7e72850 	ubfx	r2, r0, #16, #8
8014d3d8:	e3520002 	cmp	r2, #2
8014d3dc:	0afffc64 	beq	8014c574 <_RME_Svc_Handler+0x10d4>
8014d3e0:	e1a03c20 	lsr	r3, r0, #24
8014d3e4:	e3530005 	cmp	r3, #5
8014d3e8:	1afffb4c 	bne	8014c120 <_RME_Svc_Handler+0xc80>
8014d3ec:	e3170080 	tst	r7, #128	; 0x80
8014d3f0:	1a00007c 	bne	8014d5e8 <_RME_Svc_Handler+0x2148>
8014d3f4:	e5963014 	ldr	r3, [r6, #20]
8014d3f8:	e1570003 	cmp	r7, r3
8014d3fc:	2afffab7 	bcs	8014bee0 <_RME_Svc_Handler+0xa40>
8014d400:	e596300c 	ldr	r3, [r6, #12]
8014d404:	e0837287 	add	r7, r3, r7, lsl #5
8014d408:	e1a00007 	mov	r0, r7
8014d40c:	ebffecbb 	bl	80148700 <__RME_A7A_Read_Acquire>
8014d410:	e7e72850 	ubfx	r2, r0, #16, #8
8014d414:	e3520002 	cmp	r2, #2
8014d418:	0afffc55 	beq	8014c574 <_RME_Svc_Handler+0x10d4>
8014d41c:	e1a03c20 	lsr	r3, r0, #24
8014d420:	e3530003 	cmp	r3, #3
8014d424:	1afffb3d 	bne	8014c120 <_RME_Svc_Handler+0xc80>
8014d428:	e5943008 	ldr	r3, [r4, #8]
8014d42c:	e3130004 	tst	r3, #4
8014d430:	0afffac8 	beq	8014bf58 <_RME_Svc_Handler+0xab8>
8014d434:	e5973008 	ldr	r3, [r7, #8]
8014d438:	e3130080 	tst	r3, #128	; 0x80
8014d43c:	0afffac5 	beq	8014bf58 <_RME_Svc_Handler+0xab8>
8014d440:	e1d730b0 	ldrh	r3, [r7]
8014d444:	e3a01000 	mov	r1, #0
8014d448:	e5942014 	ldr	r2, [r4, #20]
8014d44c:	e3530000 	cmp	r3, #0
8014d450:	15977004 	ldrne	r7, [r7, #4]
8014d454:	e5847014 	str	r7, [r4, #20]
8014d458:	e5973004 	ldr	r3, [r7, #4]
8014d45c:	e2833001 	add	r3, r3, #1
8014d460:	e5873004 	str	r3, [r7, #4]
8014d464:	e5923004 	ldr	r3, [r2, #4]
8014d468:	e2433001 	sub	r3, r3, #1
8014d46c:	e5823004 	str	r3, [r2, #4]
8014d470:	eafff85e 	b	8014b5f0 <_RME_Svc_Handler+0x150>
8014d474:	e59d4034 	ldr	r4, [sp, #52]	; 0x34
8014d478:	e59d7038 	ldr	r7, [sp, #56]	; 0x38
8014d47c:	e596200c 	ldr	r2, [r6, #12]
8014d480:	e3140080 	tst	r4, #128	; 0x80
8014d484:	e5963014 	ldr	r3, [r6, #20]
8014d488:	1a000043 	bne	8014d59c <_RME_Svc_Handler+0x20fc>
8014d48c:	e1540003 	cmp	r4, r3
8014d490:	2afffa92 	bcs	8014bee0 <_RME_Svc_Handler+0xa40>
8014d494:	e0824284 	add	r4, r2, r4, lsl #5
8014d498:	e1a00004 	mov	r0, r4
8014d49c:	ebffec97 	bl	80148700 <__RME_A7A_Read_Acquire>
8014d4a0:	e7e72850 	ubfx	r2, r0, #16, #8
8014d4a4:	e3520002 	cmp	r2, #2
8014d4a8:	0afffc31 	beq	8014c574 <_RME_Svc_Handler+0x10d4>
8014d4ac:	e1a03c20 	lsr	r3, r0, #24
8014d4b0:	e3530003 	cmp	r3, #3
8014d4b4:	1afffb19 	bne	8014c120 <_RME_Svc_Handler+0xc80>
8014d4b8:	e5943008 	ldr	r3, [r4, #8]
8014d4bc:	e3130002 	tst	r3, #2
8014d4c0:	0afffaa4 	beq	8014bf58 <_RME_Svc_Handler+0xab8>
8014d4c4:	e5943014 	ldr	r3, [r4, #20]
8014d4c8:	e1570003 	cmp	r7, r3
8014d4cc:	2afffa83 	bcs	8014bee0 <_RME_Svc_Handler+0xa40>
8014d4d0:	e594400c 	ldr	r4, [r4, #12]
8014d4d4:	e0846287 	add	r6, r4, r7, lsl #5
8014d4d8:	e1a00006 	mov	r0, r6
8014d4dc:	ebffec87 	bl	80148700 <__RME_A7A_Read_Acquire>
8014d4e0:	e7e72850 	ubfx	r2, r0, #16, #8
8014d4e4:	e1a03000 	mov	r3, r0
8014d4e8:	e3520002 	cmp	r2, #2
8014d4ec:	1afffc20 	bne	8014c574 <_RME_Svc_Handler+0x10d4>
8014d4f0:	e1a02c20 	lsr	r2, r0, #24
8014d4f4:	e3520005 	cmp	r2, #5
8014d4f8:	1afffb08 	bne	8014c120 <_RME_Svc_Handler+0xc80>
8014d4fc:	e5962004 	ldr	r2, [r6, #4]
8014d500:	e3520000 	cmp	r2, #0
8014d504:	1a00004c 	bne	8014d63c <_RME_Svc_Handler+0x219c>
8014d508:	e6ff1070 	uxth	r1, r0
8014d50c:	e3510000 	cmp	r1, #0
8014d510:	1a00004d 	bne	8014d64c <_RME_Svc_Handler+0x21ac>
8014d514:	e7942287 	ldr	r2, [r4, r7, lsl #5]
8014d518:	e1500002 	cmp	r0, r2
8014d51c:	1afffc9c 	bne	8014c794 <_RME_Svc_Handler+0x12f4>
8014d520:	e5960014 	ldr	r0, [r6, #20]
8014d524:	e5962018 	ldr	r2, [r6, #24]
8014d528:	e7841287 	str	r1, [r4, r7, lsl #5]
8014d52c:	e5903004 	ldr	r3, [r0, #4]
8014d530:	e2433001 	sub	r3, r3, #1
8014d534:	e5803004 	str	r3, [r0, #4]
8014d538:	e5923004 	ldr	r3, [r2, #4]
8014d53c:	e2433001 	sub	r3, r3, #1
8014d540:	e5823004 	str	r3, [r2, #4]
8014d544:	eafff829 	b	8014b5f0 <_RME_Svc_Handler+0x150>
8014d548:	e5962014 	ldr	r2, [r6, #20]
8014d54c:	e1a03424 	lsr	r3, r4, #8
8014d550:	e1520424 	cmp	r2, r4, lsr #8
8014d554:	9afffa61 	bls	8014bee0 <_RME_Svc_Handler+0xa40>
8014d558:	e596800c 	ldr	r8, [r6, #12]
8014d55c:	e0888283 	add	r8, r8, r3, lsl #5
8014d560:	e1a00008 	mov	r0, r8
8014d564:	ebffec65 	bl	80148700 <__RME_A7A_Read_Acquire>
8014d568:	e7e73850 	ubfx	r3, r0, #16, #8
8014d56c:	e3530002 	cmp	r3, #2
8014d570:	0afffbff 	beq	8014c574 <_RME_Svc_Handler+0x10d4>
8014d574:	e1a02c20 	lsr	r2, r0, #24
8014d578:	e3520003 	cmp	r2, #3
8014d57c:	1afffae7 	bne	8014c120 <_RME_Svc_Handler+0xc80>
8014d580:	e5982014 	ldr	r2, [r8, #20]
8014d584:	e204307f 	and	r3, r4, #127	; 0x7f
8014d588:	e1530002 	cmp	r3, r2
8014d58c:	2afffa53 	bcs	8014bee0 <_RME_Svc_Handler+0xa40>
8014d590:	e598400c 	ldr	r4, [r8, #12]
8014d594:	e0844283 	add	r4, r4, r3, lsl #5
8014d598:	eaffff8b 	b	8014d3cc <_RME_Svc_Handler+0x1f2c>
8014d59c:	e1530424 	cmp	r3, r4, lsr #8
8014d5a0:	e1a06424 	lsr	r6, r4, #8
8014d5a4:	9afffa4d 	bls	8014bee0 <_RME_Svc_Handler+0xa40>
8014d5a8:	e0826286 	add	r6, r2, r6, lsl #5
8014d5ac:	e1a00006 	mov	r0, r6
8014d5b0:	ebffec52 	bl	80148700 <__RME_A7A_Read_Acquire>
8014d5b4:	e7e73850 	ubfx	r3, r0, #16, #8
8014d5b8:	e3530002 	cmp	r3, #2
8014d5bc:	0afffbec 	beq	8014c574 <_RME_Svc_Handler+0x10d4>
8014d5c0:	e1a02c20 	lsr	r2, r0, #24
8014d5c4:	e3520003 	cmp	r2, #3
8014d5c8:	1afffad4 	bne	8014c120 <_RME_Svc_Handler+0xc80>
8014d5cc:	e5962014 	ldr	r2, [r6, #20]
8014d5d0:	e204307f 	and	r3, r4, #127	; 0x7f
8014d5d4:	e1530002 	cmp	r3, r2
8014d5d8:	2afffa40 	bcs	8014bee0 <_RME_Svc_Handler+0xa40>
8014d5dc:	e596400c 	ldr	r4, [r6, #12]
8014d5e0:	e0844283 	add	r4, r4, r3, lsl #5
8014d5e4:	eaffffab 	b	8014d498 <_RME_Svc_Handler+0x1ff8>
8014d5e8:	e5962014 	ldr	r2, [r6, #20]
8014d5ec:	e1a03427 	lsr	r3, r7, #8
8014d5f0:	e1520427 	cmp	r2, r7, lsr #8
8014d5f4:	9afffa39 	bls	8014bee0 <_RME_Svc_Handler+0xa40>
8014d5f8:	e596600c 	ldr	r6, [r6, #12]
8014d5fc:	e0866283 	add	r6, r6, r3, lsl #5
8014d600:	e1a00006 	mov	r0, r6
8014d604:	ebffec3d 	bl	80148700 <__RME_A7A_Read_Acquire>
8014d608:	e7e72850 	ubfx	r2, r0, #16, #8
8014d60c:	e3520002 	cmp	r2, #2
8014d610:	0afffbd7 	beq	8014c574 <_RME_Svc_Handler+0x10d4>
8014d614:	e1a03c20 	lsr	r3, r0, #24
8014d618:	e3530003 	cmp	r3, #3
8014d61c:	1afffabf 	bne	8014c120 <_RME_Svc_Handler+0xc80>
8014d620:	e5962014 	ldr	r2, [r6, #20]
8014d624:	e207307f 	and	r3, r7, #127	; 0x7f
8014d628:	e1530002 	cmp	r3, r2
8014d62c:	2afffa2b 	bcs	8014bee0 <_RME_Svc_Handler+0xa40>
8014d630:	e596700c 	ldr	r7, [r6, #12]
8014d634:	e0877283 	add	r7, r7, r3, lsl #5
8014d638:	eaffff72 	b	8014d408 <_RME_Svc_Handler+0x1f68>
8014d63c:	e6ff2070 	uxth	r2, r0
8014d640:	e3520000 	cmp	r2, #0
8014d644:	1afffd11 	bne	8014ca90 <_RME_Svc_Handler+0x15f0>
8014d648:	eafffd68 	b	8014cbf0 <_RME_Svc_Handler+0x1750>
8014d64c:	e30d3d80 	movw	r3, #56704	; 0xdd80
8014d650:	e30d2d8c 	movw	r2, #56716	; 0xdd8c
8014d654:	e3483014 	movt	r3, #32788	; 0x8014
8014d658:	e30d0d98 	movw	r0, #56728	; 0xdd98
8014d65c:	e3482014 	movt	r2, #32788	; 0x8014
8014d660:	e301130f 	movw	r1, #4879	; 0x130f
8014d664:	e3480014 	movt	r0, #32788	; 0x8014
8014d668:	ebffefd4 	bl	801495c0 <RME_Log>
8014d66c:	eafffffe 	b	8014d66c <_RME_Svc_Handler+0x21cc>
8014d670:	e59d4038 	ldr	r4, [sp, #56]	; 0x38
8014d674:	e59d703c 	ldr	r7, [sp, #60]	; 0x3c
8014d678:	e3140080 	tst	r4, #128	; 0x80
8014d67c:	1a000032 	bne	8014d74c <_RME_Svc_Handler+0x22ac>
8014d680:	e5963014 	ldr	r3, [r6, #20]
8014d684:	e1540003 	cmp	r4, r3
8014d688:	2afffa14 	bcs	8014bee0 <_RME_Svc_Handler+0xa40>
8014d68c:	e596300c 	ldr	r3, [r6, #12]
8014d690:	e0834284 	add	r4, r3, r4, lsl #5
8014d694:	e1a00004 	mov	r0, r4
8014d698:	ebffec18 	bl	80148700 <__RME_A7A_Read_Acquire>
8014d69c:	e7e72850 	ubfx	r2, r0, #16, #8
8014d6a0:	e3520002 	cmp	r2, #2
8014d6a4:	0afffbb2 	beq	8014c574 <_RME_Svc_Handler+0x10d4>
8014d6a8:	e1a03c20 	lsr	r3, r0, #24
8014d6ac:	e3530005 	cmp	r3, #5
8014d6b0:	1afffa9a 	bne	8014c120 <_RME_Svc_Handler+0xc80>
8014d6b4:	e3170080 	tst	r7, #128	; 0x80
8014d6b8:	1a00004b 	bne	8014d7ec <_RME_Svc_Handler+0x234c>
8014d6bc:	e5963014 	ldr	r3, [r6, #20]
8014d6c0:	e1570003 	cmp	r7, r3
8014d6c4:	2afffa05 	bcs	8014bee0 <_RME_Svc_Handler+0xa40>
8014d6c8:	e596300c 	ldr	r3, [r6, #12]
8014d6cc:	e0837287 	add	r7, r3, r7, lsl #5
8014d6d0:	e1a00007 	mov	r0, r7
8014d6d4:	ebffec09 	bl	80148700 <__RME_A7A_Read_Acquire>
8014d6d8:	e7e72850 	ubfx	r2, r0, #16, #8
8014d6dc:	e3520002 	cmp	r2, #2
8014d6e0:	0afffba3 	beq	8014c574 <_RME_Svc_Handler+0x10d4>
8014d6e4:	e1a03c20 	lsr	r3, r0, #24
8014d6e8:	e3530004 	cmp	r3, #4
8014d6ec:	1afffa8b 	bne	8014c120 <_RME_Svc_Handler+0xc80>
8014d6f0:	e5943008 	ldr	r3, [r4, #8]
8014d6f4:	e3130008 	tst	r3, #8
8014d6f8:	0afffa16 	beq	8014bf58 <_RME_Svc_Handler+0xab8>
8014d6fc:	e5973008 	ldr	r3, [r7, #8]
8014d700:	e3130080 	tst	r3, #128	; 0x80
8014d704:	0afffa13 	beq	8014bf58 <_RME_Svc_Handler+0xab8>
8014d708:	e1d720b0 	ldrh	r2, [r7]
8014d70c:	e5943018 	ldr	r3, [r4, #24]
8014d710:	e3520000 	cmp	r2, #0
8014d714:	e5942018 	ldr	r2, [r4, #24]
8014d718:	15977004 	ldrne	r7, [r7, #4]
8014d71c:	e1530002 	cmp	r3, r2
8014d720:	13e010c9 	mvnne	r1, #201	; 0xc9
8014d724:	1afff7b1 	bne	8014b5f0 <_RME_Svc_Handler+0x150>
8014d728:	e5847018 	str	r7, [r4, #24]
8014d72c:	e3a01000 	mov	r1, #0
8014d730:	e5972004 	ldr	r2, [r7, #4]
8014d734:	e2822001 	add	r2, r2, #1
8014d738:	e5872004 	str	r2, [r7, #4]
8014d73c:	e5932004 	ldr	r2, [r3, #4]
8014d740:	e2422001 	sub	r2, r2, #1
8014d744:	e5832004 	str	r2, [r3, #4]
8014d748:	eafff7a8 	b	8014b5f0 <_RME_Svc_Handler+0x150>
8014d74c:	e5962014 	ldr	r2, [r6, #20]
8014d750:	e1a03424 	lsr	r3, r4, #8
8014d754:	e1520424 	cmp	r2, r4, lsr #8
8014d758:	9afff9e0 	bls	8014bee0 <_RME_Svc_Handler+0xa40>
8014d75c:	e596800c 	ldr	r8, [r6, #12]
8014d760:	e0888283 	add	r8, r8, r3, lsl #5
8014d764:	e1a00008 	mov	r0, r8
8014d768:	ebffebe4 	bl	80148700 <__RME_A7A_Read_Acquire>
8014d76c:	e7e73850 	ubfx	r3, r0, #16, #8
8014d770:	e3530002 	cmp	r3, #2
8014d774:	0afffb7e 	beq	8014c574 <_RME_Svc_Handler+0x10d4>
8014d778:	e1a02c20 	lsr	r2, r0, #24
8014d77c:	e3520003 	cmp	r2, #3
8014d780:	1afffa66 	bne	8014c120 <_RME_Svc_Handler+0xc80>
8014d784:	e5982014 	ldr	r2, [r8, #20]
8014d788:	e204307f 	and	r3, r4, #127	; 0x7f
8014d78c:	e1530002 	cmp	r3, r2
8014d790:	2afff9d2 	bcs	8014bee0 <_RME_Svc_Handler+0xa40>
8014d794:	e598400c 	ldr	r4, [r8, #12]
8014d798:	e0844283 	add	r4, r4, r3, lsl #5
8014d79c:	eaffffbc 	b	8014d694 <_RME_Svc_Handler+0x21f4>
8014d7a0:	e1530428 	cmp	r3, r8, lsr #8
8014d7a4:	e1a03428 	lsr	r3, r8, #8
8014d7a8:	9afff9cc 	bls	8014bee0 <_RME_Svc_Handler+0xa40>
8014d7ac:	e0844283 	add	r4, r4, r3, lsl #5
8014d7b0:	e1a00004 	mov	r0, r4
8014d7b4:	ebffebd1 	bl	80148700 <__RME_A7A_Read_Acquire>
8014d7b8:	e7e73850 	ubfx	r3, r0, #16, #8
8014d7bc:	e3530002 	cmp	r3, #2
8014d7c0:	0afffb6b 	beq	8014c574 <_RME_Svc_Handler+0x10d4>
8014d7c4:	e1a02c20 	lsr	r2, r0, #24
8014d7c8:	e3520003 	cmp	r2, #3
8014d7cc:	1afffa53 	bne	8014c120 <_RME_Svc_Handler+0xc80>
8014d7d0:	e5942014 	ldr	r2, [r4, #20]
8014d7d4:	e208307f 	and	r3, r8, #127	; 0x7f
8014d7d8:	e1530002 	cmp	r3, r2
8014d7dc:	2afff9bf 	bcs	8014bee0 <_RME_Svc_Handler+0xa40>
8014d7e0:	e594400c 	ldr	r4, [r4, #12]
8014d7e4:	e0844283 	add	r4, r4, r3, lsl #5
8014d7e8:	eafffed6 	b	8014d348 <_RME_Svc_Handler+0x1ea8>
8014d7ec:	e5962014 	ldr	r2, [r6, #20]
8014d7f0:	e1a03427 	lsr	r3, r7, #8
8014d7f4:	e1520427 	cmp	r2, r7, lsr #8
8014d7f8:	9afff9b8 	bls	8014bee0 <_RME_Svc_Handler+0xa40>
8014d7fc:	e596600c 	ldr	r6, [r6, #12]
8014d800:	e0866283 	add	r6, r6, r3, lsl #5
8014d804:	e1a00006 	mov	r0, r6
8014d808:	ebffebbc 	bl	80148700 <__RME_A7A_Read_Acquire>
8014d80c:	e7e72850 	ubfx	r2, r0, #16, #8
8014d810:	e3520002 	cmp	r2, #2
8014d814:	0afffb56 	beq	8014c574 <_RME_Svc_Handler+0x10d4>
8014d818:	e1a03c20 	lsr	r3, r0, #24
8014d81c:	e3530003 	cmp	r3, #3
8014d820:	1afffa3e 	bne	8014c120 <_RME_Svc_Handler+0xc80>
8014d824:	e5962014 	ldr	r2, [r6, #20]
8014d828:	e207307f 	and	r3, r7, #127	; 0x7f
8014d82c:	e1530002 	cmp	r3, r2
8014d830:	2afff9aa 	bcs	8014bee0 <_RME_Svc_Handler+0xa40>
8014d834:	e596700c 	ldr	r7, [r6, #12]
8014d838:	e0877283 	add	r7, r7, r3, lsl #5
8014d83c:	eaffffa3 	b	8014d6d0 <_RME_Svc_Handler+0x2230>
8014d840:	e3e01064 	mvn	r1, #100	; 0x64
8014d844:	eafff769 	b	8014b5f0 <_RME_Svc_Handler+0x150>

8014d848 <main>:
8014d848:	e3a01a01 	mov	r1, #4096	; 0x1000
8014d84c:	e34e1000 	movt	r1, #57344	; 0xe000
8014d850:	e591302c 	ldr	r3, [r1, #44]	; 0x2c
8014d854:	e3130008 	tst	r3, #8
8014d858:	0afffffc 	beq	8014d850 <main+0x8>
8014d85c:	e3a02a01 	mov	r2, #4096	; 0x1000
8014d860:	e3a03068 	mov	r3, #104	; 0x68
8014d864:	e34e2000 	movt	r2, #57344	; 0xe000
8014d868:	e5813030 	str	r3, [r1, #48]	; 0x30
8014d86c:	e592302c 	ldr	r3, [r2, #44]	; 0x2c
8014d870:	e3130008 	tst	r3, #8
8014d874:	0afffffc 	beq	8014d86c <main+0x24>
8014d878:	e3a0306f 	mov	r3, #111	; 0x6f
8014d87c:	e3a00000 	mov	r0, #0
8014d880:	e5823030 	str	r3, [r2, #48]	; 0x30
8014d884:	e12fff1e 	bx	lr

8014d888 <__RME_Putchar>:
8014d888:	e3a02a01 	mov	r2, #4096	; 0x1000
8014d88c:	e34e2000 	movt	r2, #57344	; 0xe000
8014d890:	e592302c 	ldr	r3, [r2, #44]	; 0x2c
8014d894:	e3130008 	tst	r3, #8
8014d898:	0afffffc 	beq	8014d890 <__RME_Putchar+0x8>
8014d89c:	e5820030 	str	r0, [r2, #48]	; 0x30
8014d8a0:	e3a00000 	mov	r0, #0
8014d8a4:	e12fff1e 	bx	lr

8014d8a8 <__RME_Lowlvl_Init>:
8014d8a8:	e92d4070 	push	{r4, r5, r6, lr}
8014d8ac:	e3a04a01 	mov	r4, #4096	; 0x1000
8014d8b0:	e34f48f0 	movt	r4, #63728	; 0xf8f0
8014d8b4:	e30e0000 	movw	r0, #57344	; 0xe000
8014d8b8:	e3480094 	movt	r0, #32916	; 0x8094
8014d8bc:	e3a01000 	mov	r1, #0
8014d8c0:	ebfff622 	bl	8014b150 <_RME_CPU_Local_Init>
8014d8c4:	e5945008 	ldr	r5, [r4, #8]
8014d8c8:	e30d0dbc 	movw	r0, #56764	; 0xddbc
8014d8cc:	e3480014 	movt	r0, #32788	; 0x8014
8014d8d0:	ebffef2d 	bl	8014958c <RME_Str_Print>
8014d8d4:	e1a00c25 	lsr	r0, r5, #24
8014d8d8:	ebffeefa 	bl	801494c8 <RME_Int_Print>
8014d8dc:	e30d0dd4 	movw	r0, #56788	; 0xddd4
8014d8e0:	e3480014 	movt	r0, #32788	; 0x8014
8014d8e4:	ebffef28 	bl	8014958c <RME_Str_Print>
8014d8e8:	e7e30a55 	ubfx	r0, r5, #20, #4
8014d8ec:	ebffeef5 	bl	801494c8 <RME_Int_Print>
8014d8f0:	e30d0dec 	movw	r0, #56812	; 0xddec
8014d8f4:	e3480014 	movt	r0, #32788	; 0x8014
8014d8f8:	ebffef23 	bl	8014958c <RME_Str_Print>
8014d8fc:	e7e30655 	ubfx	r0, r5, #12, #4
8014d900:	ebffeef0 	bl	801494c8 <RME_Int_Print>
8014d904:	e30d0e04 	movw	r0, #56836	; 0xde04
8014d908:	e3480014 	movt	r0, #32788	; 0x8014
8014d90c:	ebffef1e 	bl	8014958c <RME_Str_Print>
8014d910:	e5944004 	ldr	r4, [r4, #4]
8014d914:	e30d0e20 	movw	r0, #56864	; 0xde20
8014d918:	e3480014 	movt	r0, #32788	; 0x8014
8014d91c:	e204501f 	and	r5, r4, #31
8014d920:	ebffef19 	bl	8014958c <RME_Str_Print>
8014d924:	e1a00824 	lsr	r0, r4, #16
8014d928:	ebffeee6 	bl	801494c8 <RME_Int_Print>
8014d92c:	e30d0e38 	movw	r0, #56888	; 0xde38
8014d930:	e3480014 	movt	r0, #32788	; 0x8014
8014d934:	ebffef14 	bl	8014958c <RME_Str_Print>
8014d938:	e7e00554 	ubfx	r0, r4, #10, #1
8014d93c:	ebffeee1 	bl	801494c8 <RME_Int_Print>
8014d940:	e30d0e58 	movw	r0, #56920	; 0xde58
8014d944:	e3480014 	movt	r0, #32788	; 0x8014
8014d948:	ebffef0f 	bl	8014958c <RME_Str_Print>
8014d94c:	e7e202d4 	ubfx	r0, r4, #5, #3
8014d950:	e2854001 	add	r4, r5, #1
8014d954:	e2800001 	add	r0, r0, #1
8014d958:	e1a04284 	lsl	r4, r4, #5
8014d95c:	ebffeed9 	bl	801494c8 <RME_Int_Print>
8014d960:	e30d0e70 	movw	r0, #56944	; 0xde70
8014d964:	e3480014 	movt	r0, #32788	; 0x8014
8014d968:	ebffef07 	bl	8014958c <RME_Str_Print>
8014d96c:	e1a00004 	mov	r0, r4
8014d970:	ebffeed4 	bl	801494c8 <RME_Int_Print>
8014d974:	e30014a1 	movw	r1, #1185	; 0x4a1
8014d978:	e3a03d4a 	mov	r3, #4736	; 0x1280
8014d97c:	e3431e3c 	movt	r1, #15932	; 0x3e3c
8014d980:	e3e02000 	mvn	r2, #0
8014d984:	e0851001 	add	r1, r5, r1
8014d988:	e3a00000 	mov	r0, #0
8014d98c:	e34f38f0 	movt	r3, #63728	; 0xf8f0
8014d990:	e1a01101 	lsl	r1, r1, #2
8014d994:	e5832000 	str	r2, [r3]
8014d998:	e2833004 	add	r3, r3, #4
8014d99c:	e5030204 	str	r0, [r3, #-516]	; 0xfffffdfc
8014d9a0:	e5032104 	str	r2, [r3, #-260]	; 0xfffffefc
8014d9a4:	e1510003 	cmp	r1, r3
8014d9a8:	1afffff9 	bne	8014d994 <__RME_Lowlvl_Init+0xec>
8014d9ac:	e3a02b05 	mov	r2, #5120	; 0x1400
8014d9b0:	e30a10a0 	movw	r1, #41120	; 0xa0a0
8014d9b4:	e34a10a0 	movt	r1, #41120	; 0xa0a0
8014d9b8:	e1a03002 	mov	r3, r2
8014d9bc:	e34f28f0 	movt	r2, #63728	; 0xf8f0
8014d9c0:	e1a00124 	lsr	r0, r4, #2
8014d9c4:	e0842002 	add	r2, r4, r2
8014d9c8:	e34f38f0 	movt	r3, #63728	; 0xf8f0
8014d9cc:	e4831004 	str	r1, [r3], #4
8014d9d0:	e1520003 	cmp	r2, r3
8014d9d4:	1afffffc 	bne	8014d9cc <__RME_Lowlvl_Init+0x124>
8014d9d8:	e3500008 	cmp	r0, #8
8014d9dc:	0a000007 	beq	8014da00 <__RME_Lowlvl_Init+0x158>
8014d9e0:	e3013820 	movw	r3, #6176	; 0x1820
8014d9e4:	e3001101 	movw	r1, #257	; 0x101
8014d9e8:	e34f38f0 	movt	r3, #63728	; 0xf8f0
8014d9ec:	e2822b01 	add	r2, r2, #1024	; 0x400
8014d9f0:	e3401101 	movt	r1, #257	; 0x101
8014d9f4:	e4831004 	str	r1, [r3], #4
8014d9f8:	e1520003 	cmp	r2, r3
8014d9fc:	1afffffc 	bne	8014d9f4 <__RME_Lowlvl_Init+0x14c>
8014da00:	e3a02b07 	mov	r2, #7168	; 0x1c00
8014da04:	e3a03b07 	mov	r3, #7168	; 0x1c00
8014da08:	e1a04124 	lsr	r4, r4, #2
8014da0c:	e3051555 	movw	r1, #21845	; 0x5555
8014da10:	e34f28f0 	movt	r2, #63728	; 0xf8f0
8014da14:	e0842002 	add	r2, r4, r2
8014da18:	e34f38f0 	movt	r3, #63728	; 0xf8f0
8014da1c:	e3451555 	movt	r1, #21845	; 0x5555
8014da20:	e4831004 	str	r1, [r3], #4
8014da24:	e1520003 	cmp	r2, r3
8014da28:	1afffffc 	bne	8014da20 <__RME_Lowlvl_Init+0x178>
8014da2c:	e3a02a01 	mov	r2, #4096	; 0x1000
8014da30:	e3a03000 	mov	r3, #0
8014da34:	e34f38f0 	movt	r3, #63728	; 0xf8f0
8014da38:	e3a01003 	mov	r1, #3
8014da3c:	e34f28f0 	movt	r2, #63728	; 0xf8f0
8014da40:	e3a00000 	mov	r0, #0
8014da44:	e5821000 	str	r1, [r2]
8014da48:	e3a01001 	mov	r1, #1
8014da4c:	e5830104 	str	r0, [r3, #260]	; 0x104
8014da50:	e3a020f0 	mov	r2, #240	; 0xf0
8014da54:	e5831100 	str	r1, [r3, #256]	; 0x100
8014da58:	e30d0e94 	movw	r0, #56980	; 0xde94
8014da5c:	e5832104 	str	r2, [r3, #260]	; 0x104
8014da60:	e3480014 	movt	r0, #32788	; 0x8014
8014da64:	ebffeec8 	bl	8014958c <RME_Str_Print>
8014da68:	e3080000 	movw	r0, #32768	; 0x8000
8014da6c:	e3480014 	movt	r0, #32788	; 0x8014
8014da70:	ebffeaea 	bl	80148620 <__RME_A7A_VBAR_Set>
8014da74:	e30d0ea8 	movw	r0, #57000	; 0xdea8
8014da78:	e8bd4070 	pop	{r4, r5, r6, lr}
8014da7c:	e3480014 	movt	r0, #32788	; 0x8014
8014da80:	eaffeec1 	b	8014958c <RME_Str_Print>

8014da84 <__RME_Pgt_Kom_Init>:
8014da84:	e3a00000 	mov	r0, #0
8014da88:	e12fff1e 	bx	lr

8014da8c <__RME_Boot>:
8014da8c:	e3a03000 	mov	r3, #0
8014da90:	e3a02a01 	mov	r2, #4096	; 0x1000
8014da94:	e34f38f0 	movt	r3, #63728	; 0xf8f0
8014da98:	e3081478 	movw	r1, #33912	; 0x8478
8014da9c:	e34f28f0 	movt	r2, #63728	; 0xf8f0
8014daa0:	e3a0c000 	mov	ip, #0
8014daa4:	e340103a 	movt	r1, #58	; 0x3a
8014daa8:	e3a00007 	mov	r0, #7
8014daac:	e92d4010 	push	{r4, lr}
8014dab0:	e5831600 	str	r1, [r3, #1536]	; 0x600
8014dab4:	e583c60c 	str	ip, [r3, #1548]	; 0x60c
8014dab8:	e5830608 	str	r0, [r3, #1544]	; 0x608
8014dabc:	e5923100 	ldr	r3, [r2, #256]	; 0x100
8014dac0:	e3833202 	orr	r3, r3, #536870912	; 0x20000000
8014dac4:	e5823100 	str	r3, [r2, #256]	; 0x100
8014dac8:	ebffeb14 	bl	80148720 <__RME_Int_Enable>
8014dacc:	eafffffe 	b	8014dacc <__RME_Boot+0x40>

8014dad0 <__RME_Svc_Param_Get>:
8014dad0:	e1d0c0b6 	ldrh	ip, [r0, #6]
8014dad4:	e581c000 	str	ip, [r1]
8014dad8:	e1d010b4 	ldrh	r1, [r0, #4]
8014dadc:	e5821000 	str	r1, [r2]
8014dae0:	e5902008 	ldr	r2, [r0, #8]
8014dae4:	e5832000 	str	r2, [r3]
8014dae8:	e590200c 	ldr	r2, [r0, #12]
8014daec:	e5832004 	str	r2, [r3, #4]
8014daf0:	e5902010 	ldr	r2, [r0, #16]
8014daf4:	e5832008 	str	r2, [r3, #8]
8014daf8:	e12fff1e 	bx	lr

8014dafc <__RME_Svc_Retval_Set>:
8014dafc:	e5801004 	str	r1, [r0, #4]
8014db00:	e12fff1e 	bx	lr

8014db04 <__RME_Thd_Reg_Init>:
8014db04:	e59d0000 	ldr	r0, [sp]
8014db08:	e580103c 	str	r1, [r0, #60]	; 0x3c
8014db0c:	e5802034 	str	r2, [r0, #52]	; 0x34
8014db10:	e5803004 	str	r3, [r0, #4]
8014db14:	e12fff1e 	bx	lr

8014db18 <__RME_Thd_Reg_Copy>:
8014db18:	e5913000 	ldr	r3, [r1]
8014db1c:	e5803000 	str	r3, [r0]
8014db20:	e5913004 	ldr	r3, [r1, #4]
8014db24:	e5803004 	str	r3, [r0, #4]
8014db28:	e5913008 	ldr	r3, [r1, #8]
8014db2c:	e5803008 	str	r3, [r0, #8]
8014db30:	e591300c 	ldr	r3, [r1, #12]
8014db34:	e580300c 	str	r3, [r0, #12]
8014db38:	e5913010 	ldr	r3, [r1, #16]
8014db3c:	e5803010 	str	r3, [r0, #16]
8014db40:	e5913014 	ldr	r3, [r1, #20]
8014db44:	e5803014 	str	r3, [r0, #20]
8014db48:	e5913018 	ldr	r3, [r1, #24]
8014db4c:	e5803018 	str	r3, [r0, #24]
8014db50:	e591301c 	ldr	r3, [r1, #28]
8014db54:	e580301c 	str	r3, [r0, #28]
8014db58:	e5913020 	ldr	r3, [r1, #32]
8014db5c:	e5803020 	str	r3, [r0, #32]
8014db60:	e5913024 	ldr	r3, [r1, #36]	; 0x24
8014db64:	e5803024 	str	r3, [r0, #36]	; 0x24
8014db68:	e5913028 	ldr	r3, [r1, #40]	; 0x28
8014db6c:	e5803028 	str	r3, [r0, #40]	; 0x28
8014db70:	e591302c 	ldr	r3, [r1, #44]	; 0x2c
8014db74:	e580302c 	str	r3, [r0, #44]	; 0x2c
8014db78:	e5913030 	ldr	r3, [r1, #48]	; 0x30
8014db7c:	e5803030 	str	r3, [r0, #48]	; 0x30
8014db80:	e5913034 	ldr	r3, [r1, #52]	; 0x34
8014db84:	e5803034 	str	r3, [r0, #52]	; 0x34
8014db88:	e5913038 	ldr	r3, [r1, #56]	; 0x38
8014db8c:	e5803038 	str	r3, [r0, #56]	; 0x38
8014db90:	e591303c 	ldr	r3, [r1, #60]	; 0x3c
8014db94:	e580303c 	str	r3, [r0, #60]	; 0x3c
8014db98:	e12fff1e 	bx	lr

8014db9c <__RME_Inv_Reg_Save>:
8014db9c:	e591303c 	ldr	r3, [r1, #60]	; 0x3c
8014dba0:	e5803000 	str	r3, [r0]
8014dba4:	e5913034 	ldr	r3, [r1, #52]	; 0x34
8014dba8:	e5803004 	str	r3, [r0, #4]
8014dbac:	e12fff1e 	bx	lr

8014dbb0 <__RME_Inv_Reg_Restore>:
8014dbb0:	e5913000 	ldr	r3, [r1]
8014dbb4:	e580303c 	str	r3, [r0, #60]	; 0x3c
8014dbb8:	e5913004 	ldr	r3, [r1, #4]
8014dbbc:	e5803034 	str	r3, [r0, #52]	; 0x34
8014dbc0:	e12fff1e 	bx	lr

8014dbc4 <__RME_Inv_Retval_Set>:
8014dbc4:	e5801018 	str	r1, [r0, #24]
8014dbc8:	e12fff1e 	bx	lr

8014dbcc <__RME_Kfn_Handler>:
8014dbcc:	e3a00000 	mov	r0, #0
8014dbd0:	e12fff1e 	bx	lr

8014dbd4 <__RME_A7A_Undefined_Handler>:
8014dbd4:	eafffffe 	b	8014dbd4 <__RME_A7A_Undefined_Handler>

8014dbd8 <__RME_A7A_Prefetch_Abort_Handler>:
8014dbd8:	eafffffe 	b	8014dbd8 <__RME_A7A_Prefetch_Abort_Handler>

8014dbdc <__RME_A7A_Data_Abort_Handler>:
8014dbdc:	eafffffe 	b	8014dbdc <__RME_A7A_Data_Abort_Handler>

8014dbe0 <__RME_A7A_IRQ_Handler>:
8014dbe0:	e3a02000 	mov	r2, #0
8014dbe4:	e30003fe 	movw	r0, #1022	; 0x3fe
8014dbe8:	e34f28f0 	movt	r2, #63728	; 0xf8f0
8014dbec:	e92d4010 	push	{r4, lr}
8014dbf0:	e592110c 	ldr	r1, [r2, #268]	; 0x10c
8014dbf4:	e7e93051 	ubfx	r3, r1, #0, #10
8014dbf8:	e1530000 	cmp	r3, r0
8014dbfc:	0a000018 	beq	8014dc64 <__RME_A7A_IRQ_Handler+0x84>
8014dc00:	e300c3ff 	movw	ip, #1023	; 0x3ff
8014dc04:	e153000c 	cmp	r3, ip
8014dc08:	08bd8010 	popeq	{r4, pc}
8014dc0c:	e353001d 	cmp	r3, #29
8014dc10:	0a00001c 	beq	8014dc88 <__RME_A7A_IRQ_Handler+0xa8>
8014dc14:	e1a00521 	lsr	r0, r1, #10
8014dc18:	e3530000 	cmp	r3, #0
8014dc1c:	1a000003 	bne	8014dc30 <__RME_A7A_IRQ_Handler+0x50>
8014dc20:	e3500000 	cmp	r0, #0
8014dc24:	1a00001b 	bne	8014dc98 <__RME_A7A_IRQ_Handler+0xb8>
8014dc28:	e5820110 	str	r0, [r2, #272]	; 0x110
8014dc2c:	e8bd8010 	pop	{r4, pc}
8014dc30:	e3110e3f 	tst	r1, #1008	; 0x3f0
8014dc34:	0a000020 	beq	8014dcbc <__RME_A7A_IRQ_Handler+0xdc>
8014dc38:	e3500000 	cmp	r0, #0
8014dc3c:	08bd8010 	popeq	{r4, pc}
8014dc40:	e30d3ebc 	movw	r3, #57020	; 0xdebc
8014dc44:	e30d2d8c 	movw	r2, #56716	; 0xdd8c
8014dc48:	e3483014 	movt	r3, #32788	; 0x8014
8014dc4c:	e30d0ec8 	movw	r0, #57032	; 0xdec8
8014dc50:	e3482014 	movt	r2, #32788	; 0x8014
8014dc54:	e30012e5 	movw	r1, #741	; 0x2e5
8014dc58:	e3480014 	movt	r0, #32788	; 0x8014
8014dc5c:	ebffee57 	bl	801495c0 <RME_Log>
8014dc60:	eafffffe 	b	8014dc60 <__RME_A7A_IRQ_Handler+0x80>
8014dc64:	e30d3ebc 	movw	r3, #57020	; 0xdebc
8014dc68:	e30d2d8c 	movw	r2, #56716	; 0xdd8c
8014dc6c:	e3483014 	movt	r3, #32788	; 0x8014
8014dc70:	e30d0ec8 	movw	r0, #57032	; 0xdec8
8014dc74:	e3482014 	movt	r2, #32788	; 0x8014
8014dc78:	e3a01fae 	mov	r1, #696	; 0x2b8
8014dc7c:	e3480014 	movt	r0, #32788	; 0x8014
8014dc80:	ebffee4e 	bl	801495c0 <RME_Log>
8014dc84:	eafffffe 	b	8014dc84 <__RME_A7A_IRQ_Handler+0xa4>
8014dc88:	e3a01000 	mov	r1, #0
8014dc8c:	e582160c 	str	r1, [r2, #1548]	; 0x60c
8014dc90:	e5823110 	str	r3, [r2, #272]	; 0x110
8014dc94:	e8bd8010 	pop	{r4, pc}
8014dc98:	e30d3ebc 	movw	r3, #57020	; 0xdebc
8014dc9c:	e30d2d8c 	movw	r2, #56716	; 0xdd8c
8014dca0:	e3483014 	movt	r3, #32788	; 0x8014
8014dca4:	e30d0ec8 	movw	r0, #57032	; 0xdec8
8014dca8:	e3482014 	movt	r2, #32788	; 0x8014
8014dcac:	e3a01fb5 	mov	r1, #724	; 0x2d4
8014dcb0:	e3480014 	movt	r0, #32788	; 0x8014
8014dcb4:	ebffee41 	bl	801495c0 <RME_Log>
8014dcb8:	eafffffe 	b	8014dcb8 <__RME_A7A_IRQ_Handler+0xd8>
8014dcbc:	e1833500 	orr	r3, r3, r0, lsl #10
8014dcc0:	e5823110 	str	r3, [r2, #272]	; 0x110
8014dcc4:	e8bd8010 	pop	{r4, pc}

8014dcc8 <__RME_Pgt_Set>:
8014dcc8:	e12fff1e 	bx	lr

8014dccc <__RME_Pgt_Check>:
8014dccc:	e3510000 	cmp	r1, #0
8014dcd0:	0a00000a 	beq	8014dd00 <__RME_Pgt_Check+0x34>
8014dcd4:	e3520014 	cmp	r2, #20
8014dcd8:	0353000c 	cmpeq	r3, #12
8014dcdc:	0a000001 	beq	8014dce8 <__RME_Pgt_Check+0x1c>
8014dce0:	e3e00000 	mvn	r0, #0
8014dce4:	e12fff1e 	bx	lr
8014dce8:	e59d3000 	ldr	r3, [sp]
8014dcec:	e7ed0053 	ubfx	r0, r3, #0, #14
8014dcf0:	e2500000 	subs	r0, r0, #0
8014dcf4:	13a00001 	movne	r0, #1
8014dcf8:	e2600000 	rsb	r0, r0, #0
8014dcfc:	e12fff1e 	bx	lr
8014dd00:	e3520010 	cmp	r2, #16
8014dd04:	0353000a 	cmpeq	r3, #10
8014dd08:	1afffff4 	bne	8014dce0 <__RME_Pgt_Check+0x14>
8014dd0c:	e59d3000 	ldr	r3, [sp]
8014dd10:	e7e90053 	ubfx	r0, r3, #0, #10
8014dd14:	e2500000 	subs	r0, r0, #0
8014dd18:	13a00001 	movne	r0, #1
8014dd1c:	e2600000 	rsb	r0, r0, #0
8014dd20:	e12fff1e 	bx	lr

8014dd24 <__RME_Pgt_Init>:
8014dd24:	e12fff1e 	bx	lr

8014dd28 <__RME_Pgt_Del_Check>:
8014dd28:	e3a00000 	mov	r0, #0
8014dd2c:	e12fff1e 	bx	lr

8014dd30 <__RME_Pgt_Page_Map>:
8014dd30:	e12fff1e 	bx	lr

8014dd34 <__RME_Pgt_Page_Unmap>:
8014dd34:	e12fff1e 	bx	lr

8014dd38 <__RME_Pgt_Pgdir_Map>:
8014dd38:	e12fff1e 	bx	lr

8014dd3c <__RME_Pgt_Pgdir_Unmap>:
8014dd3c:	e3a00000 	mov	r0, #0
8014dd40:	e12fff1e 	bx	lr

8014dd44 <__RME_Pgt_Lookup>:
8014dd44:	e12fff1e 	bx	lr
