ARM GAS  C:\Users\even\AppData\Local\Temp\cckwnfBT.s 			page 1


   1              		.cpu cortex-a7
   2              		.arch armv7-a
   3              		.arch_extension virt
   4              		.arch_extension idiv
   5              		.arch_extension sec
   6              		.arch_extension mp
   7              		.fpu neon-fp16
   8              		.eabi_attribute 20, 1
   9              		.eabi_attribute 21, 1
  10              		.eabi_attribute 23, 3
  11              		.eabi_attribute 24, 1
  12              		.eabi_attribute 25, 1
  13              		.eabi_attribute 26, 1
  14              		.eabi_attribute 30, 2
  15              		.eabi_attribute 34, 1
  16              		.eabi_attribute 18, 4
  17              		.file	"rme_platform_a7a.c"
  18              		.text
  19              	.Ltext0:
  20              		.cfi_sections	.debug_frame
  21              		.section	.rodata.main.str1.4,"aMS",%progbits,1
  22              		.align	2
  23              	.LC0:
  24 0000 30313233 		.ascii	"0123456789\012\000"
  24      34353637 
  24      38390A00 
  25              		.section	.text.startup.main,"ax",%progbits
  26              		.align	2
  27              		.global	main
  28              		.syntax unified
  29              		.arm
  31              	main:
  32              	.LFB0:
  33              		.file 1 "../../Source/Platform/A7A/rme_platform_a7a.c"
   1:../../Source/Platform/A7A/rme_platform_a7a.c **** /******************************************************************************
   2:../../Source/Platform/A7A/rme_platform_a7a.c **** Filename    : platform_a7a.c
   3:../../Source/Platform/A7A/rme_platform_a7a.c **** Author      : pry
   4:../../Source/Platform/A7A/rme_platform_a7a.c **** Date        : 01/04/2017
   5:../../Source/Platform/A7A/rme_platform_a7a.c **** Licence     : LGPL v3+; see COPYING for details.
   6:../../Source/Platform/A7A/rme_platform_a7a.c **** Description : The hardware abstraction layer for ARMv7-A machines.
   7:../../Source/Platform/A7A/rme_platform_a7a.c ****               1. Interrupt controller
   8:../../Source/Platform/A7A/rme_platform_a7a.c ****               2. Timer
   9:../../Source/Platform/A7A/rme_platform_a7a.c ****               3. Pgt setup
  10:../../Source/Platform/A7A/rme_platform_a7a.c **** ******************************************************************************/
  11:../../Source/Platform/A7A/rme_platform_a7a.c **** 
  12:../../Source/Platform/A7A/rme_platform_a7a.c **** /* Include *******************************************************************/
  13:../../Source/Platform/A7A/rme_platform_a7a.c **** #define __HDR_DEF__
  14:../../Source/Platform/A7A/rme_platform_a7a.c **** #include "Platform/A7A/rme_platform_a7a.h"
  15:../../Source/Platform/A7A/rme_platform_a7a.c **** #include "Kernel/rme_kernel.h"
  16:../../Source/Platform/A7A/rme_platform_a7a.c **** #undef __HDR_DEF__
  17:../../Source/Platform/A7A/rme_platform_a7a.c **** 
  18:../../Source/Platform/A7A/rme_platform_a7a.c **** #define __HDR_STRUCT__
  19:../../Source/Platform/A7A/rme_platform_a7a.c **** #include "Platform/A7A/rme_platform_a7a.h"
  20:../../Source/Platform/A7A/rme_platform_a7a.c **** #include "Kernel/rme_kernel.h"
  21:../../Source/Platform/A7A/rme_platform_a7a.c **** #undef __HDR_STRUCT__
  22:../../Source/Platform/A7A/rme_platform_a7a.c **** 
  23:../../Source/Platform/A7A/rme_platform_a7a.c **** /* Private include */
ARM GAS  C:\Users\even\AppData\Local\Temp\cckwnfBT.s 			page 2


  24:../../Source/Platform/A7A/rme_platform_a7a.c **** #include "Platform/A7A/rme_platform_a7a.h"
  25:../../Source/Platform/A7A/rme_platform_a7a.c **** 
  26:../../Source/Platform/A7A/rme_platform_a7a.c **** #define __HDR_PUBLIC__
  27:../../Source/Platform/A7A/rme_platform_a7a.c **** #include "Kernel/rme_kernel.h"
  28:../../Source/Platform/A7A/rme_platform_a7a.c **** #undef __HDR_PUBLIC__
  29:../../Source/Platform/A7A/rme_platform_a7a.c **** /* End Include ***************************************************************/
  30:../../Source/Platform/A7A/rme_platform_a7a.c **** 
  31:../../Source/Platform/A7A/rme_platform_a7a.c **** /* Function:main **************************************************************
  32:../../Source/Platform/A7A/rme_platform_a7a.c **** Description : The entrance of the operating system.
  33:../../Source/Platform/A7A/rme_platform_a7a.c **** Input       : None.
  34:../../Source/Platform/A7A/rme_platform_a7a.c **** Output      : None.
  35:../../Source/Platform/A7A/rme_platform_a7a.c **** Return      : int - This function never returns.
  36:../../Source/Platform/A7A/rme_platform_a7a.c **** ******************************************************************************/
  37:../../Source/Platform/A7A/rme_platform_a7a.c **** int main(void)
  38:../../Source/Platform/A7A/rme_platform_a7a.c **** {
  34              		.loc 1 38 1 view -0
  35              		.cfi_startproc
  36              		@ Volatile: function does not return.
  37              		@ args = 0, pretend = 0, frame = 0
  38              		@ frame_needed = 0, uses_anonymous_args = 0
  39:../../Source/Platform/A7A/rme_platform_a7a.c ****     __RME_Putchar('h');
  39              		.loc 1 39 5 view .LVU1
  40              	.LVL0:
  41              	.LBB22:
  42              	.LBI22:
  40:../../Source/Platform/A7A/rme_platform_a7a.c ****     __RME_Putchar('e');
  41:../../Source/Platform/A7A/rme_platform_a7a.c ****     __RME_Putchar('l');
  42:../../Source/Platform/A7A/rme_platform_a7a.c ****     __RME_Putchar('l');
  43:../../Source/Platform/A7A/rme_platform_a7a.c ****     __RME_Putchar('o');
  44:../../Source/Platform/A7A/rme_platform_a7a.c ****     __RME_Putchar(' ');
  45:../../Source/Platform/A7A/rme_platform_a7a.c ****     __RME_Putchar('w');
  46:../../Source/Platform/A7A/rme_platform_a7a.c **** 
  47:../../Source/Platform/A7A/rme_platform_a7a.c ****     RME_DBG_S("0123456789\n");
  48:../../Source/Platform/A7A/rme_platform_a7a.c ****     RME_DBG_S("0123456789\n");
  49:../../Source/Platform/A7A/rme_platform_a7a.c ****     RME_DBG_S("0123456789\n");
  50:../../Source/Platform/A7A/rme_platform_a7a.c ****     RME_DBG_S("0123456789\n");
  51:../../Source/Platform/A7A/rme_platform_a7a.c ****     RME_DBG_S("0123456789\n");
  52:../../Source/Platform/A7A/rme_platform_a7a.c ****     RME_DBG_S("0123456789\n");
  53:../../Source/Platform/A7A/rme_platform_a7a.c ****     RME_DBG_S("0123456789\n");
  54:../../Source/Platform/A7A/rme_platform_a7a.c ****     while(1);
  55:../../Source/Platform/A7A/rme_platform_a7a.c ****     __RME_Putchar('h');
  56:../../Source/Platform/A7A/rme_platform_a7a.c ****     /*__RME_Putchar('e');
  57:../../Source/Platform/A7A/rme_platform_a7a.c ****     __RME_Putchar('l');
  58:../../Source/Platform/A7A/rme_platform_a7a.c ****     __RME_Putchar('l');*/
  59:../../Source/Platform/A7A/rme_platform_a7a.c ****     //__RME_Putchar('o');
  60:../../Source/Platform/A7A/rme_platform_a7a.c ****     /*__RME_Putchar('w');
  61:../../Source/Platform/A7A/rme_platform_a7a.c ****     __RME_Putchar('o');
  62:../../Source/Platform/A7A/rme_platform_a7a.c ****     __RME_Putchar('r');
  63:../../Source/Platform/A7A/rme_platform_a7a.c ****     __RME_Putchar('l');
  64:../../Source/Platform/A7A/rme_platform_a7a.c ****     __RME_Putchar('d');*/
  65:../../Source/Platform/A7A/rme_platform_a7a.c ****     //_RME_Kmain(RME_KOM_STACK_ADDR);
  66:../../Source/Platform/A7A/rme_platform_a7a.c ****     // char* str="hello world";
  67:../../Source/Platform/A7A/rme_platform_a7a.c ****     //__RME_Putstr(str);
  68:../../Source/Platform/A7A/rme_platform_a7a.c ****     
  69:../../Source/Platform/A7A/rme_platform_a7a.c ****     
  70:../../Source/Platform/A7A/rme_platform_a7a.c ****     //test
  71:../../Source/Platform/A7A/rme_platform_a7a.c ****     /* The main function of the kernel - we will start our kernel boot here */
ARM GAS  C:\Users\even\AppData\Local\Temp\cckwnfBT.s 			page 3


  72:../../Source/Platform/A7A/rme_platform_a7a.c ****     //_RME_Kmain(RME_KOM_STACK_ADDR);
  73:../../Source/Platform/A7A/rme_platform_a7a.c **** 
  74:../../Source/Platform/A7A/rme_platform_a7a.c ****     return 0;
  75:../../Source/Platform/A7A/rme_platform_a7a.c **** }
  76:../../Source/Platform/A7A/rme_platform_a7a.c **** /* End Function:main *********************************************************/
  77:../../Source/Platform/A7A/rme_platform_a7a.c **** 
  78:../../Source/Platform/A7A/rme_platform_a7a.c **** /* Function:__RME_Putchar *****************************************************
  79:../../Source/Platform/A7A/rme_platform_a7a.c **** Description : Output a character to console. In Cortex-M, under most circumstances, 
  80:../../Source/Platform/A7A/rme_platform_a7a.c ****               we should use the ITM for such outputs.
  81:../../Source/Platform/A7A/rme_platform_a7a.c **** Input       : char Char - The character to print.
  82:../../Source/Platform/A7A/rme_platform_a7a.c **** Output      : None.
  83:../../Source/Platform/A7A/rme_platform_a7a.c **** Return      : rme_ptr_t - Always 0.
  84:../../Source/Platform/A7A/rme_platform_a7a.c **** ******************************************************************************/
  85:../../Source/Platform/A7A/rme_platform_a7a.c **** rme_ptr_t __RME_Putchar(char Char)
  43              		.loc 1 85 11 view .LVU2
  44              	.LBB23:
  86:../../Source/Platform/A7A/rme_platform_a7a.c **** {
  87:../../Source/Platform/A7A/rme_platform_a7a.c ****     RME_A7A_PUTCHAR(Char);
  45              		.loc 1 87 5 view .LVU3
  46              		.loc 1 87 5 view .LVU4
  47 0000 012AA0E3 		mov	r2, #4096
  48 0004 00204EE3 		movt	r2, 57344
  49              	.LBE23:
  50              	.LBE22:
  38:../../Source/Platform/A7A/rme_platform_a7a.c ****     __RME_Putchar('h');
  51              		.loc 1 38 1 is_stmt 0 view .LVU5
  52 0008 10402DE9 		push	{r4, lr}
  53              		.cfi_def_cfa_offset 8
  54              		.cfi_offset 4, -8
  55              		.cfi_offset 14, -4
  56              	.L2:
  57              	.LBB27:
  58              	.LBB24:
  59              		.loc 1 87 5 is_stmt 1 view .LVU6
  60              		.loc 1 87 5 view .LVU7
  61 000c 2C3092E5 		ldr	r3, [r2, #44]
  62 0010 080013E3 		tst	r3, #8
  63 0014 FCFFFF0A 		beq	.L2
  64              		.loc 1 87 5 view .LVU8
  65              	.LBE24:
  66              	.LBE27:
  67              	.LBB28:
  68              	.LBB29:
  69 0018 011AA0E3 		mov	r1, #4096
  70              	.LBE29:
  71              	.LBE28:
  72              	.LBB34:
  73              	.LBB25:
  74 001c 6830A0E3 		mov	r3, #104
  75              	.LBE25:
  76              	.LBE34:
  77              	.LBB35:
  78              	.LBB30:
  79 0020 00104EE3 		movt	r1, 57344
  80              	.LBE30:
  81              	.LBE35:
  82              	.LBB36:
ARM GAS  C:\Users\even\AppData\Local\Temp\cckwnfBT.s 			page 4


  83              	.LBB26:
  84 0024 303082E5 		str	r3, [r2, #48]
  85              		.loc 1 87 5 view .LVU9
  88:../../Source/Platform/A7A/rme_platform_a7a.c ****     return 0;
  86              		.loc 1 88 5 view .LVU10
  87              	.LVL1:
  88              	.L3:
  89              		.loc 1 88 5 is_stmt 0 view .LVU11
  90              	.LBE26:
  91              	.LBE36:
  92              	.LBB37:
  93              	.LBB31:
  87:../../Source/Platform/A7A/rme_platform_a7a.c ****     return 0;
  94              		.loc 1 87 5 is_stmt 1 view .LVU12
  87:../../Source/Platform/A7A/rme_platform_a7a.c ****     return 0;
  95              		.loc 1 87 5 view .LVU13
  96 0028 2C3091E5 		ldr	r3, [r1, #44]
  97 002c 080013E3 		tst	r3, #8
  98 0030 FCFFFF0A 		beq	.L3
  87:../../Source/Platform/A7A/rme_platform_a7a.c ****     return 0;
  99              		.loc 1 87 5 view .LVU14
 100              	.LBE31:
 101              	.LBE37:
 102              	.LBB38:
 103              	.LBB39:
 104 0034 012AA0E3 		mov	r2, #4096
 105              	.LBE39:
 106              	.LBE38:
 107              	.LBB44:
 108              	.LBB32:
 109 0038 6530A0E3 		mov	r3, #101
 110              	.LBE32:
 111              	.LBE44:
 112              	.LBB45:
 113              	.LBB40:
 114 003c 00204EE3 		movt	r2, 57344
 115              	.LBE40:
 116              	.LBE45:
 117              	.LBB46:
 118              	.LBB33:
 119 0040 303081E5 		str	r3, [r1, #48]
  87:../../Source/Platform/A7A/rme_platform_a7a.c ****     return 0;
 120              		.loc 1 87 5 view .LVU15
 121              		.loc 1 88 5 view .LVU16
 122              	.L4:
 123              	.LBE33:
 124              	.LBE46:
 125              	.LBB47:
 126              	.LBB41:
  87:../../Source/Platform/A7A/rme_platform_a7a.c ****     return 0;
 127              		.loc 1 87 5 view .LVU17
  87:../../Source/Platform/A7A/rme_platform_a7a.c ****     return 0;
 128              		.loc 1 87 5 view .LVU18
 129 0044 2C3092E5 		ldr	r3, [r2, #44]
 130 0048 080013E3 		tst	r3, #8
 131 004c FCFFFF0A 		beq	.L4
  87:../../Source/Platform/A7A/rme_platform_a7a.c ****     return 0;
ARM GAS  C:\Users\even\AppData\Local\Temp\cckwnfBT.s 			page 5


 132              		.loc 1 87 5 view .LVU19
 133              	.LBE41:
 134              	.LBE47:
 135              	.LBB48:
 136              	.LBB49:
 137 0050 011AA0E3 		mov	r1, #4096
 138              	.LBE49:
 139              	.LBE48:
 140              	.LBB54:
 141              	.LBB42:
 142 0054 6C30A0E3 		mov	r3, #108
 143              	.LBE42:
 144              	.LBE54:
 145              	.LBB55:
 146              	.LBB50:
 147 0058 00104EE3 		movt	r1, 57344
 148              	.LBE50:
 149              	.LBE55:
 150              	.LBB56:
 151              	.LBB43:
 152 005c 303082E5 		str	r3, [r2, #48]
  87:../../Source/Platform/A7A/rme_platform_a7a.c ****     return 0;
 153              		.loc 1 87 5 view .LVU20
 154              		.loc 1 88 5 view .LVU21
 155              	.L5:
 156              	.LBE43:
 157              	.LBE56:
 158              	.LBB57:
 159              	.LBB51:
  87:../../Source/Platform/A7A/rme_platform_a7a.c ****     return 0;
 160              		.loc 1 87 5 view .LVU22
  87:../../Source/Platform/A7A/rme_platform_a7a.c ****     return 0;
 161              		.loc 1 87 5 view .LVU23
 162 0060 2C3091E5 		ldr	r3, [r1, #44]
 163 0064 080013E3 		tst	r3, #8
 164 0068 FCFFFF0A 		beq	.L5
  87:../../Source/Platform/A7A/rme_platform_a7a.c ****     return 0;
 165              		.loc 1 87 5 view .LVU24
 166              	.LBE51:
 167              	.LBE57:
 168              	.LBB58:
 169              	.LBB59:
 170 006c 012AA0E3 		mov	r2, #4096
 171              	.LBE59:
 172              	.LBE58:
 173              	.LBB64:
 174              	.LBB52:
 175 0070 6C30A0E3 		mov	r3, #108
 176              	.LBE52:
 177              	.LBE64:
 178              	.LBB65:
 179              	.LBB60:
 180 0074 00204EE3 		movt	r2, 57344
 181              	.LBE60:
 182              	.LBE65:
 183              	.LBB66:
 184              	.LBB53:
ARM GAS  C:\Users\even\AppData\Local\Temp\cckwnfBT.s 			page 6


 185 0078 303081E5 		str	r3, [r1, #48]
  87:../../Source/Platform/A7A/rme_platform_a7a.c ****     return 0;
 186              		.loc 1 87 5 view .LVU25
 187              		.loc 1 88 5 view .LVU26
 188              	.L6:
 189              	.LBE53:
 190              	.LBE66:
 191              	.LBB67:
 192              	.LBB61:
  87:../../Source/Platform/A7A/rme_platform_a7a.c ****     return 0;
 193              		.loc 1 87 5 view .LVU27
  87:../../Source/Platform/A7A/rme_platform_a7a.c ****     return 0;
 194              		.loc 1 87 5 view .LVU28
 195 007c 2C3092E5 		ldr	r3, [r2, #44]
 196 0080 080013E3 		tst	r3, #8
 197 0084 FCFFFF0A 		beq	.L6
  87:../../Source/Platform/A7A/rme_platform_a7a.c ****     return 0;
 198              		.loc 1 87 5 view .LVU29
 199              	.LBE61:
 200              	.LBE67:
 201              	.LBB68:
 202              	.LBB69:
 203 0088 011AA0E3 		mov	r1, #4096
 204              	.LBE69:
 205              	.LBE68:
 206              	.LBB74:
 207              	.LBB62:
 208 008c 6F30A0E3 		mov	r3, #111
 209              	.LBE62:
 210              	.LBE74:
 211              	.LBB75:
 212              	.LBB70:
 213 0090 00104EE3 		movt	r1, 57344
 214              	.LBE70:
 215              	.LBE75:
 216              	.LBB76:
 217              	.LBB63:
 218 0094 303082E5 		str	r3, [r2, #48]
  87:../../Source/Platform/A7A/rme_platform_a7a.c ****     return 0;
 219              		.loc 1 87 5 view .LVU30
 220              		.loc 1 88 5 view .LVU31
 221              	.L7:
 222              	.LBE63:
 223              	.LBE76:
 224              	.LBB77:
 225              	.LBB71:
  87:../../Source/Platform/A7A/rme_platform_a7a.c ****     return 0;
 226              		.loc 1 87 5 view .LVU32
  87:../../Source/Platform/A7A/rme_platform_a7a.c ****     return 0;
 227              		.loc 1 87 5 view .LVU33
 228 0098 2C3091E5 		ldr	r3, [r1, #44]
 229 009c 080013E3 		tst	r3, #8
 230 00a0 FCFFFF0A 		beq	.L7
  87:../../Source/Platform/A7A/rme_platform_a7a.c ****     return 0;
 231              		.loc 1 87 5 view .LVU34
 232              	.LBE71:
 233              	.LBE77:
ARM GAS  C:\Users\even\AppData\Local\Temp\cckwnfBT.s 			page 7


 234              	.LBB78:
 235              	.LBB79:
 236 00a4 012AA0E3 		mov	r2, #4096
 237              	.LBE79:
 238              	.LBE78:
 239              	.LBB83:
 240              	.LBB72:
 241 00a8 2030A0E3 		mov	r3, #32
 242              	.LBE72:
 243              	.LBE83:
 244              	.LBB84:
 245              	.LBB80:
 246 00ac 00204EE3 		movt	r2, 57344
 247              	.LBE80:
 248              	.LBE84:
 249              	.LBB85:
 250              	.LBB73:
 251 00b0 303081E5 		str	r3, [r1, #48]
  87:../../Source/Platform/A7A/rme_platform_a7a.c ****     return 0;
 252              		.loc 1 87 5 view .LVU35
 253              		.loc 1 88 5 view .LVU36
 254              	.L8:
 255              	.LBE73:
 256              	.LBE85:
 257              	.LBB86:
 258              	.LBB81:
  87:../../Source/Platform/A7A/rme_platform_a7a.c ****     return 0;
 259              		.loc 1 87 5 view .LVU37
  87:../../Source/Platform/A7A/rme_platform_a7a.c ****     return 0;
 260              		.loc 1 87 5 view .LVU38
 261 00b4 2C3092E5 		ldr	r3, [r2, #44]
 262 00b8 080013E3 		tst	r3, #8
 263 00bc FCFFFF0A 		beq	.L8
  87:../../Source/Platform/A7A/rme_platform_a7a.c ****     return 0;
 264              		.loc 1 87 5 view .LVU39
 265 00c0 7730A0E3 		mov	r3, #119
 266              	.LBE81:
 267              	.LBE86:
  47:../../Source/Platform/A7A/rme_platform_a7a.c ****     RME_DBG_S("0123456789\n");
 268              		.loc 1 47 5 is_stmt 0 view .LVU40
 269 00c4 000000E3 		movw	r0, #:lower16:.LC0
 270              	.LBB87:
 271              	.LBB82:
  87:../../Source/Platform/A7A/rme_platform_a7a.c ****     return 0;
 272              		.loc 1 87 5 view .LVU41
 273 00c8 303082E5 		str	r3, [r2, #48]
  87:../../Source/Platform/A7A/rme_platform_a7a.c ****     return 0;
 274              		.loc 1 87 5 is_stmt 1 view .LVU42
 275              		.loc 1 88 5 view .LVU43
 276              	.LBE82:
 277              	.LBE87:
  47:../../Source/Platform/A7A/rme_platform_a7a.c ****     RME_DBG_S("0123456789\n");
 278              		.loc 1 47 5 view .LVU44
 279 00cc 000040E3 		movt	r0, #:upper16:.LC0
 280 00d0 FEFFFFEB 		bl	RME_Str_Print
 281              	.LVL2:
  48:../../Source/Platform/A7A/rme_platform_a7a.c ****     RME_DBG_S("0123456789\n");
ARM GAS  C:\Users\even\AppData\Local\Temp\cckwnfBT.s 			page 8


 282              		.loc 1 48 5 view .LVU45
 283 00d4 000000E3 		movw	r0, #:lower16:.LC0
 284 00d8 000040E3 		movt	r0, #:upper16:.LC0
 285 00dc FEFFFFEB 		bl	RME_Str_Print
 286              	.LVL3:
  49:../../Source/Platform/A7A/rme_platform_a7a.c ****     RME_DBG_S("0123456789\n");
 287              		.loc 1 49 5 view .LVU46
 288 00e0 000000E3 		movw	r0, #:lower16:.LC0
 289 00e4 000040E3 		movt	r0, #:upper16:.LC0
 290 00e8 FEFFFFEB 		bl	RME_Str_Print
 291              	.LVL4:
  50:../../Source/Platform/A7A/rme_platform_a7a.c ****     RME_DBG_S("0123456789\n");
 292              		.loc 1 50 5 view .LVU47
 293 00ec 000000E3 		movw	r0, #:lower16:.LC0
 294 00f0 000040E3 		movt	r0, #:upper16:.LC0
 295 00f4 FEFFFFEB 		bl	RME_Str_Print
 296              	.LVL5:
  51:../../Source/Platform/A7A/rme_platform_a7a.c ****     RME_DBG_S("0123456789\n");
 297              		.loc 1 51 5 view .LVU48
 298 00f8 000000E3 		movw	r0, #:lower16:.LC0
 299 00fc 000040E3 		movt	r0, #:upper16:.LC0
 300 0100 FEFFFFEB 		bl	RME_Str_Print
 301              	.LVL6:
  52:../../Source/Platform/A7A/rme_platform_a7a.c ****     RME_DBG_S("0123456789\n");
 302              		.loc 1 52 5 view .LVU49
 303 0104 000000E3 		movw	r0, #:lower16:.LC0
 304 0108 000040E3 		movt	r0, #:upper16:.LC0
 305 010c FEFFFFEB 		bl	RME_Str_Print
 306              	.LVL7:
  53:../../Source/Platform/A7A/rme_platform_a7a.c ****     while(1);
 307              		.loc 1 53 5 view .LVU50
 308 0110 000000E3 		movw	r0, #:lower16:.LC0
 309 0114 000040E3 		movt	r0, #:upper16:.LC0
 310 0118 FEFFFFEB 		bl	RME_Str_Print
 311              	.LVL8:
 312              	.L9:
  54:../../Source/Platform/A7A/rme_platform_a7a.c ****     __RME_Putchar('h');
 313              		.loc 1 54 5 discriminator 1 view .LVU51
  54:../../Source/Platform/A7A/rme_platform_a7a.c ****     __RME_Putchar('h');
 314              		.loc 1 54 13 discriminator 1 view .LVU52
  54:../../Source/Platform/A7A/rme_platform_a7a.c ****     __RME_Putchar('h');
 315              		.loc 1 54 10 discriminator 1 view .LVU53
  54:../../Source/Platform/A7A/rme_platform_a7a.c ****     __RME_Putchar('h');
 316              		.loc 1 54 5 discriminator 1 view .LVU54
  54:../../Source/Platform/A7A/rme_platform_a7a.c ****     __RME_Putchar('h');
 317              		.loc 1 54 13 discriminator 1 view .LVU55
  54:../../Source/Platform/A7A/rme_platform_a7a.c ****     __RME_Putchar('h');
 318              		.loc 1 54 10 discriminator 1 view .LVU56
 319 011c FEFFFFEA 		b	.L9
 320              		.cfi_endproc
 321              	.LFE0:
 323              		.section	.text.__RME_Putchar,"ax",%progbits
 324              		.align	2
 325              		.global	__RME_Putchar
 326              		.syntax unified
 327              		.arm
 329              	__RME_Putchar:
ARM GAS  C:\Users\even\AppData\Local\Temp\cckwnfBT.s 			page 9


 330              	.LVL9:
 331              	.LFB1:
  86:../../Source/Platform/A7A/rme_platform_a7a.c ****     RME_A7A_PUTCHAR(Char);
 332              		.loc 1 86 1 view -0
 333              		.cfi_startproc
 334              		@ args = 0, pretend = 0, frame = 0
 335              		@ frame_needed = 0, uses_anonymous_args = 0
 336              		@ link register save eliminated.
  87:../../Source/Platform/A7A/rme_platform_a7a.c ****     return 0;
 337              		.loc 1 87 5 view .LVU58
  87:../../Source/Platform/A7A/rme_platform_a7a.c ****     return 0;
 338              		.loc 1 87 5 view .LVU59
 339 0000 012AA0E3 		mov	r2, #4096
 340 0004 00204EE3 		movt	r2, 57344
 341              	.L27:
  87:../../Source/Platform/A7A/rme_platform_a7a.c ****     return 0;
 342              		.loc 1 87 5 discriminator 1 view .LVU60
  87:../../Source/Platform/A7A/rme_platform_a7a.c ****     return 0;
 343              		.loc 1 87 5 discriminator 1 view .LVU61
 344 0008 2C3092E5 		ldr	r3, [r2, #44]
 345 000c 080013E3 		tst	r3, #8
 346 0010 FCFFFF0A 		beq	.L27
  87:../../Source/Platform/A7A/rme_platform_a7a.c ****     return 0;
 347              		.loc 1 87 5 discriminator 2 view .LVU62
 348 0014 300082E5 		str	r0, [r2, #48]
  87:../../Source/Platform/A7A/rme_platform_a7a.c ****     return 0;
 349              		.loc 1 87 5 discriminator 2 view .LVU63
 350              		.loc 1 88 5 discriminator 2 view .LVU64
  89:../../Source/Platform/A7A/rme_platform_a7a.c **** }
 351              		.loc 1 89 1 is_stmt 0 discriminator 2 view .LVU65
 352 0018 0000A0E3 		mov	r0, #0
 353              	.LVL10:
 354              		.loc 1 89 1 discriminator 2 view .LVU66
 355 001c 1EFF2FE1 		bx	lr
 356              		.cfi_endproc
 357              	.LFE1:
 359              		.section	.text.__RME_A7A_Int_Local_Init,"ax",%progbits
 360              		.align	2
 361              		.global	__RME_A7A_Int_Local_Init
 362              		.syntax unified
 363              		.arm
 365              	__RME_A7A_Int_Local_Init:
 366              	.LFB3:
  90:../../Source/Platform/A7A/rme_platform_a7a.c **** /* End Function:__RME_Putchar ************************************************/
  91:../../Source/Platform/A7A/rme_platform_a7a.c **** 
  92:../../Source/Platform/A7A/rme_platform_a7a.c **** /* Function:__RME_A7A_CPU_Local_Get ******************************************
  93:../../Source/Platform/A7A/rme_platform_a7a.c **** Description : Get the CPU-local data structures. This is to identify where we are
  94:../../Source/Platform/A7A/rme_platform_a7a.c ****               executing.
  95:../../Source/Platform/A7A/rme_platform_a7a.c **** Input       : None.
  96:../../Source/Platform/A7A/rme_platform_a7a.c **** Output      : None.
  97:../../Source/Platform/A7A/rme_platform_a7a.c **** Return      : struct RME_CPU_Local* - The CPU-local data structures.
  98:../../Source/Platform/A7A/rme_platform_a7a.c **** ******************************************************************************/
  99:../../Source/Platform/A7A/rme_platform_a7a.c **** /*struct RME_CPU_Local* __RME_A7A_CPU_Local_Get(void)
 100:../../Source/Platform/A7A/rme_platform_a7a.c **** {
 101:../../Source/Platform/A7A/rme_platform_a7a.c **** 	return &RME_A7A_Local[__RME_A7A_MPIDR_Get()&0x03];
 102:../../Source/Platform/A7A/rme_platform_a7a.c **** }*/
 103:../../Source/Platform/A7A/rme_platform_a7a.c **** /* End Function:__RME_A7A_CPU_Local_Get *************************************/
ARM GAS  C:\Users\even\AppData\Local\Temp\cckwnfBT.s 			page 10


 104:../../Source/Platform/A7A/rme_platform_a7a.c **** 
 105:../../Source/Platform/A7A/rme_platform_a7a.c **** /* Function:__RME_A7A_Int_Init ***********************************************
 106:../../Source/Platform/A7A/rme_platform_a7a.c **** Description : Initialize the interrupt controller of the Cortex-A ARMv7 platform.
 107:../../Source/Platform/A7A/rme_platform_a7a.c ****               This will only initialize the distributor and will only be run by
 108:../../Source/Platform/A7A/rme_platform_a7a.c ****               the first CPU. This will initialize the timer as well.
 109:../../Source/Platform/A7A/rme_platform_a7a.c **** Input       : None.
 110:../../Source/Platform/A7A/rme_platform_a7a.c **** Output      : None.
 111:../../Source/Platform/A7A/rme_platform_a7a.c **** Return      : None.
 112:../../Source/Platform/A7A/rme_platform_a7a.c **** ******************************************************************************/
 113:../../Source/Platform/A7A/rme_platform_a7a.c **** void __RME_A7A_Int_Init(void)
 114:../../Source/Platform/A7A/rme_platform_a7a.c **** {
 115:../../Source/Platform/A7A/rme_platform_a7a.c ****     rme_ptr_t Temp;
 116:../../Source/Platform/A7A/rme_platform_a7a.c ****     rme_ptr_t Lines;
 117:../../Source/Platform/A7A/rme_platform_a7a.c **** 
 118:../../Source/Platform/A7A/rme_platform_a7a.c ****     /* Who implemented the GIC, what variant, how many interrupts? */
 119:../../Source/Platform/A7A/rme_platform_a7a.c ****     Temp=RME_A7A_GICD_IIDR;
 120:../../Source/Platform/A7A/rme_platform_a7a.c ****     RME_DBG_S("\r\nA7A-GIC: ProductID: ");
 121:../../Source/Platform/A7A/rme_platform_a7a.c ****     RME_DBG_I(Temp>>24);
 122:../../Source/Platform/A7A/rme_platform_a7a.c ****     RME_DBG_S("\r\nA7A-GIC: Variant: ");
 123:../../Source/Platform/A7A/rme_platform_a7a.c ****     RME_DBG_I((Temp>>20)&0xF);
 124:../../Source/Platform/A7A/rme_platform_a7a.c ****     RME_DBG_S("\r\nA7A-GIC: Revision: ");
 125:../../Source/Platform/A7A/rme_platform_a7a.c ****     RME_DBG_I((Temp>>12)&0xF);
 126:../../Source/Platform/A7A/rme_platform_a7a.c ****     RME_DBG_S("\r\nA7A-GIC: Implementer: 0x");
 127:../../Source/Platform/A7A/rme_platform_a7a.c ****     //RME_DBG_U(Temp&0xFFF);
 128:../../Source/Platform/A7A/rme_platform_a7a.c **** 
 129:../../Source/Platform/A7A/rme_platform_a7a.c ****     /* How many locked SPIs, security extension enabled or not, number of
 130:../../Source/Platform/A7A/rme_platform_a7a.c ****      * actual CPUs and interrupt lines */
 131:../../Source/Platform/A7A/rme_platform_a7a.c ****     Temp=RME_A7A_GICD_TYPER;
 132:../../Source/Platform/A7A/rme_platform_a7a.c ****     RME_DBG_S("\r\nA7A-GIC: SPI number: ");
 133:../../Source/Platform/A7A/rme_platform_a7a.c ****     RME_DBG_I(Temp>>16);
 134:../../Source/Platform/A7A/rme_platform_a7a.c ****     RME_DBG_S("\r\nA7A-GIC: Security extension: ");
 135:../../Source/Platform/A7A/rme_platform_a7a.c ****     RME_DBG_I((Temp>>10)&0x1);
 136:../../Source/Platform/A7A/rme_platform_a7a.c ****     RME_DBG_S("\r\nA7A-GIC: CPU number: ");
 137:../../Source/Platform/A7A/rme_platform_a7a.c ****     RME_DBG_I(((Temp>>5)&0x7)+1);
 138:../../Source/Platform/A7A/rme_platform_a7a.c ****     RME_DBG_S("\r\nA7A-GIC: Interrupt line number: ");
 139:../../Source/Platform/A7A/rme_platform_a7a.c ****     Lines=((Temp&0x1F)+1)*32;
 140:../../Source/Platform/A7A/rme_platform_a7a.c ****     RME_DBG_I(Lines);
 141:../../Source/Platform/A7A/rme_platform_a7a.c **** 
 142:../../Source/Platform/A7A/rme_platform_a7a.c **** #if(RME_A7A_GIC_TYPE==RME_A7A_GIC_V1)
 143:../../Source/Platform/A7A/rme_platform_a7a.c ****     /* Initialize all vectors to group 0, and disable all */
 144:../../Source/Platform/A7A/rme_platform_a7a.c **** 	for(Temp=0;Temp<Lines/32;Temp++)
 145:../../Source/Platform/A7A/rme_platform_a7a.c **** 	{
 146:../../Source/Platform/A7A/rme_platform_a7a.c **** 		RME_A7A_GICD_ICPENDR(Temp)=0xFFFFFFFFU;
 147:../../Source/Platform/A7A/rme_platform_a7a.c **** 		RME_A7A_GICD_IGROUPR(Temp)=0x00000000U;
 148:../../Source/Platform/A7A/rme_platform_a7a.c **** 		RME_A7A_GICD_ICENABLER(Temp)=0xFFFFFFFFU;
 149:../../Source/Platform/A7A/rme_platform_a7a.c **** 	}
 150:../../Source/Platform/A7A/rme_platform_a7a.c **** 
 151:../../Source/Platform/A7A/rme_platform_a7a.c **** 	/* Set the priority of all such interrupts to the lowest level */
 152:../../Source/Platform/A7A/rme_platform_a7a.c **** 	for(Temp=0;Temp<Lines/4;Temp++)
 153:../../Source/Platform/A7A/rme_platform_a7a.c **** 		RME_A7A_GICD_IPRIORITYR(Temp)=0xA0A0A0A0U;
 154:../../Source/Platform/A7A/rme_platform_a7a.c **** 
 155:../../Source/Platform/A7A/rme_platform_a7a.c **** 	/* All interrupts target CPU0 */
 156:../../Source/Platform/A7A/rme_platform_a7a.c **** 	for(Temp=8;Temp<Lines/4;Temp++)
 157:../../Source/Platform/A7A/rme_platform_a7a.c **** 		RME_A7A_GICD_ITARGETSR(Temp)=0x01010101U;
 158:../../Source/Platform/A7A/rme_platform_a7a.c **** 
 159:../../Source/Platform/A7A/rme_platform_a7a.c **** 	/* All interrupts are edge triggered, and use 1-N model */
 160:../../Source/Platform/A7A/rme_platform_a7a.c **** 	for(Temp=0;Temp<Lines/16;Temp++)
ARM GAS  C:\Users\even\AppData\Local\Temp\cckwnfBT.s 			page 11


 161:../../Source/Platform/A7A/rme_platform_a7a.c **** 		RME_A7A_GICD_ICFGR(Temp)=0x55555555U;
 162:../../Source/Platform/A7A/rme_platform_a7a.c **** 
 163:../../Source/Platform/A7A/rme_platform_a7a.c **** 	/* Enable the interrupt controller */
 164:../../Source/Platform/A7A/rme_platform_a7a.c **** 	RME_A7A_GICD_CTLR=RME_A7A_GICD_CTLR_GRP1EN|RME_A7A_GICD_CTLR_GRP0EN;
 165:../../Source/Platform/A7A/rme_platform_a7a.c **** #else
 166:../../Source/Platform/A7A/rme_platform_a7a.c ****     /* Initialize all vectors to group 1, unless otherwise noted, and disable all */
 167:../../Source/Platform/A7A/rme_platform_a7a.c ****     for(Temp=0;Temp<Lines/32;Temp++)
 168:../../Source/Platform/A7A/rme_platform_a7a.c ****     {
 169:../../Source/Platform/A7A/rme_platform_a7a.c ****     	RME_A7A_GICD_ICPENDR(Temp)=0xFFFFFFFFU;
 170:../../Source/Platform/A7A/rme_platform_a7a.c ****     	RME_A7A_GICD_IGROUPR(Temp)=0xFFFFFFFFU;
 171:../../Source/Platform/A7A/rme_platform_a7a.c ****     	RME_A7A_GICD_ICENABLER(Temp)=0xFFFFFFFFU;
 172:../../Source/Platform/A7A/rme_platform_a7a.c ****     }
 173:../../Source/Platform/A7A/rme_platform_a7a.c **** 
 174:../../Source/Platform/A7A/rme_platform_a7a.c ****     /* Set the priority of all such interrupts to the lowest level*/
 175:../../Source/Platform/A7A/rme_platform_a7a.c ****     for(Temp=0;Temp<Lines/4;Temp++)
 176:../../Source/Platform/A7A/rme_platform_a7a.c **** 		RME_A7A_GICD_IPRIORITYR(Temp)=0xE0E0E0E0U;
 177:../../Source/Platform/A7A/rme_platform_a7a.c **** 
 178:../../Source/Platform/A7A/rme_platform_a7a.c ****     /* All interrupts target CPU0 */
 179:../../Source/Platform/A7A/rme_platform_a7a.c ****     for(Temp=8;Temp<Lines/4;Temp++)
 180:../../Source/Platform/A7A/rme_platform_a7a.c ****     	RME_A7A_GICD_ITARGETSR(Temp)=0x01010101U;
 181:../../Source/Platform/A7A/rme_platform_a7a.c **** 
 182:../../Source/Platform/A7A/rme_platform_a7a.c ****     /* All interrupts are edge triggered, and use 1-N model */
 183:../../Source/Platform/A7A/rme_platform_a7a.c ****     for(Temp=0;Temp<Lines/16;Temp++)
 184:../../Source/Platform/A7A/rme_platform_a7a.c ****     	RME_A7A_GICD_ICFGR(Temp)=0xFFFFFFFFU;
 185:../../Source/Platform/A7A/rme_platform_a7a.c **** 
 186:../../Source/Platform/A7A/rme_platform_a7a.c ****     /* Enable the interrupt controller */
 187:../../Source/Platform/A7A/rme_platform_a7a.c ****     RME_A7A_GICD_CTLR=RME_A7A_GICD_CTLR_GRP1EN|RME_A7A_GICD_CTLR_GRP0EN;
 188:../../Source/Platform/A7A/rme_platform_a7a.c **** #endif
 189:../../Source/Platform/A7A/rme_platform_a7a.c **** }
 190:../../Source/Platform/A7A/rme_platform_a7a.c **** /* End Function:__RME_A7A_Int_Init ******************************************/
 191:../../Source/Platform/A7A/rme_platform_a7a.c **** 
 192:../../Source/Platform/A7A/rme_platform_a7a.c **** /* Function:__RME_A7A_Int_Local_Init *****************************************
 193:../../Source/Platform/A7A/rme_platform_a7a.c **** Description : Initialize the local CPU interface of the processor.
 194:../../Source/Platform/A7A/rme_platform_a7a.c **** Input       : None.
 195:../../Source/Platform/A7A/rme_platform_a7a.c **** Output      : None.
 196:../../Source/Platform/A7A/rme_platform_a7a.c **** Return      : None.
 197:../../Source/Platform/A7A/rme_platform_a7a.c **** ******************************************************************************/
 198:../../Source/Platform/A7A/rme_platform_a7a.c **** void __RME_A7A_Int_Local_Init(void)
 199:../../Source/Platform/A7A/rme_platform_a7a.c **** {
 367              		.loc 1 199 1 is_stmt 1 view -0
 368              		.cfi_startproc
 369              		@ args = 0, pretend = 0, frame = 0
 370              		@ frame_needed = 0, uses_anonymous_args = 0
 371              		@ link register save eliminated.
 200:../../Source/Platform/A7A/rme_platform_a7a.c **** 	/* Priority grouping */
 201:../../Source/Platform/A7A/rme_platform_a7a.c **** 	RME_A7A_GICC_BPR=RME_A7A_GIC_GROUPING;
 372              		.loc 1 201 2 view .LVU68
 373              		.loc 1 201 18 is_stmt 0 view .LVU69
 374 0000 0030A0E3 		mov	r3, #0
 202:../../Source/Platform/A7A/rme_platform_a7a.c **** 
 203:../../Source/Platform/A7A/rme_platform_a7a.c **** #if(RME_A7A_GIC_TYPE==RME_A7A_GIC_V1)
 204:../../Source/Platform/A7A/rme_platform_a7a.c **** 	/* Enable all interrupts to this interface - FIQ is bypassed, and all
 205:../../Source/Platform/A7A/rme_platform_a7a.c **** 	 * interrupts go through the IRQ. The FIQ feature is only available on
 206:../../Source/Platform/A7A/rme_platform_a7a.c **** 	 * the stabdalone FIQ interrupt line */
 207:../../Source/Platform/A7A/rme_platform_a7a.c **** 	RME_A7A_GICC_CTLR=RME_A7A_GICC_ENABLEGRP0;
 375              		.loc 1 207 19 view .LVU70
 376 0004 0110A0E3 		mov	r1, #1
ARM GAS  C:\Users\even\AppData\Local\Temp\cckwnfBT.s 			page 12


 201:../../Source/Platform/A7A/rme_platform_a7a.c **** 
 377              		.loc 1 201 18 view .LVU71
 378 0008 0320A0E1 		mov	r2, r3
 379 000c F0384FE3 		movt	r3, 63728
 380 0010 042183E5 		str	r2, [r3, #260]
 381              		.loc 1 207 2 is_stmt 1 view .LVU72
 208:../../Source/Platform/A7A/rme_platform_a7a.c **** #else
 209:../../Source/Platform/A7A/rme_platform_a7a.c **** 	RME_A7A_GICC_CTLR=RME_A7A_GICC_CBPR|RME_A7A_GICC_FIQEN|
 210:../../Source/Platform/A7A/rme_platform_a7a.c **** 			           RME_A7A_GICC_ENABLEGRP1|RME_A7A_GICC_ENABLEGRP0;
 211:../../Source/Platform/A7A/rme_platform_a7a.c **** #endif
 212:../../Source/Platform/A7A/rme_platform_a7a.c **** 
 213:../../Source/Platform/A7A/rme_platform_a7a.c **** 	/* No interrupts are masked - This must be set at last because enabling
 214:../../Source/Platform/A7A/rme_platform_a7a.c **** 	 * will trash the contents of this register if previously set. To maintain
 215:../../Source/Platform/A7A/rme_platform_a7a.c **** 	 * compatibility across all possible implementations, no priority level
 216:../../Source/Platform/A7A/rme_platform_a7a.c **** 	 * lower than 0xF0 will be considered valid */
 217:../../Source/Platform/A7A/rme_platform_a7a.c **** 	RME_A7A_GICC_PMR=0xF0U;
 382              		.loc 1 217 18 is_stmt 0 view .LVU73
 383 0014 F020A0E3 		mov	r2, #240
 207:../../Source/Platform/A7A/rme_platform_a7a.c **** #else
 384              		.loc 1 207 19 view .LVU74
 385 0018 001183E5 		str	r1, [r3, #256]
 386              		.loc 1 217 2 is_stmt 1 view .LVU75
 387              		.loc 1 217 18 is_stmt 0 view .LVU76
 388 001c 042183E5 		str	r2, [r3, #260]
 218:../../Source/Platform/A7A/rme_platform_a7a.c **** }
 389              		.loc 1 218 1 view .LVU77
 390 0020 1EFF2FE1 		bx	lr
 391              		.cfi_endproc
 392              	.LFE3:
 394              		.section	.text.__RME_A7A_Feature_Get,"ax",%progbits
 395              		.align	2
 396              		.global	__RME_A7A_Feature_Get
 397              		.syntax unified
 398              		.arm
 400              	__RME_A7A_Feature_Get:
 401              	.LFB47:
 402              		.cfi_startproc
 403              		@ args = 0, pretend = 0, frame = 0
 404              		@ frame_needed = 0, uses_anonymous_args = 0
 405              		@ link register save eliminated.
 406 0000 1EFF2FE1 		bx	lr
 407              		.cfi_endproc
 408              	.LFE47:
 410              		.section	.text.__RME_A7A_Mem_Init,"ax",%progbits
 411              		.align	2
 412              		.global	__RME_A7A_Mem_Init
 413              		.syntax unified
 414              		.arm
 416              	__RME_A7A_Mem_Init:
 417              	.LVL11:
 418              	.LFB6:
 219:../../Source/Platform/A7A/rme_platform_a7a.c **** /* End Function:__RME_A7A_Int_Local_Init ************************************/
 220:../../Source/Platform/A7A/rme_platform_a7a.c **** 
 221:../../Source/Platform/A7A/rme_platform_a7a.c **** /* Function:__RME_A7A_Timer_Init *********************************************
 222:../../Source/Platform/A7A/rme_platform_a7a.c **** Description : Initialize the interrupt controller of the Cortex-A ARMv7 platform.
 223:../../Source/Platform/A7A/rme_platform_a7a.c ****               This will only initialize the distributor and will only be run by
 224:../../Source/Platform/A7A/rme_platform_a7a.c ****               the first CPU. This will initialize the timer as well.
ARM GAS  C:\Users\even\AppData\Local\Temp\cckwnfBT.s 			page 13


 225:../../Source/Platform/A7A/rme_platform_a7a.c **** Input       : None.
 226:../../Source/Platform/A7A/rme_platform_a7a.c **** Output      : None.
 227:../../Source/Platform/A7A/rme_platform_a7a.c **** Return      : None.
 228:../../Source/Platform/A7A/rme_platform_a7a.c **** ******************************************************************************/
 229:../../Source/Platform/A7A/rme_platform_a7a.c **** void __RME_A7A_Timer_Init(void)
 230:../../Source/Platform/A7A/rme_platform_a7a.c **** {
 231:../../Source/Platform/A7A/rme_platform_a7a.c **** #if((RME_A7A_CPU_TYPE==RME_A7A_CPU_CORTEX_A5)|| \
 232:../../Source/Platform/A7A/rme_platform_a7a.c **** 	(RME_A7A_CPU_TYPE==RME_A7A_CPU_CORTEX_A9))
 233:../../Source/Platform/A7A/rme_platform_a7a.c ****     /* Writing this will also write the counter register as well */
 234:../../Source/Platform/A7A/rme_platform_a7a.c ****     RME_A7A_PTWD_PTLR=RME_A7A_SYSTICK_VAL;
 235:../../Source/Platform/A7A/rme_platform_a7a.c ****     /* Clear the interrupt flag */
 236:../../Source/Platform/A7A/rme_platform_a7a.c ****     RME_A7A_PTWD_PTISR=0;
 237:../../Source/Platform/A7A/rme_platform_a7a.c ****     /* Start the timer */
 238:../../Source/Platform/A7A/rme_platform_a7a.c ****     RME_A7A_PTWD_PTCTLR=RME_A7A_PTWD_PTCTLR_PRESC(0)|
 239:../../Source/Platform/A7A/rme_platform_a7a.c ****                          RME_A7A_PTWD_PTCTLR_IRQEN|
 240:../../Source/Platform/A7A/rme_platform_a7a.c **** 						 RME_A7A_PTWD_PTCTLR_AUTOREL|
 241:../../Source/Platform/A7A/rme_platform_a7a.c **** 						 RME_A7A_PTWD_PTCTLR_TIMEN;
 242:../../Source/Platform/A7A/rme_platform_a7a.c **** 
 243:../../Source/Platform/A7A/rme_platform_a7a.c ****     /* Enable the timer interrupt in the GIC */
 244:../../Source/Platform/A7A/rme_platform_a7a.c ****     RME_A7A_GICD_ISENABLER(0)|=1<<29;
 245:../../Source/Platform/A7A/rme_platform_a7a.c **** #else
 246:../../Source/Platform/A7A/rme_platform_a7a.c **** 	#error Cortex-A7/8/15/17 is not supported at the moment.
 247:../../Source/Platform/A7A/rme_platform_a7a.c ****     Cortex-A7/15/17 use the new generic timer, and Cortex-A8 does not
 248:../../Source/Platform/A7A/rme_platform_a7a.c **** 	have a processor timer due to very early release dates.
 249:../../Source/Platform/A7A/rme_platform_a7a.c **** #endif
 250:../../Source/Platform/A7A/rme_platform_a7a.c **** }
 251:../../Source/Platform/A7A/rme_platform_a7a.c **** /* End Function:__RME_A7A_Timer_Init ****************************************/
 252:../../Source/Platform/A7A/rme_platform_a7a.c **** 
 253:../../Source/Platform/A7A/rme_platform_a7a.c **** /* Function:__RME_A7A_Feature_Get ********************************************
 254:../../Source/Platform/A7A/rme_platform_a7a.c **** Description : Use the CPUID instruction extensively to get all the processor
 255:../../Source/Platform/A7A/rme_platform_a7a.c ****               information. We assume that all processors installed have the same
 256:../../Source/Platform/A7A/rme_platform_a7a.c ****               features.
 257:../../Source/Platform/A7A/rme_platform_a7a.c **** Input       : None.
 258:../../Source/Platform/A7A/rme_platform_a7a.c **** Output      : None.
 259:../../Source/Platform/A7A/rme_platform_a7a.c **** Return      : None.
 260:../../Source/Platform/A7A/rme_platform_a7a.c **** ******************************************************************************/
 261:../../Source/Platform/A7A/rme_platform_a7a.c **** void __RME_A7A_Feature_Get(void)
 262:../../Source/Platform/A7A/rme_platform_a7a.c **** {
 263:../../Source/Platform/A7A/rme_platform_a7a.c **** 
 264:../../Source/Platform/A7A/rme_platform_a7a.c ****     /* TODO: Check these flags. If not satisfied, we hang immediately. */
 265:../../Source/Platform/A7A/rme_platform_a7a.c **** }
 266:../../Source/Platform/A7A/rme_platform_a7a.c **** /* End Function:__RME_A7A_Feature_Get ***************************************/
 267:../../Source/Platform/A7A/rme_platform_a7a.c **** 
 268:../../Source/Platform/A7A/rme_platform_a7a.c **** /* Function:__RME_A7A_Mem_Init ***********************************************
 269:../../Source/Platform/A7A/rme_platform_a7a.c **** Description : Initialize the memory map, and get the size of kernel object
 270:../../Source/Platform/A7A/rme_platform_a7a.c ****               allocation registration table(Kot) and page table reference
 271:../../Source/Platform/A7A/rme_platform_a7a.c ****               count registration table(Pgreg).
 272:../../Source/Platform/A7A/rme_platform_a7a.c **** Input       : rme_ptr_t MMap_Addr - The GRUB multiboot memory map data address.
 273:../../Source/Platform/A7A/rme_platform_a7a.c ****               rme_ptr_t MMap_Length - The GRUB multiboot memory map data length.
 274:../../Source/Platform/A7A/rme_platform_a7a.c **** Output      : None.
 275:../../Source/Platform/A7A/rme_platform_a7a.c **** Return      : None.
 276:../../Source/Platform/A7A/rme_platform_a7a.c **** ******************************************************************************/
 277:../../Source/Platform/A7A/rme_platform_a7a.c **** const rme_ptr_t RME_A7A_Mem_Info[RME_A7A_MEM_ENTRIES]={RME_A7A_MEM_CONTENTS};
 278:../../Source/Platform/A7A/rme_platform_a7a.c **** void __RME_A7A_Mem_Init(rme_ptr_t MMap_Addr, rme_ptr_t MMap_Length)
 279:../../Source/Platform/A7A/rme_platform_a7a.c **** {
 419              		.loc 1 279 1 is_stmt 1 view -0
 420              		.cfi_startproc
ARM GAS  C:\Users\even\AppData\Local\Temp\cckwnfBT.s 			page 14


 421              		@ args = 0, pretend = 0, frame = 0
 422              		@ frame_needed = 0, uses_anonymous_args = 0
 423              		@ link register save eliminated.
 280:../../Source/Platform/A7A/rme_platform_a7a.c **** 
 281:../../Source/Platform/A7A/rme_platform_a7a.c **** }
 424              		.loc 1 281 1 view .LVU79
 425 0000 1EFF2FE1 		bx	lr
 426              		.cfi_endproc
 427              	.LFE6:
 429              		.section	.text.__RME_A7A_SMP_Init,"ax",%progbits
 430              		.align	2
 431              		.global	__RME_A7A_SMP_Init
 432              		.syntax unified
 433              		.arm
 435              	__RME_A7A_SMP_Init:
 436              	.LFB49:
 437              		.cfi_startproc
 438              		@ args = 0, pretend = 0, frame = 0
 439              		@ frame_needed = 0, uses_anonymous_args = 0
 440              		@ link register save eliminated.
 441 0000 1EFF2FE1 		bx	lr
 442              		.cfi_endproc
 443              	.LFE49:
 445              		.section	.text.__RME_A7A_SMP_Tick,"ax",%progbits
 446              		.align	2
 447              		.global	__RME_A7A_SMP_Tick
 448              		.syntax unified
 449              		.arm
 451              	__RME_A7A_SMP_Tick:
 452              	.LFB51:
 453              		.cfi_startproc
 454              		@ args = 0, pretend = 0, frame = 0
 455              		@ frame_needed = 0, uses_anonymous_args = 0
 456              		@ link register save eliminated.
 457 0000 1EFF2FE1 		bx	lr
 458              		.cfi_endproc
 459              	.LFE51:
 461              		.section	.rodata.__RME_Lowlvl_Init.str1.4,"aMS",%progbits,1
 462              		.align	2
 463              	.LC1:
 464 0000 0D0A4137 		.ascii	"\015\012A7A-GIC: ProductID: \000"
 464      412D4749 
 464      433A2050 
 464      726F6475 
 464      63744944 
 465 0017 00       		.align	2
 466              	.LC2:
 467 0018 0D0A4137 		.ascii	"\015\012A7A-GIC: Variant: \000"
 467      412D4749 
 467      433A2056 
 467      61726961 
 467      6E743A20 
 468 002d 000000   		.align	2
 469              	.LC3:
 470 0030 0D0A4137 		.ascii	"\015\012A7A-GIC: Revision: \000"
 470      412D4749 
 470      433A2052 
ARM GAS  C:\Users\even\AppData\Local\Temp\cckwnfBT.s 			page 15


 470      65766973 
 470      696F6E3A 
 471 0046 0000     		.align	2
 472              	.LC4:
 473 0048 0D0A4137 		.ascii	"\015\012A7A-GIC: Implementer: 0x\000"
 473      412D4749 
 473      433A2049 
 473      6D706C65 
 473      6D656E74 
 474 0063 00       		.align	2
 475              	.LC5:
 476 0064 0D0A4137 		.ascii	"\015\012A7A-GIC: SPI number: \000"
 476      412D4749 
 476      433A2053 
 476      5049206E 
 476      756D6265 
 477              		.align	2
 478              	.LC6:
 479 007c 0D0A4137 		.ascii	"\015\012A7A-GIC: Security extension: \000"
 479      412D4749 
 479      433A2053 
 479      65637572 
 479      69747920 
 480              		.align	2
 481              	.LC7:
 482 009c 0D0A4137 		.ascii	"\015\012A7A-GIC: CPU number: \000"
 482      412D4749 
 482      433A2043 
 482      5055206E 
 482      756D6265 
 483              		.align	2
 484              	.LC8:
 485 00b4 0D0A4137 		.ascii	"\015\012A7A-GIC: Interrupt line number: \000"
 485      412D4749 
 485      433A2049 
 485      6E746572 
 485      72757074 
 486 00d7 00       		.align	2
 487              	.LC9:
 488 00d8 0D0A4137 		.ascii	"\015\012A7A-Vector: 0x\000"
 488      412D5665 
 488      63746F72 
 488      3A203078 
 488      00
 489 00e9 000000   		.align	2
 490              	.LC10:
 491 00ec 0D0A4137 		.ascii	"\015\012A7A-Non-Secure: \000"
 491      412D4E6F 
 491      6E2D5365 
 491      63757265 
 491      3A2000
 492              		.section	.text.__RME_Lowlvl_Init,"ax",%progbits
 493              		.align	2
 494              		.global	__RME_Lowlvl_Init
 495              		.syntax unified
 496              		.arm
 498              	__RME_Lowlvl_Init:
ARM GAS  C:\Users\even\AppData\Local\Temp\cckwnfBT.s 			page 16


 499              	.LFB9:
 282:../../Source/Platform/A7A/rme_platform_a7a.c **** /* End Function:__RME_A7A_Mem_Init ******************************************/
 283:../../Source/Platform/A7A/rme_platform_a7a.c **** 
 284:../../Source/Platform/A7A/rme_platform_a7a.c **** /* Function:__RME_A7A_SMP_Init ***********************************************
 285:../../Source/Platform/A7A/rme_platform_a7a.c **** Description : Start all other processors, one by one.
 286:../../Source/Platform/A7A/rme_platform_a7a.c **** Input       : None.
 287:../../Source/Platform/A7A/rme_platform_a7a.c **** Output      : None.
 288:../../Source/Platform/A7A/rme_platform_a7a.c **** Return      : None.
 289:../../Source/Platform/A7A/rme_platform_a7a.c **** ******************************************************************************/
 290:../../Source/Platform/A7A/rme_platform_a7a.c **** void __RME_A7A_SMP_Init(void)
 291:../../Source/Platform/A7A/rme_platform_a7a.c **** {
 292:../../Source/Platform/A7A/rme_platform_a7a.c **** 
 293:../../Source/Platform/A7A/rme_platform_a7a.c **** }
 294:../../Source/Platform/A7A/rme_platform_a7a.c **** /* End Function:__RME_A7A_SMP_Init ******************************************/
 295:../../Source/Platform/A7A/rme_platform_a7a.c **** 
 296:../../Source/Platform/A7A/rme_platform_a7a.c **** /* Function:__RME_A7A_SMP_Tick ***********************************************
 297:../../Source/Platform/A7A/rme_platform_a7a.c **** Description : Send IPI to all other cores,to run their handler on the time.
 298:../../Source/Platform/A7A/rme_platform_a7a.c **** Input       : None.
 299:../../Source/Platform/A7A/rme_platform_a7a.c **** Output      : None.
 300:../../Source/Platform/A7A/rme_platform_a7a.c **** Return      : None.
 301:../../Source/Platform/A7A/rme_platform_a7a.c **** ******************************************************************************/
 302:../../Source/Platform/A7A/rme_platform_a7a.c **** void __RME_A7A_SMP_Tick(void)
 303:../../Source/Platform/A7A/rme_platform_a7a.c **** {
 304:../../Source/Platform/A7A/rme_platform_a7a.c **** 
 305:../../Source/Platform/A7A/rme_platform_a7a.c **** }
 306:../../Source/Platform/A7A/rme_platform_a7a.c **** /* End Function:__RME_A7A_SMP_Tick *******************************************/
 307:../../Source/Platform/A7A/rme_platform_a7a.c **** 
 308:../../Source/Platform/A7A/rme_platform_a7a.c **** /* Function:__RME_Lowlvl_Init **********************************************
 309:../../Source/Platform/A7A/rme_platform_a7a.c **** Description : Initialize the low-level hardware. This assumes that we are already
 310:../../Source/Platform/A7A/rme_platform_a7a.c ****               in Supervisor (SVC) mode.
 311:../../Source/Platform/A7A/rme_platform_a7a.c **** Input       : None.
 312:../../Source/Platform/A7A/rme_platform_a7a.c **** Output      : None.
 313:../../Source/Platform/A7A/rme_platform_a7a.c **** Return      : rme_ptr_t - Always 0.
 314:../../Source/Platform/A7A/rme_platform_a7a.c **** ******************************************************************************/
 315:../../Source/Platform/A7A/rme_platform_a7a.c **** void __RME_Lowlvl_Init(void)
 316:../../Source/Platform/A7A/rme_platform_a7a.c **** {
 500              		.loc 1 316 1 view -0
 501              		.cfi_startproc
 502              		@ args = 0, pretend = 0, frame = 0
 503              		@ frame_needed = 0, uses_anonymous_args = 0
 317:../../Source/Platform/A7A/rme_platform_a7a.c ****     /* Initialize hardware */
 318:../../Source/Platform/A7A/rme_platform_a7a.c ****     RME_A7A_LOW_LEVEL_INIT();
 504              		.loc 1 318 5 view .LVU81
 505              		.loc 1 318 5 view .LVU82
 506              		.loc 1 318 5 view .LVU83
 319:../../Source/Platform/A7A/rme_platform_a7a.c **** 
 320:../../Source/Platform/A7A/rme_platform_a7a.c ****     /* Initialize our own CPU-local data structure */
 321:../../Source/Platform/A7A/rme_platform_a7a.c ****     _RME_CPU_Local_Init(&RME_A7A_Local,0);
 507              		.loc 1 321 5 view .LVU84
 316:../../Source/Platform/A7A/rme_platform_a7a.c ****     /* Initialize hardware */
 508              		.loc 1 316 1 is_stmt 0 view .LVU85
 509 0000 70402DE9 		push	{r4, r5, r6, lr}
 510              		.cfi_def_cfa_offset 16
 511              		.cfi_offset 4, -16
 512              		.cfi_offset 5, -12
 513              		.cfi_offset 6, -8
 514              		.cfi_offset 14, -4
ARM GAS  C:\Users\even\AppData\Local\Temp\cckwnfBT.s 			page 17


 515              	.LBB92:
 516              	.LBB93:
 119:../../Source/Platform/A7A/rme_platform_a7a.c ****     RME_DBG_S("\r\nA7A-GIC: ProductID: ");
 517              		.loc 1 119 9 view .LVU86
 518 0004 014AA0E3 		mov	r4, #4096
 519 0008 F0484FE3 		movt	r4, 63728
 520              	.LBE93:
 521              	.LBE92:
 522              		.loc 1 321 5 view .LVU87
 523 000c 000000E3 		movw	r0, #:lower16:.LANCHOR0
 524 0010 000040E3 		movt	r0, #:upper16:.LANCHOR0
 525 0014 0010A0E3 		mov	r1, #0
 526 0018 FEFFFFEB 		bl	_RME_CPU_Local_Init
 527              	.LVL12:
 322:../../Source/Platform/A7A/rme_platform_a7a.c **** 
 323:../../Source/Platform/A7A/rme_platform_a7a.c ****     /* Initialize the interrupt controller */
 324:../../Source/Platform/A7A/rme_platform_a7a.c ****     __RME_A7A_Int_Init();
 528              		.loc 1 324 5 is_stmt 1 view .LVU88
 529              	.LBB97:
 530              	.LBI92:
 113:../../Source/Platform/A7A/rme_platform_a7a.c **** {
 531              		.loc 1 113 6 view .LVU89
 532              	.LBB94:
 115:../../Source/Platform/A7A/rme_platform_a7a.c ****     rme_ptr_t Lines;
 533              		.loc 1 115 5 view .LVU90
 116:../../Source/Platform/A7A/rme_platform_a7a.c **** 
 534              		.loc 1 116 5 view .LVU91
 119:../../Source/Platform/A7A/rme_platform_a7a.c ****     RME_DBG_S("\r\nA7A-GIC: ProductID: ");
 535              		.loc 1 119 5 view .LVU92
 119:../../Source/Platform/A7A/rme_platform_a7a.c ****     RME_DBG_S("\r\nA7A-GIC: ProductID: ");
 536              		.loc 1 119 9 is_stmt 0 view .LVU93
 537 001c 085094E5 		ldr	r5, [r4, #8]
 538              	.LVL13:
 120:../../Source/Platform/A7A/rme_platform_a7a.c ****     RME_DBG_I(Temp>>24);
 539              		.loc 1 120 5 is_stmt 1 view .LVU94
 540 0020 000000E3 		movw	r0, #:lower16:.LC1
 541 0024 000040E3 		movt	r0, #:upper16:.LC1
 542 0028 FEFFFFEB 		bl	RME_Str_Print
 543              	.LVL14:
 121:../../Source/Platform/A7A/rme_platform_a7a.c ****     RME_DBG_S("\r\nA7A-GIC: Variant: ");
 544              		.loc 1 121 5 view .LVU95
 545 002c 250CA0E1 		lsr	r0, r5, #24
 546 0030 FEFFFFEB 		bl	RME_Int_Print
 547              	.LVL15:
 122:../../Source/Platform/A7A/rme_platform_a7a.c ****     RME_DBG_I((Temp>>20)&0xF);
 548              		.loc 1 122 5 view .LVU96
 549 0034 000000E3 		movw	r0, #:lower16:.LC2
 550 0038 000040E3 		movt	r0, #:upper16:.LC2
 551 003c FEFFFFEB 		bl	RME_Str_Print
 552              	.LVL16:
 123:../../Source/Platform/A7A/rme_platform_a7a.c ****     RME_DBG_S("\r\nA7A-GIC: Revision: ");
 553              		.loc 1 123 5 view .LVU97
 554 0040 550AE3E7 		ubfx	r0, r5, #20, #4
 555 0044 FEFFFFEB 		bl	RME_Int_Print
 556              	.LVL17:
 124:../../Source/Platform/A7A/rme_platform_a7a.c ****     RME_DBG_I((Temp>>12)&0xF);
 557              		.loc 1 124 5 view .LVU98
ARM GAS  C:\Users\even\AppData\Local\Temp\cckwnfBT.s 			page 18


 558 0048 000000E3 		movw	r0, #:lower16:.LC3
 559 004c 000040E3 		movt	r0, #:upper16:.LC3
 560 0050 FEFFFFEB 		bl	RME_Str_Print
 561              	.LVL18:
 125:../../Source/Platform/A7A/rme_platform_a7a.c ****     RME_DBG_S("\r\nA7A-GIC: Implementer: 0x");
 562              		.loc 1 125 5 view .LVU99
 563 0054 5506E3E7 		ubfx	r0, r5, #12, #4
 564 0058 FEFFFFEB 		bl	RME_Int_Print
 565              	.LVL19:
 126:../../Source/Platform/A7A/rme_platform_a7a.c ****     //RME_DBG_U(Temp&0xFFF);
 566              		.loc 1 126 5 view .LVU100
 567 005c 000000E3 		movw	r0, #:lower16:.LC4
 568 0060 000040E3 		movt	r0, #:upper16:.LC4
 569 0064 FEFFFFEB 		bl	RME_Str_Print
 570              	.LVL20:
 131:../../Source/Platform/A7A/rme_platform_a7a.c ****     RME_DBG_S("\r\nA7A-GIC: SPI number: ");
 571              		.loc 1 131 5 view .LVU101
 131:../../Source/Platform/A7A/rme_platform_a7a.c ****     RME_DBG_S("\r\nA7A-GIC: SPI number: ");
 572              		.loc 1 131 9 is_stmt 0 view .LVU102
 573 0068 044094E5 		ldr	r4, [r4, #4]
 574              	.LVL21:
 132:../../Source/Platform/A7A/rme_platform_a7a.c ****     RME_DBG_I(Temp>>16);
 575              		.loc 1 132 5 is_stmt 1 view .LVU103
 576 006c 000000E3 		movw	r0, #:lower16:.LC5
 577 0070 000040E3 		movt	r0, #:upper16:.LC5
 139:../../Source/Platform/A7A/rme_platform_a7a.c ****     RME_DBG_I(Lines);
 578              		.loc 1 139 17 is_stmt 0 view .LVU104
 579 0074 1F5004E2 		and	r5, r4, #31
 132:../../Source/Platform/A7A/rme_platform_a7a.c ****     RME_DBG_I(Temp>>16);
 580              		.loc 1 132 5 view .LVU105
 581 0078 FEFFFFEB 		bl	RME_Str_Print
 582              	.LVL22:
 133:../../Source/Platform/A7A/rme_platform_a7a.c ****     RME_DBG_S("\r\nA7A-GIC: Security extension: ");
 583              		.loc 1 133 5 is_stmt 1 view .LVU106
 584 007c 2408A0E1 		lsr	r0, r4, #16
 585 0080 FEFFFFEB 		bl	RME_Int_Print
 586              	.LVL23:
 134:../../Source/Platform/A7A/rme_platform_a7a.c ****     RME_DBG_I((Temp>>10)&0x1);
 587              		.loc 1 134 5 view .LVU107
 588 0084 000000E3 		movw	r0, #:lower16:.LC6
 589 0088 000040E3 		movt	r0, #:upper16:.LC6
 590 008c FEFFFFEB 		bl	RME_Str_Print
 591              	.LVL24:
 135:../../Source/Platform/A7A/rme_platform_a7a.c ****     RME_DBG_S("\r\nA7A-GIC: CPU number: ");
 592              		.loc 1 135 5 view .LVU108
 593 0090 5405E0E7 		ubfx	r0, r4, #10, #1
 594 0094 FEFFFFEB 		bl	RME_Int_Print
 595              	.LVL25:
 136:../../Source/Platform/A7A/rme_platform_a7a.c ****     RME_DBG_I(((Temp>>5)&0x7)+1);
 596              		.loc 1 136 5 view .LVU109
 597 0098 000000E3 		movw	r0, #:lower16:.LC7
 598 009c 000040E3 		movt	r0, #:upper16:.LC7
 599 00a0 FEFFFFEB 		bl	RME_Str_Print
 600              	.LVL26:
 137:../../Source/Platform/A7A/rme_platform_a7a.c ****     RME_DBG_S("\r\nA7A-GIC: Interrupt line number: ");
 601              		.loc 1 137 5 view .LVU110
 602 00a4 D402E2E7 		ubfx	r0, r4, #5, #3
ARM GAS  C:\Users\even\AppData\Local\Temp\cckwnfBT.s 			page 19


 139:../../Source/Platform/A7A/rme_platform_a7a.c ****     RME_DBG_I(Lines);
 603              		.loc 1 139 23 is_stmt 0 view .LVU111
 604 00a8 014085E2 		add	r4, r5, #1
 605              	.LVL27:
 137:../../Source/Platform/A7A/rme_platform_a7a.c ****     RME_DBG_S("\r\nA7A-GIC: Interrupt line number: ");
 606              		.loc 1 137 5 view .LVU112
 607 00ac 010080E2 		add	r0, r0, #1
 139:../../Source/Platform/A7A/rme_platform_a7a.c ****     RME_DBG_I(Lines);
 608              		.loc 1 139 10 view .LVU113
 609 00b0 8442A0E1 		lsl	r4, r4, #5
 137:../../Source/Platform/A7A/rme_platform_a7a.c ****     RME_DBG_S("\r\nA7A-GIC: Interrupt line number: ");
 610              		.loc 1 137 5 view .LVU114
 611 00b4 FEFFFFEB 		bl	RME_Int_Print
 612              	.LVL28:
 138:../../Source/Platform/A7A/rme_platform_a7a.c ****     Lines=((Temp&0x1F)+1)*32;
 613              		.loc 1 138 5 is_stmt 1 view .LVU115
 614 00b8 000000E3 		movw	r0, #:lower16:.LC8
 615 00bc 000040E3 		movt	r0, #:upper16:.LC8
 616 00c0 FEFFFFEB 		bl	RME_Str_Print
 617              	.LVL29:
 139:../../Source/Platform/A7A/rme_platform_a7a.c ****     RME_DBG_I(Lines);
 618              		.loc 1 139 5 view .LVU116
 140:../../Source/Platform/A7A/rme_platform_a7a.c **** 
 619              		.loc 1 140 5 view .LVU117
 620 00c4 0400A0E1 		mov	r0, r4
 621 00c8 FEFFFFEB 		bl	RME_Int_Print
 622              	.LVL30:
 144:../../Source/Platform/A7A/rme_platform_a7a.c **** 	{
 623              		.loc 1 144 2 view .LVU118
 144:../../Source/Platform/A7A/rme_platform_a7a.c **** 	{
 624              		.loc 1 144 13 view .LVU119
 625 00cc A11400E3 		movw	r1, #1185
 140:../../Source/Platform/A7A/rme_platform_a7a.c **** 
 626              		.loc 1 140 5 is_stmt 0 view .LVU120
 627 00d0 4A3DA0E3 		mov	r3, #4736
 628 00d4 3C1E43E3 		movt	r1, 15932
 146:../../Source/Platform/A7A/rme_platform_a7a.c **** 		RME_A7A_GICD_IGROUPR(Temp)=0x00000000U;
 629              		.loc 1 146 29 view .LVU121
 630 00d8 0020E0E3 		mvn	r2, #0
 631 00dc 011085E0 		add	r1, r5, r1
 147:../../Source/Platform/A7A/rme_platform_a7a.c **** 		RME_A7A_GICD_ICENABLER(Temp)=0xFFFFFFFFU;
 632              		.loc 1 147 29 view .LVU122
 633 00e0 0000A0E3 		mov	r0, #0
 140:../../Source/Platform/A7A/rme_platform_a7a.c **** 
 634              		.loc 1 140 5 view .LVU123
 635 00e4 F0384FE3 		movt	r3, 63728
 636 00e8 0111A0E1 		lsl	r1, r1, #2
 637              	.LVL31:
 638              	.L36:
 146:../../Source/Platform/A7A/rme_platform_a7a.c **** 		RME_A7A_GICD_IGROUPR(Temp)=0x00000000U;
 639              		.loc 1 146 3 is_stmt 1 view .LVU124
 146:../../Source/Platform/A7A/rme_platform_a7a.c **** 		RME_A7A_GICD_IGROUPR(Temp)=0x00000000U;
 640              		.loc 1 146 29 is_stmt 0 view .LVU125
 641 00ec 002083E5 		str	r2, [r3]
 147:../../Source/Platform/A7A/rme_platform_a7a.c **** 		RME_A7A_GICD_ICENABLER(Temp)=0xFFFFFFFFU;
 642              		.loc 1 147 3 is_stmt 1 view .LVU126
 144:../../Source/Platform/A7A/rme_platform_a7a.c **** 	{
ARM GAS  C:\Users\even\AppData\Local\Temp\cckwnfBT.s 			page 20


 643              		.loc 1 144 2 is_stmt 0 view .LVU127
 644 00f0 043083E2 		add	r3, r3, #4
 147:../../Source/Platform/A7A/rme_platform_a7a.c **** 		RME_A7A_GICD_ICENABLER(Temp)=0xFFFFFFFFU;
 645              		.loc 1 147 29 view .LVU128
 646 00f4 040203E5 		str	r0, [r3, #-516]
 148:../../Source/Platform/A7A/rme_platform_a7a.c **** 	}
 647              		.loc 1 148 3 is_stmt 1 view .LVU129
 148:../../Source/Platform/A7A/rme_platform_a7a.c **** 	}
 648              		.loc 1 148 31 is_stmt 0 view .LVU130
 649 00f8 042103E5 		str	r2, [r3, #-260]
 144:../../Source/Platform/A7A/rme_platform_a7a.c **** 	{
 650              		.loc 1 144 27 is_stmt 1 view .LVU131
 144:../../Source/Platform/A7A/rme_platform_a7a.c **** 	{
 651              		.loc 1 144 13 view .LVU132
 144:../../Source/Platform/A7A/rme_platform_a7a.c **** 	{
 652              		.loc 1 144 2 is_stmt 0 view .LVU133
 653 00fc 030051E1 		cmp	r1, r3
 654 0100 F9FFFF1A 		bne	.L36
 655              	.LVL32:
 152:../../Source/Platform/A7A/rme_platform_a7a.c **** 		RME_A7A_GICD_IPRIORITYR(Temp)=0xA0A0A0A0U;
 656              		.loc 1 152 13 is_stmt 1 view .LVU134
 657 0104 052BA0E3 		mov	r2, #5120
 153:../../Source/Platform/A7A/rme_platform_a7a.c **** 
 658              		.loc 1 153 32 is_stmt 0 view .LVU135
 659 0108 A0100AE3 		movw	r1, #41120
 660 010c A0104AE3 		movt	r1, 41120
 152:../../Source/Platform/A7A/rme_platform_a7a.c **** 		RME_A7A_GICD_IPRIORITYR(Temp)=0xA0A0A0A0U;
 661              		.loc 1 152 23 view .LVU136
 662 0110 0230A0E1 		mov	r3, r2
 663 0114 F0284FE3 		movt	r2, 63728
 664 0118 2401A0E1 		lsr	r0, r4, #2
 665 011c 022084E0 		add	r2, r4, r2
 666 0120 F0384FE3 		movt	r3, 63728
 667              	.LVL33:
 668              	.L37:
 153:../../Source/Platform/A7A/rme_platform_a7a.c **** 
 669              		.loc 1 153 3 is_stmt 1 view .LVU137
 153:../../Source/Platform/A7A/rme_platform_a7a.c **** 
 670              		.loc 1 153 32 is_stmt 0 view .LVU138
 671 0124 041083E4 		str	r1, [r3], #4
 152:../../Source/Platform/A7A/rme_platform_a7a.c **** 		RME_A7A_GICD_IPRIORITYR(Temp)=0xA0A0A0A0U;
 672              		.loc 1 152 26 is_stmt 1 view .LVU139
 152:../../Source/Platform/A7A/rme_platform_a7a.c **** 		RME_A7A_GICD_IPRIORITYR(Temp)=0xA0A0A0A0U;
 673              		.loc 1 152 13 view .LVU140
 152:../../Source/Platform/A7A/rme_platform_a7a.c **** 		RME_A7A_GICD_IPRIORITYR(Temp)=0xA0A0A0A0U;
 674              		.loc 1 152 2 is_stmt 0 view .LVU141
 675 0128 030052E1 		cmp	r2, r3
 676 012c FCFFFF1A 		bne	.L37
 677              	.LVL34:
 156:../../Source/Platform/A7A/rme_platform_a7a.c **** 		RME_A7A_GICD_ITARGETSR(Temp)=0x01010101U;
 678              		.loc 1 156 13 is_stmt 1 view .LVU142
 156:../../Source/Platform/A7A/rme_platform_a7a.c **** 		RME_A7A_GICD_ITARGETSR(Temp)=0x01010101U;
 679              		.loc 1 156 2 is_stmt 0 view .LVU143
 680 0130 080050E3 		cmp	r0, #8
 681 0134 0700000A 		beq	.L38
 682 0138 203801E3 		movw	r3, #6176
 157:../../Source/Platform/A7A/rme_platform_a7a.c **** 
ARM GAS  C:\Users\even\AppData\Local\Temp\cckwnfBT.s 			page 21


 683              		.loc 1 157 31 view .LVU144
 684 013c 011100E3 		movw	r1, #257
 156:../../Source/Platform/A7A/rme_platform_a7a.c **** 		RME_A7A_GICD_ITARGETSR(Temp)=0x01010101U;
 685              		.loc 1 156 2 view .LVU145
 686 0140 F0384FE3 		movt	r3, 63728
 687 0144 012B82E2 		add	r2, r2, #1024
 157:../../Source/Platform/A7A/rme_platform_a7a.c **** 
 688              		.loc 1 157 31 view .LVU146
 689 0148 011140E3 		movt	r1, 257
 690              	.LVL35:
 691              	.L39:
 157:../../Source/Platform/A7A/rme_platform_a7a.c **** 
 692              		.loc 1 157 3 is_stmt 1 view .LVU147
 157:../../Source/Platform/A7A/rme_platform_a7a.c **** 
 693              		.loc 1 157 31 is_stmt 0 view .LVU148
 694 014c 041083E4 		str	r1, [r3], #4
 156:../../Source/Platform/A7A/rme_platform_a7a.c **** 		RME_A7A_GICD_ITARGETSR(Temp)=0x01010101U;
 695              		.loc 1 156 26 is_stmt 1 view .LVU149
 156:../../Source/Platform/A7A/rme_platform_a7a.c **** 		RME_A7A_GICD_ITARGETSR(Temp)=0x01010101U;
 696              		.loc 1 156 13 view .LVU150
 156:../../Source/Platform/A7A/rme_platform_a7a.c **** 		RME_A7A_GICD_ITARGETSR(Temp)=0x01010101U;
 697              		.loc 1 156 2 is_stmt 0 view .LVU151
 698 0150 030052E1 		cmp	r2, r3
 699 0154 FCFFFF1A 		bne	.L39
 700              	.L38:
 701              	.LVL36:
 160:../../Source/Platform/A7A/rme_platform_a7a.c **** 		RME_A7A_GICD_ICFGR(Temp)=0x55555555U;
 702              		.loc 1 160 13 is_stmt 1 view .LVU152
 703 0158 072BA0E3 		mov	r2, #7168
 160:../../Source/Platform/A7A/rme_platform_a7a.c **** 		RME_A7A_GICD_ICFGR(Temp)=0x55555555U;
 704              		.loc 1 160 23 is_stmt 0 view .LVU153
 705 015c 073BA0E3 		mov	r3, #7168
 706 0160 2441A0E1 		lsr	r4, r4, #2
 707              	.LVL37:
 161:../../Source/Platform/A7A/rme_platform_a7a.c **** 
 708              		.loc 1 161 27 view .LVU154
 709 0164 551505E3 		movw	r1, #21845
 710 0168 F0284FE3 		movt	r2, 63728
 711 016c 022084E0 		add	r2, r4, r2
 160:../../Source/Platform/A7A/rme_platform_a7a.c **** 		RME_A7A_GICD_ICFGR(Temp)=0x55555555U;
 712              		.loc 1 160 23 view .LVU155
 713 0170 F0384FE3 		movt	r3, 63728
 161:../../Source/Platform/A7A/rme_platform_a7a.c **** 
 714              		.loc 1 161 27 view .LVU156
 715 0174 551545E3 		movt	r1, 21845
 716              	.LVL38:
 717              	.L40:
 161:../../Source/Platform/A7A/rme_platform_a7a.c **** 
 718              		.loc 1 161 3 is_stmt 1 view .LVU157
 161:../../Source/Platform/A7A/rme_platform_a7a.c **** 
 719              		.loc 1 161 27 is_stmt 0 view .LVU158
 720 0178 041083E4 		str	r1, [r3], #4
 160:../../Source/Platform/A7A/rme_platform_a7a.c **** 		RME_A7A_GICD_ICFGR(Temp)=0x55555555U;
 721              		.loc 1 160 27 is_stmt 1 view .LVU159
 160:../../Source/Platform/A7A/rme_platform_a7a.c **** 		RME_A7A_GICD_ICFGR(Temp)=0x55555555U;
 722              		.loc 1 160 13 view .LVU160
 160:../../Source/Platform/A7A/rme_platform_a7a.c **** 		RME_A7A_GICD_ICFGR(Temp)=0x55555555U;
ARM GAS  C:\Users\even\AppData\Local\Temp\cckwnfBT.s 			page 22


 723              		.loc 1 160 2 is_stmt 0 view .LVU161
 724 017c 030052E1 		cmp	r2, r3
 725 0180 FCFFFF1A 		bne	.L40
 164:../../Source/Platform/A7A/rme_platform_a7a.c **** #else
 726              		.loc 1 164 2 is_stmt 1 view .LVU162
 164:../../Source/Platform/A7A/rme_platform_a7a.c **** #else
 727              		.loc 1 164 19 is_stmt 0 view .LVU163
 728 0184 012AA0E3 		mov	r2, #4096
 729              	.LBE94:
 730              	.LBE97:
 731              	.LBB98:
 732              	.LBB99:
 201:../../Source/Platform/A7A/rme_platform_a7a.c **** 
 733              		.loc 1 201 18 view .LVU164
 734 0188 0030A0E3 		mov	r3, #0
 735 018c F0384FE3 		movt	r3, 63728
 736              	.LBE99:
 737              	.LBE98:
 738              	.LBB103:
 739              	.LBB95:
 164:../../Source/Platform/A7A/rme_platform_a7a.c **** #else
 740              		.loc 1 164 19 view .LVU165
 741 0190 0310A0E3 		mov	r1, #3
 742 0194 F0284FE3 		movt	r2, 63728
 743              	.LBE95:
 744              	.LBE103:
 745              	.LBB104:
 746              	.LBB100:
 201:../../Source/Platform/A7A/rme_platform_a7a.c **** 
 747              		.loc 1 201 18 view .LVU166
 748 0198 0000A0E3 		mov	r0, #0
 749              	.LBE100:
 750              	.LBE104:
 751              	.LBB105:
 752              	.LBB96:
 164:../../Source/Platform/A7A/rme_platform_a7a.c **** #else
 753              		.loc 1 164 19 view .LVU167
 754 019c 001082E5 		str	r1, [r2]
 755              	.LVL39:
 164:../../Source/Platform/A7A/rme_platform_a7a.c **** #else
 756              		.loc 1 164 19 view .LVU168
 757              	.LBE96:
 758              	.LBE105:
 325:../../Source/Platform/A7A/rme_platform_a7a.c **** 
 326:../../Source/Platform/A7A/rme_platform_a7a.c ****     /* Initialize CPU-local interrupt resources */
 327:../../Source/Platform/A7A/rme_platform_a7a.c **** 	__RME_A7A_Int_Local_Init();
 759              		.loc 1 327 2 is_stmt 1 view .LVU169
 760              	.LBB106:
 761              	.LBI98:
 198:../../Source/Platform/A7A/rme_platform_a7a.c **** {
 762              		.loc 1 198 6 view .LVU170
 763              	.LBB101:
 201:../../Source/Platform/A7A/rme_platform_a7a.c **** 
 764              		.loc 1 201 2 view .LVU171
 207:../../Source/Platform/A7A/rme_platform_a7a.c **** #else
 765              		.loc 1 207 19 is_stmt 0 view .LVU172
 766 01a0 0110A0E3 		mov	r1, #1
ARM GAS  C:\Users\even\AppData\Local\Temp\cckwnfBT.s 			page 23


 201:../../Source/Platform/A7A/rme_platform_a7a.c **** 
 767              		.loc 1 201 18 view .LVU173
 768 01a4 040183E5 		str	r0, [r3, #260]
 207:../../Source/Platform/A7A/rme_platform_a7a.c **** #else
 769              		.loc 1 207 2 is_stmt 1 view .LVU174
 217:../../Source/Platform/A7A/rme_platform_a7a.c **** }
 770              		.loc 1 217 18 is_stmt 0 view .LVU175
 771 01a8 F020A0E3 		mov	r2, #240
 207:../../Source/Platform/A7A/rme_platform_a7a.c **** #else
 772              		.loc 1 207 19 view .LVU176
 773 01ac 001183E5 		str	r1, [r3, #256]
 217:../../Source/Platform/A7A/rme_platform_a7a.c **** }
 774              		.loc 1 217 2 is_stmt 1 view .LVU177
 775              	.LBE101:
 776              	.LBE106:
 328:../../Source/Platform/A7A/rme_platform_a7a.c **** 
 329:../../Source/Platform/A7A/rme_platform_a7a.c ****     /* Initialize the vector table */
 330:../../Source/Platform/A7A/rme_platform_a7a.c ****     RME_DBG_S("\r\nA7A-Vector: 0x");
 777              		.loc 1 330 5 is_stmt 0 view .LVU178
 778 01b0 000000E3 		movw	r0, #:lower16:.LC9
 779              	.LBB107:
 780              	.LBB102:
 217:../../Source/Platform/A7A/rme_platform_a7a.c **** }
 781              		.loc 1 217 18 view .LVU179
 782 01b4 042183E5 		str	r2, [r3, #260]
 783              	.LBE102:
 784              	.LBE107:
 785              		.loc 1 330 5 is_stmt 1 view .LVU180
 786 01b8 000040E3 		movt	r0, #:upper16:.LC9
 787 01bc FEFFFFEB 		bl	RME_Str_Print
 788              	.LVL40:
 331:../../Source/Platform/A7A/rme_platform_a7a.c ****    // RME_DBG_U((rme_ptr_t)&__RME_A7A_Vector_Table);
 332:../../Source/Platform/A7A/rme_platform_a7a.c ****     __RME_A7A_VBAR_Set((rme_ptr_t)&__RME_A7A_Vector_Table);
 789              		.loc 1 332 5 view .LVU181
 790 01c0 000000E3 		movw	r0, #:lower16:__RME_A7A_Vector_Table
 791 01c4 000040E3 		movt	r0, #:upper16:__RME_A7A_Vector_Table
 792 01c8 FEFFFFEB 		bl	__RME_A7A_VBAR_Set
 793              	.LVL41:
 333:../../Source/Platform/A7A/rme_platform_a7a.c **** 
 334:../../Source/Platform/A7A/rme_platform_a7a.c ****     RME_DBG_S("\r\nA7A-Non-Secure: ");
 794              		.loc 1 334 5 view .LVU182
 795 01cc 000000E3 		movw	r0, #:lower16:.LC10
 335:../../Source/Platform/A7A/rme_platform_a7a.c ****     //RME_DBG_U(__RME_A7A_SCR_Get());
 336:../../Source/Platform/A7A/rme_platform_a7a.c **** }
 796              		.loc 1 336 1 is_stmt 0 view .LVU183
 797 01d0 7040BDE8 		pop	{r4, r5, r6, lr}
 798              		.cfi_restore 14
 799              		.cfi_restore 6
 800              		.cfi_restore 5
 801              		.cfi_restore 4
 802              		.cfi_def_cfa_offset 0
 334:../../Source/Platform/A7A/rme_platform_a7a.c ****     //RME_DBG_U(__RME_A7A_SCR_Get());
 803              		.loc 1 334 5 view .LVU184
 804 01d4 000040E3 		movt	r0, #:upper16:.LC10
 805 01d8 FEFFFFEA 		b	RME_Str_Print
 806              	.LVL42:
 807              		.cfi_endproc
ARM GAS  C:\Users\even\AppData\Local\Temp\cckwnfBT.s 			page 24


 808              	.LFE9:
 810              		.section	.text.__RME_Pgt_Kom_Init,"ax",%progbits
 811              		.align	2
 812              		.global	__RME_Pgt_Kom_Init
 813              		.syntax unified
 814              		.arm
 816              	__RME_Pgt_Kom_Init:
 817              	.LFB10:
 337:../../Source/Platform/A7A/rme_platform_a7a.c **** /* End Function:__RME_Lowlvl_Init *****************************************/
 338:../../Source/Platform/A7A/rme_platform_a7a.c **** 
 339:../../Source/Platform/A7A/rme_platform_a7a.c **** /* Function:__RME_Pgt_Kom_Init *********************************************
 340:../../Source/Platform/A7A/rme_platform_a7a.c **** Description : Initialize the kernel mapping tables, so it can be added to all the
 341:../../Source/Platform/A7A/rme_platform_a7a.c ****               top-level page tables. Currently this have no consideration for >1TB
 342:../../Source/Platform/A7A/rme_platform_a7a.c ****               RAM, and is not NUMA-aware.
 343:../../Source/Platform/A7A/rme_platform_a7a.c **** Input       : None.
 344:../../Source/Platform/A7A/rme_platform_a7a.c **** Output      : None.
 345:../../Source/Platform/A7A/rme_platform_a7a.c **** Return      : rme_ptr_t - If successful, 0; else RME_ERR_HAL_FAIL.
 346:../../Source/Platform/A7A/rme_platform_a7a.c **** ******************************************************************************/
 347:../../Source/Platform/A7A/rme_platform_a7a.c **** rme_ptr_t __RME_Pgt_Kom_Init(void)
 348:../../Source/Platform/A7A/rme_platform_a7a.c **** {
 818              		.loc 1 348 1 is_stmt 1 view -0
 819              		.cfi_startproc
 820              		@ args = 0, pretend = 0, frame = 0
 821              		@ frame_needed = 0, uses_anonymous_args = 0
 822              		@ link register save eliminated.
 349:../../Source/Platform/A7A/rme_platform_a7a.c **** 
 350:../../Source/Platform/A7A/rme_platform_a7a.c ****     return 0;
 823              		.loc 1 350 5 view .LVU186
 351:../../Source/Platform/A7A/rme_platform_a7a.c **** }
 824              		.loc 1 351 1 is_stmt 0 view .LVU187
 825 0000 0000A0E3 		mov	r0, #0
 826 0004 1EFF2FE1 		bx	lr
 827              		.cfi_endproc
 828              	.LFE10:
 830              		.section	.text.__RME_SMP_Low_Level_Init,"ax",%progbits
 831              		.align	2
 832              		.global	__RME_SMP_Low_Level_Init
 833              		.syntax unified
 834              		.arm
 836              	__RME_SMP_Low_Level_Init:
 837              	.LFB59:
 838              		.cfi_startproc
 839              		@ args = 0, pretend = 0, frame = 0
 840              		@ frame_needed = 0, uses_anonymous_args = 0
 841              		@ link register save eliminated.
 842 0000 0000A0E3 		mov	r0, #0
 843 0004 1EFF2FE1 		bx	lr
 844              		.cfi_endproc
 845              	.LFE59:
 847              		.section	.text.__RME_Boot,"ax",%progbits
 848              		.align	2
 849              		.global	__RME_Boot
 850              		.syntax unified
 851              		.arm
 853              	__RME_Boot:
 854              	.LFB12:
 352:../../Source/Platform/A7A/rme_platform_a7a.c **** /* End Function:__RME_Pgt_Kom_Init ****************************************/
ARM GAS  C:\Users\even\AppData\Local\Temp\cckwnfBT.s 			page 25


 353:../../Source/Platform/A7A/rme_platform_a7a.c **** 
 354:../../Source/Platform/A7A/rme_platform_a7a.c **** /* Function:__RME_SMP_Low_Level_Init ******************************************
 355:../../Source/Platform/A7A/rme_platform_a7a.c **** Description : Low-level initialization for all other cores.
 356:../../Source/Platform/A7A/rme_platform_a7a.c **** Input       : None.
 357:../../Source/Platform/A7A/rme_platform_a7a.c **** Output      : None.
 358:../../Source/Platform/A7A/rme_platform_a7a.c **** Return      : None.
 359:../../Source/Platform/A7A/rme_platform_a7a.c **** ******************************************************************************/
 360:../../Source/Platform/A7A/rme_platform_a7a.c **** rme_ptr_t __RME_SMP_Low_Level_Init(void)
 361:../../Source/Platform/A7A/rme_platform_a7a.c **** {
 362:../../Source/Platform/A7A/rme_platform_a7a.c ****     /* Initialize hardware */
 363:../../Source/Platform/A7A/rme_platform_a7a.c ****     RME_A7A_SMP_LOW_LEVEL_INIT();
 364:../../Source/Platform/A7A/rme_platform_a7a.c ****     /* Initialize our own CPU-local variables */
 365:../../Source/Platform/A7A/rme_platform_a7a.c ****    // _RME_CPU_Local_Init(&RME_A7A_Local[RME_A7A_CPU_Cnt],RME_A7A_CPU_Cnt);
 366:../../Source/Platform/A7A/rme_platform_a7a.c ****     return 0;
 367:../../Source/Platform/A7A/rme_platform_a7a.c **** }
 368:../../Source/Platform/A7A/rme_platform_a7a.c **** /* End Function:__RME_SMP_Low_Level_Init *************************************/
 369:../../Source/Platform/A7A/rme_platform_a7a.c **** 
 370:../../Source/Platform/A7A/rme_platform_a7a.c **** /* Function:__RME_Boot ********************************************************
 371:../../Source/Platform/A7A/rme_platform_a7a.c **** Description : Boot the first process in the system.
 372:../../Source/Platform/A7A/rme_platform_a7a.c **** Input       : None.
 373:../../Source/Platform/A7A/rme_platform_a7a.c **** Output      : None.
 374:../../Source/Platform/A7A/rme_platform_a7a.c **** Return      : rme_ptr_t - Always 0.
 375:../../Source/Platform/A7A/rme_platform_a7a.c **** ******************************************************************************/
 376:../../Source/Platform/A7A/rme_platform_a7a.c **** void __RME_Boot(void)
 377:../../Source/Platform/A7A/rme_platform_a7a.c **** {
 855              		.loc 1 377 1 is_stmt 1 view -0
 856              		.cfi_startproc
 857              		@ Volatile: function does not return.
 858              		@ args = 0, pretend = 0, frame = 0
 859              		@ frame_needed = 0, uses_anonymous_args = 0
 378:../../Source/Platform/A7A/rme_platform_a7a.c ****     /* Initialize timer */
 379:../../Source/Platform/A7A/rme_platform_a7a.c **** 	__RME_A7A_Timer_Init();
 860              		.loc 1 379 2 view .LVU189
 861              	.LBB108:
 862              	.LBI108:
 229:../../Source/Platform/A7A/rme_platform_a7a.c **** {
 863              		.loc 1 229 6 view .LVU190
 864              	.LBB109:
 234:../../Source/Platform/A7A/rme_platform_a7a.c ****     /* Clear the interrupt flag */
 865              		.loc 1 234 5 view .LVU191
 234:../../Source/Platform/A7A/rme_platform_a7a.c ****     /* Clear the interrupt flag */
 866              		.loc 1 234 22 is_stmt 0 view .LVU192
 867 0000 0030A0E3 		mov	r3, #0
 244:../../Source/Platform/A7A/rme_platform_a7a.c **** #else
 868              		.loc 1 244 30 view .LVU193
 869 0004 012AA0E3 		mov	r2, #4096
 234:../../Source/Platform/A7A/rme_platform_a7a.c ****     /* Clear the interrupt flag */
 870              		.loc 1 234 22 view .LVU194
 871 0008 F0384FE3 		movt	r3, 63728
 872 000c 781408E3 		movw	r1, #33912
 244:../../Source/Platform/A7A/rme_platform_a7a.c **** #else
 873              		.loc 1 244 30 view .LVU195
 874 0010 F0284FE3 		movt	r2, 63728
 236:../../Source/Platform/A7A/rme_platform_a7a.c ****     /* Start the timer */
 875              		.loc 1 236 23 view .LVU196
 876 0014 00C0A0E3 		mov	ip, #0
 234:../../Source/Platform/A7A/rme_platform_a7a.c ****     /* Clear the interrupt flag */
ARM GAS  C:\Users\even\AppData\Local\Temp\cckwnfBT.s 			page 26


 877              		.loc 1 234 22 view .LVU197
 878 0018 3A1040E3 		movt	r1, 58
 238:../../Source/Platform/A7A/rme_platform_a7a.c ****                          RME_A7A_PTWD_PTCTLR_IRQEN|
 879              		.loc 1 238 24 view .LVU198
 880 001c 0700A0E3 		mov	r0, #7
 881              	.LBE109:
 882              	.LBE108:
 377:../../Source/Platform/A7A/rme_platform_a7a.c ****     /* Initialize timer */
 883              		.loc 1 377 1 view .LVU199
 884 0020 10402DE9 		push	{r4, lr}
 885              		.cfi_def_cfa_offset 8
 886              		.cfi_offset 4, -8
 887              		.cfi_offset 14, -4
 888              	.LBB111:
 889              	.LBB110:
 234:../../Source/Platform/A7A/rme_platform_a7a.c ****     /* Clear the interrupt flag */
 890              		.loc 1 234 22 view .LVU200
 891 0024 001683E5 		str	r1, [r3, #1536]
 236:../../Source/Platform/A7A/rme_platform_a7a.c ****     /* Start the timer */
 892              		.loc 1 236 5 is_stmt 1 view .LVU201
 236:../../Source/Platform/A7A/rme_platform_a7a.c ****     /* Start the timer */
 893              		.loc 1 236 23 is_stmt 0 view .LVU202
 894 0028 0CC683E5 		str	ip, [r3, #1548]
 238:../../Source/Platform/A7A/rme_platform_a7a.c ****                          RME_A7A_PTWD_PTCTLR_IRQEN|
 895              		.loc 1 238 5 is_stmt 1 view .LVU203
 238:../../Source/Platform/A7A/rme_platform_a7a.c ****                          RME_A7A_PTWD_PTCTLR_IRQEN|
 896              		.loc 1 238 24 is_stmt 0 view .LVU204
 897 002c 080683E5 		str	r0, [r3, #1544]
 244:../../Source/Platform/A7A/rme_platform_a7a.c **** #else
 898              		.loc 1 244 5 is_stmt 1 view .LVU205
 244:../../Source/Platform/A7A/rme_platform_a7a.c **** #else
 899              		.loc 1 244 30 is_stmt 0 view .LVU206
 900 0030 003192E5 		ldr	r3, [r2, #256]
 901 0034 023283E3 		orr	r3, r3, #536870912
 902 0038 003182E5 		str	r3, [r2, #256]
 903              	.LBE110:
 904              	.LBE111:
 380:../../Source/Platform/A7A/rme_platform_a7a.c ****     __RME_Int_Enable();
 905              		.loc 1 380 5 is_stmt 1 view .LVU207
 906 003c FEFFFFEB 		bl	__RME_Int_Enable
 907              	.LVL43:
 908              	.L52:
 381:../../Source/Platform/A7A/rme_platform_a7a.c **** 	while(1);
 909              		.loc 1 381 2 discriminator 1 view .LVU208
 910              		.loc 1 381 10 discriminator 1 view .LVU209
 911              		.loc 1 381 7 discriminator 1 view .LVU210
 912              		.loc 1 381 2 discriminator 1 view .LVU211
 913              		.loc 1 381 10 discriminator 1 view .LVU212
 914              		.loc 1 381 7 discriminator 1 view .LVU213
 915 0040 FEFFFFEA 		b	.L52
 916              		.cfi_endproc
 917              	.LFE12:
 919              		.section	.text.__RME_Reboot,"ax",%progbits
 920              		.align	2
 921              		.global	__RME_Reboot
 922              		.syntax unified
 923              		.arm
ARM GAS  C:\Users\even\AppData\Local\Temp\cckwnfBT.s 			page 27


 925              	__RME_Reboot:
 926              	.LFB13:
 382:../../Source/Platform/A7A/rme_platform_a7a.c **** }
 383:../../Source/Platform/A7A/rme_platform_a7a.c **** /* End Function:__RME_Boot ***************************************************/
 384:../../Source/Platform/A7A/rme_platform_a7a.c **** 
 385:../../Source/Platform/A7A/rme_platform_a7a.c **** /* Function:__RME_Reboot ******************************************************
 386:../../Source/Platform/A7A/rme_platform_a7a.c **** Description : Reboot the machine, abandon all operating system states.
 387:../../Source/Platform/A7A/rme_platform_a7a.c **** Input       : None.
 388:../../Source/Platform/A7A/rme_platform_a7a.c **** Output      : None.
 389:../../Source/Platform/A7A/rme_platform_a7a.c **** Return      : None.
 390:../../Source/Platform/A7A/rme_platform_a7a.c **** ******************************************************************************/
 391:../../Source/Platform/A7A/rme_platform_a7a.c **** void __RME_Reboot(void)
 392:../../Source/Platform/A7A/rme_platform_a7a.c **** {
 927              		.loc 1 392 1 view -0
 928              		.cfi_startproc
 929              		@ args = 0, pretend = 0, frame = 0
 930              		@ frame_needed = 0, uses_anonymous_args = 0
 931              		@ link register save eliminated.
 393:../../Source/Platform/A7A/rme_platform_a7a.c ****     //RME_ASSERT(RME_WORD_BITS!=RME_POW2(RME_WORD_ORDER));
 394:../../Source/Platform/A7A/rme_platform_a7a.c **** }
 932              		.loc 1 394 1 view .LVU215
 933 0000 1EFF2FE1 		bx	lr
 934              		.cfi_endproc
 935              	.LFE13:
 937              		.section	.text.__RME_Shutdown,"ax",%progbits
 938              		.align	2
 939              		.global	__RME_Shutdown
 940              		.syntax unified
 941              		.arm
 943              	__RME_Shutdown:
 944              	.LFB45:
 945              		.cfi_startproc
 946              		@ args = 0, pretend = 0, frame = 0
 947              		@ frame_needed = 0, uses_anonymous_args = 0
 948              		@ link register save eliminated.
 949 0000 1EFF2FE1 		bx	lr
 950              		.cfi_endproc
 951              	.LFE45:
 953              		.section	.text.__RME_Svc_Param_Get,"ax",%progbits
 954              		.align	2
 955              		.global	__RME_Svc_Param_Get
 956              		.syntax unified
 957              		.arm
 959              	__RME_Svc_Param_Get:
 960              	.LVL44:
 961              	.LFB15:
 395:../../Source/Platform/A7A/rme_platform_a7a.c **** /* End Function:__RME_Reboot *************************************************/
 396:../../Source/Platform/A7A/rme_platform_a7a.c **** 
 397:../../Source/Platform/A7A/rme_platform_a7a.c **** /* Function:__RME_Shutdown ****************************************************
 398:../../Source/Platform/A7A/rme_platform_a7a.c **** Description : Shutdown the machine, abandon all operating system states.
 399:../../Source/Platform/A7A/rme_platform_a7a.c **** Input       : None.
 400:../../Source/Platform/A7A/rme_platform_a7a.c **** Output      : None.
 401:../../Source/Platform/A7A/rme_platform_a7a.c **** Return      : None.
 402:../../Source/Platform/A7A/rme_platform_a7a.c **** ******************************************************************************/
 403:../../Source/Platform/A7A/rme_platform_a7a.c **** void __RME_Shutdown(void)
 404:../../Source/Platform/A7A/rme_platform_a7a.c **** {
 405:../../Source/Platform/A7A/rme_platform_a7a.c ****    // RME_ASSERT(RME_WORD_BITS!=RME_POW2(RME_WORD_ORDER));
ARM GAS  C:\Users\even\AppData\Local\Temp\cckwnfBT.s 			page 28


 406:../../Source/Platform/A7A/rme_platform_a7a.c **** }
 407:../../Source/Platform/A7A/rme_platform_a7a.c **** /* End Function:__RME_Shutdown ***********************************************/
 408:../../Source/Platform/A7A/rme_platform_a7a.c **** 
 409:../../Source/Platform/A7A/rme_platform_a7a.c **** /* Function:__RME_Get_Syscall_Param *******************************************
 410:../../Source/Platform/A7A/rme_platform_a7a.c **** Description : Get the system call parameters from the stack frame.
 411:../../Source/Platform/A7A/rme_platform_a7a.c **** Input       : struct RME_Reg_Struct* Reg - The register set.
 412:../../Source/Platform/A7A/rme_platform_a7a.c **** Output      : rme_ptr_t* Svc - The system service number.
 413:../../Source/Platform/A7A/rme_platform_a7a.c ****               rme_ptr_t* Capid - The capability ID number.
 414:../../Source/Platform/A7A/rme_platform_a7a.c ****               rme_ptr_t* Param - The parameters.
 415:../../Source/Platform/A7A/rme_platform_a7a.c **** Return      : None.
 416:../../Source/Platform/A7A/rme_platform_a7a.c **** ******************************************************************************/
 417:../../Source/Platform/A7A/rme_platform_a7a.c **** void __RME_Svc_Param_Get(struct RME_Reg_Struct* Reg,rme_ptr_t* Svc,rme_ptr_t* Capid,rme_ptr_t* Para
 418:../../Source/Platform/A7A/rme_platform_a7a.c **** {
 962              		.loc 1 418 1 view -0
 963              		.cfi_startproc
 964              		@ args = 0, pretend = 0, frame = 0
 965              		@ frame_needed = 0, uses_anonymous_args = 0
 966              		@ link register save eliminated.
 419:../../Source/Platform/A7A/rme_platform_a7a.c ****     *Svc=(Reg->R0)>>16;
 967              		.loc 1 419 5 view .LVU217
 968              		.loc 1 419 19 is_stmt 0 view .LVU218
 969 0000 B6C0D0E1 		ldrh	ip, [r0, #6]
 970              		.loc 1 419 9 view .LVU219
 971 0004 00C081E5 		str	ip, [r1]
 420:../../Source/Platform/A7A/rme_platform_a7a.c ****     *Capid=(Reg->R0)&0xFFFF;
 972              		.loc 1 420 5 is_stmt 1 view .LVU220
 973              		.loc 1 420 21 is_stmt 0 view .LVU221
 974 0008 B410D0E1 		ldrh	r1, [r0, #4]
 975              	.LVL45:
 976              		.loc 1 420 11 view .LVU222
 977 000c 001082E5 		str	r1, [r2]
 421:../../Source/Platform/A7A/rme_platform_a7a.c ****     Param[0]=Reg->R1;
 978              		.loc 1 421 5 is_stmt 1 view .LVU223
 979              		.loc 1 421 17 is_stmt 0 view .LVU224
 980 0010 082090E5 		ldr	r2, [r0, #8]
 981              	.LVL46:
 982              		.loc 1 421 13 view .LVU225
 983 0014 002083E5 		str	r2, [r3]
 422:../../Source/Platform/A7A/rme_platform_a7a.c ****     Param[1]=Reg->R2;
 984              		.loc 1 422 5 is_stmt 1 view .LVU226
 985              		.loc 1 422 17 is_stmt 0 view .LVU227
 986 0018 0C2090E5 		ldr	r2, [r0, #12]
 987              		.loc 1 422 13 view .LVU228
 988 001c 042083E5 		str	r2, [r3, #4]
 423:../../Source/Platform/A7A/rme_platform_a7a.c ****     Param[2]=Reg->R3;
 989              		.loc 1 423 5 is_stmt 1 view .LVU229
 990              		.loc 1 423 17 is_stmt 0 view .LVU230
 991 0020 102090E5 		ldr	r2, [r0, #16]
 992              		.loc 1 423 13 view .LVU231
 993 0024 082083E5 		str	r2, [r3, #8]
 424:../../Source/Platform/A7A/rme_platform_a7a.c **** }
 994              		.loc 1 424 1 view .LVU232
 995 0028 1EFF2FE1 		bx	lr
 996              		.cfi_endproc
 997              	.LFE15:
 999              		.section	.text.__RME_Svc_Retval_Set,"ax",%progbits
 1000              		.align	2
ARM GAS  C:\Users\even\AppData\Local\Temp\cckwnfBT.s 			page 29


 1001              		.global	__RME_Svc_Retval_Set
 1002              		.syntax unified
 1003              		.arm
 1005              	__RME_Svc_Retval_Set:
 1006              	.LVL47:
 1007              	.LFB16:
 425:../../Source/Platform/A7A/rme_platform_a7a.c **** /* End Function:__RME_Get_Syscall_Param **************************************/
 426:../../Source/Platform/A7A/rme_platform_a7a.c **** 
 427:../../Source/Platform/A7A/rme_platform_a7a.c **** /* Function:__RME_Set_Syscall_Retval ******************************************
 428:../../Source/Platform/A7A/rme_platform_a7a.c **** Description : Set the system call return value to the stack frame. This function 
 429:../../Source/Platform/A7A/rme_platform_a7a.c ****               may carry up to 4 return values. If the last 3 is not needed, just set
 430:../../Source/Platform/A7A/rme_platform_a7a.c ****               them to zero.
 431:../../Source/Platform/A7A/rme_platform_a7a.c **** Input       : rme_ret_t Retval - The return value.
 432:../../Source/Platform/A7A/rme_platform_a7a.c **** Output      : struct RME_Reg_Struct* Reg - The register set.
 433:../../Source/Platform/A7A/rme_platform_a7a.c **** Return      : None.
 434:../../Source/Platform/A7A/rme_platform_a7a.c **** ******************************************************************************/
 435:../../Source/Platform/A7A/rme_platform_a7a.c **** void __RME_Svc_Retval_Set(struct RME_Reg_Struct* Reg,rme_ret_t Retval)
 436:../../Source/Platform/A7A/rme_platform_a7a.c **** {
 1008              		.loc 1 436 1 is_stmt 1 view -0
 1009              		.cfi_startproc
 1010              		@ args = 0, pretend = 0, frame = 0
 1011              		@ frame_needed = 0, uses_anonymous_args = 0
 1012              		@ link register save eliminated.
 437:../../Source/Platform/A7A/rme_platform_a7a.c ****     Reg->R0=(rme_ptr_t)Retval;
 1013              		.loc 1 437 5 view .LVU234
 1014              		.loc 1 437 12 is_stmt 0 view .LVU235
 1015 0000 041080E5 		str	r1, [r0, #4]
 438:../../Source/Platform/A7A/rme_platform_a7a.c **** }
 1016              		.loc 1 438 1 view .LVU236
 1017 0004 1EFF2FE1 		bx	lr
 1018              		.cfi_endproc
 1019              	.LFE16:
 1021              		.section	.text.__RME_Thd_Reg_Init,"ax",%progbits
 1022              		.align	2
 1023              		.global	__RME_Thd_Reg_Init
 1024              		.syntax unified
 1025              		.arm
 1027              	__RME_Thd_Reg_Init:
 1028              	.LVL48:
 1029              	.LFB17:
 439:../../Source/Platform/A7A/rme_platform_a7a.c **** /* End Function:__RME_Set_Syscall_Retval *************************************/
 440:../../Source/Platform/A7A/rme_platform_a7a.c **** 
 441:../../Source/Platform/A7A/rme_platform_a7a.c **** /* Function:__RME_Thd_Reg_Init ************************************************
 442:../../Source/Platform/A7A/rme_platform_a7a.c **** Description : Initialize the register set for the thread.
 443:../../Source/Platform/A7A/rme_platform_a7a.c **** Input       : rme_ptr_t Entry - The thread entry address.
 444:../../Source/Platform/A7A/rme_platform_a7a.c ****               rme_ptr_t Stack - The thread stack address.
 445:../../Source/Platform/A7A/rme_platform_a7a.c ****               rme_ptr_t Param - The parameter to pass to it.
 446:../../Source/Platform/A7A/rme_platform_a7a.c **** Output      : struct RME_Reg_Struct* Reg - The register set content generated.
 447:../../Source/Platform/A7A/rme_platform_a7a.c **** Return      : None.
 448:../../Source/Platform/A7A/rme_platform_a7a.c **** ******************************************************************************/
 449:../../Source/Platform/A7A/rme_platform_a7a.c **** void __RME_Thd_Reg_Init(rme_ptr_t Attr,rme_ptr_t Entry,rme_ptr_t Stack,rme_ptr_t Param,
 450:../../Source/Platform/A7A/rme_platform_a7a.c ****                                        struct RME_Reg_Struct* Reg)
 451:../../Source/Platform/A7A/rme_platform_a7a.c **** {
 1030              		.loc 1 451 1 is_stmt 1 view -0
 1031              		.cfi_startproc
 1032              		@ args = 4, pretend = 0, frame = 0
 1033              		@ frame_needed = 0, uses_anonymous_args = 0
ARM GAS  C:\Users\even\AppData\Local\Temp\cckwnfBT.s 			page 30


 1034              		@ link register save eliminated.
 452:../../Source/Platform/A7A/rme_platform_a7a.c ****     /* Set the entry and stack */
 453:../../Source/Platform/A7A/rme_platform_a7a.c ****     Reg->PC=Entry;
 1035              		.loc 1 453 5 view .LVU238
 451:../../Source/Platform/A7A/rme_platform_a7a.c ****     /* Set the entry and stack */
 1036              		.loc 1 451 1 is_stmt 0 view .LVU239
 1037 0000 00009DE5 		ldr	r0, [sp]
 1038              	.LVL49:
 1039              		.loc 1 453 12 view .LVU240
 1040 0004 3C1080E5 		str	r1, [r0, #60]
 454:../../Source/Platform/A7A/rme_platform_a7a.c ****     Reg->SP=Stack;
 1041              		.loc 1 454 5 is_stmt 1 view .LVU241
 1042              		.loc 1 454 12 is_stmt 0 view .LVU242
 1043 0008 342080E5 		str	r2, [r0, #52]
 455:../../Source/Platform/A7A/rme_platform_a7a.c ****     /* Set the parameter */
 456:../../Source/Platform/A7A/rme_platform_a7a.c ****     Reg->R0=Param;
 1044              		.loc 1 456 5 is_stmt 1 view .LVU243
 1045              		.loc 1 456 12 is_stmt 0 view .LVU244
 1046 000c 043080E5 		str	r3, [r0, #4]
 457:../../Source/Platform/A7A/rme_platform_a7a.c **** }
 1047              		.loc 1 457 1 view .LVU245
 1048 0010 1EFF2FE1 		bx	lr
 1049              		.cfi_endproc
 1050              	.LFE17:
 1052              		.section	.text.__RME_Thd_Reg_Copy,"ax",%progbits
 1053              		.align	2
 1054              		.global	__RME_Thd_Reg_Copy
 1055              		.syntax unified
 1056              		.arm
 1058              	__RME_Thd_Reg_Copy:
 1059              	.LVL50:
 1060              	.LFB18:
 458:../../Source/Platform/A7A/rme_platform_a7a.c **** /* End Function:__RME_Thd_Reg_Init *******************************************/
 459:../../Source/Platform/A7A/rme_platform_a7a.c **** 
 460:../../Source/Platform/A7A/rme_platform_a7a.c **** /* Function:__RME_Thd_Reg_Copy ************************************************
 461:../../Source/Platform/A7A/rme_platform_a7a.c **** Description : Copy one set of registers into another.
 462:../../Source/Platform/A7A/rme_platform_a7a.c **** Input       : struct RME_Reg_Struct* Src - The source register set.
 463:../../Source/Platform/A7A/rme_platform_a7a.c **** Output      : struct RME_Reg_Struct* Dst - The destination register set.
 464:../../Source/Platform/A7A/rme_platform_a7a.c **** Return      : None.
 465:../../Source/Platform/A7A/rme_platform_a7a.c **** ******************************************************************************/
 466:../../Source/Platform/A7A/rme_platform_a7a.c **** void __RME_Thd_Reg_Copy(struct RME_Reg_Struct* Dst, struct RME_Reg_Struct* Src)
 467:../../Source/Platform/A7A/rme_platform_a7a.c **** {
 1061              		.loc 1 467 1 is_stmt 1 view -0
 1062              		.cfi_startproc
 1063              		@ args = 0, pretend = 0, frame = 0
 1064              		@ frame_needed = 0, uses_anonymous_args = 0
 1065              		@ link register save eliminated.
 468:../../Source/Platform/A7A/rme_platform_a7a.c ****     /* Make sure that the ordering is the same so the compiler can optimize */
 469:../../Source/Platform/A7A/rme_platform_a7a.c ****     Dst->CPSR=Src->CPSR;
 1066              		.loc 1 469 5 view .LVU247
 1067              		.loc 1 469 18 is_stmt 0 view .LVU248
 1068 0000 003091E5 		ldr	r3, [r1]
 1069              		.loc 1 469 14 view .LVU249
 1070 0004 003080E5 		str	r3, [r0]
 470:../../Source/Platform/A7A/rme_platform_a7a.c ****     Dst->R0=Src->R0;
 1071              		.loc 1 470 5 is_stmt 1 view .LVU250
 1072              		.loc 1 470 16 is_stmt 0 view .LVU251
ARM GAS  C:\Users\even\AppData\Local\Temp\cckwnfBT.s 			page 31


 1073 0008 043091E5 		ldr	r3, [r1, #4]
 1074              		.loc 1 470 12 view .LVU252
 1075 000c 043080E5 		str	r3, [r0, #4]
 471:../../Source/Platform/A7A/rme_platform_a7a.c ****     Dst->R1=Src->R1;
 1076              		.loc 1 471 5 is_stmt 1 view .LVU253
 1077              		.loc 1 471 16 is_stmt 0 view .LVU254
 1078 0010 083091E5 		ldr	r3, [r1, #8]
 1079              		.loc 1 471 12 view .LVU255
 1080 0014 083080E5 		str	r3, [r0, #8]
 472:../../Source/Platform/A7A/rme_platform_a7a.c ****     Dst->R2=Src->R2;
 1081              		.loc 1 472 5 is_stmt 1 view .LVU256
 1082              		.loc 1 472 16 is_stmt 0 view .LVU257
 1083 0018 0C3091E5 		ldr	r3, [r1, #12]
 1084              		.loc 1 472 12 view .LVU258
 1085 001c 0C3080E5 		str	r3, [r0, #12]
 473:../../Source/Platform/A7A/rme_platform_a7a.c ****     Dst->R3=Src->R3;
 1086              		.loc 1 473 5 is_stmt 1 view .LVU259
 1087              		.loc 1 473 16 is_stmt 0 view .LVU260
 1088 0020 103091E5 		ldr	r3, [r1, #16]
 1089              		.loc 1 473 12 view .LVU261
 1090 0024 103080E5 		str	r3, [r0, #16]
 474:../../Source/Platform/A7A/rme_platform_a7a.c ****     Dst->R4=Src->R4;
 1091              		.loc 1 474 5 is_stmt 1 view .LVU262
 1092              		.loc 1 474 16 is_stmt 0 view .LVU263
 1093 0028 143091E5 		ldr	r3, [r1, #20]
 1094              		.loc 1 474 12 view .LVU264
 1095 002c 143080E5 		str	r3, [r0, #20]
 475:../../Source/Platform/A7A/rme_platform_a7a.c ****     Dst->R5=Src->R5;
 1096              		.loc 1 475 5 is_stmt 1 view .LVU265
 1097              		.loc 1 475 16 is_stmt 0 view .LVU266
 1098 0030 183091E5 		ldr	r3, [r1, #24]
 1099              		.loc 1 475 12 view .LVU267
 1100 0034 183080E5 		str	r3, [r0, #24]
 476:../../Source/Platform/A7A/rme_platform_a7a.c ****     Dst->R6=Src->R6;
 1101              		.loc 1 476 5 is_stmt 1 view .LVU268
 1102              		.loc 1 476 16 is_stmt 0 view .LVU269
 1103 0038 1C3091E5 		ldr	r3, [r1, #28]
 1104              		.loc 1 476 12 view .LVU270
 1105 003c 1C3080E5 		str	r3, [r0, #28]
 477:../../Source/Platform/A7A/rme_platform_a7a.c ****     Dst->R7=Src->R7;
 1106              		.loc 1 477 5 is_stmt 1 view .LVU271
 1107              		.loc 1 477 16 is_stmt 0 view .LVU272
 1108 0040 203091E5 		ldr	r3, [r1, #32]
 1109              		.loc 1 477 12 view .LVU273
 1110 0044 203080E5 		str	r3, [r0, #32]
 478:../../Source/Platform/A7A/rme_platform_a7a.c ****     Dst->R8=Src->R8;
 1111              		.loc 1 478 5 is_stmt 1 view .LVU274
 1112              		.loc 1 478 16 is_stmt 0 view .LVU275
 1113 0048 243091E5 		ldr	r3, [r1, #36]
 1114              		.loc 1 478 12 view .LVU276
 1115 004c 243080E5 		str	r3, [r0, #36]
 479:../../Source/Platform/A7A/rme_platform_a7a.c ****     Dst->R9=Src->R9;
 1116              		.loc 1 479 5 is_stmt 1 view .LVU277
 1117              		.loc 1 479 16 is_stmt 0 view .LVU278
 1118 0050 283091E5 		ldr	r3, [r1, #40]
 1119              		.loc 1 479 12 view .LVU279
 1120 0054 283080E5 		str	r3, [r0, #40]
ARM GAS  C:\Users\even\AppData\Local\Temp\cckwnfBT.s 			page 32


 480:../../Source/Platform/A7A/rme_platform_a7a.c ****     Dst->R10=Src->R10;
 1121              		.loc 1 480 5 is_stmt 1 view .LVU280
 1122              		.loc 1 480 17 is_stmt 0 view .LVU281
 1123 0058 2C3091E5 		ldr	r3, [r1, #44]
 1124              		.loc 1 480 13 view .LVU282
 1125 005c 2C3080E5 		str	r3, [r0, #44]
 481:../../Source/Platform/A7A/rme_platform_a7a.c ****     Dst->R11=Src->R11;
 1126              		.loc 1 481 5 is_stmt 1 view .LVU283
 1127              		.loc 1 481 17 is_stmt 0 view .LVU284
 1128 0060 303091E5 		ldr	r3, [r1, #48]
 1129              		.loc 1 481 13 view .LVU285
 1130 0064 303080E5 		str	r3, [r0, #48]
 482:../../Source/Platform/A7A/rme_platform_a7a.c ****     Dst->SP=Src->SP;
 1131              		.loc 1 482 5 is_stmt 1 view .LVU286
 1132              		.loc 1 482 16 is_stmt 0 view .LVU287
 1133 0068 343091E5 		ldr	r3, [r1, #52]
 1134              		.loc 1 482 12 view .LVU288
 1135 006c 343080E5 		str	r3, [r0, #52]
 483:../../Source/Platform/A7A/rme_platform_a7a.c ****     Dst->LR=Src->LR;
 1136              		.loc 1 483 5 is_stmt 1 view .LVU289
 1137              		.loc 1 483 16 is_stmt 0 view .LVU290
 1138 0070 383091E5 		ldr	r3, [r1, #56]
 1139              		.loc 1 483 12 view .LVU291
 1140 0074 383080E5 		str	r3, [r0, #56]
 484:../../Source/Platform/A7A/rme_platform_a7a.c ****     Dst->PC=Src->PC;
 1141              		.loc 1 484 5 is_stmt 1 view .LVU292
 1142              		.loc 1 484 16 is_stmt 0 view .LVU293
 1143 0078 3C3091E5 		ldr	r3, [r1, #60]
 1144              		.loc 1 484 12 view .LVU294
 1145 007c 3C3080E5 		str	r3, [r0, #60]
 485:../../Source/Platform/A7A/rme_platform_a7a.c **** }
 1146              		.loc 1 485 1 view .LVU295
 1147 0080 1EFF2FE1 		bx	lr
 1148              		.cfi_endproc
 1149              	.LFE18:
 1151              		.section	.text.__RME_Thd_Cop_Init,"ax",%progbits
 1152              		.align	2
 1153              		.global	__RME_Thd_Cop_Init
 1154              		.syntax unified
 1155              		.arm
 1157              	__RME_Thd_Cop_Init:
 1158              	.LVL51:
 1159              	.LFB19:
 486:../../Source/Platform/A7A/rme_platform_a7a.c **** /* End Function:__RME_Thd_Reg_Copy *******************************************/
 487:../../Source/Platform/A7A/rme_platform_a7a.c **** 
 488:../../Source/Platform/A7A/rme_platform_a7a.c **** /* Function:__RME_Thd_Cop_Init ************************************************
 489:../../Source/Platform/A7A/rme_platform_a7a.c **** Description : Initialize the coprocessor register set for the thread.
 490:../../Source/Platform/A7A/rme_platform_a7a.c **** Input       : struct RME_Reg_Struct* Reg - The register struct to help initialize the coprocessor.
 491:../../Source/Platform/A7A/rme_platform_a7a.c **** Output      : struct RME_Reg_Cop_Struct* Cop_Reg - The register set content generated.
 492:../../Source/Platform/A7A/rme_platform_a7a.c **** Return      : None.
 493:../../Source/Platform/A7A/rme_platform_a7a.c **** ******************************************************************************/
 494:../../Source/Platform/A7A/rme_platform_a7a.c **** void __RME_Thd_Cop_Init(struct RME_Reg_Struct* Reg, struct RME_Cop_Struct* Cop_Reg)
 495:../../Source/Platform/A7A/rme_platform_a7a.c **** {
 1160              		.loc 1 495 1 is_stmt 1 view -0
 1161              		.cfi_startproc
 1162              		@ args = 0, pretend = 0, frame = 0
 1163              		@ frame_needed = 0, uses_anonymous_args = 0
ARM GAS  C:\Users\even\AppData\Local\Temp\cckwnfBT.s 			page 33


 1164              		@ link register save eliminated.
 496:../../Source/Platform/A7A/rme_platform_a7a.c ****     /* Empty function, return immediately. The FPU contents is not predictable */
 497:../../Source/Platform/A7A/rme_platform_a7a.c **** }
 1165              		.loc 1 497 1 view .LVU297
 1166 0000 1EFF2FE1 		bx	lr
 1167              		.cfi_endproc
 1168              	.LFE19:
 1170              		.section	.text.__RME_Thd_Cop_Save,"ax",%progbits
 1171              		.align	2
 1172              		.global	__RME_Thd_Cop_Save
 1173              		.syntax unified
 1174              		.arm
 1176              	__RME_Thd_Cop_Save:
 1177              	.LFB53:
 1178              		.cfi_startproc
 1179              		@ args = 0, pretend = 0, frame = 0
 1180              		@ frame_needed = 0, uses_anonymous_args = 0
 1181              		@ link register save eliminated.
 1182 0000 1EFF2FE1 		bx	lr
 1183              		.cfi_endproc
 1184              	.LFE53:
 1186              		.section	.text.__RME_Thd_Cop_Restore,"ax",%progbits
 1187              		.align	2
 1188              		.global	__RME_Thd_Cop_Restore
 1189              		.syntax unified
 1190              		.arm
 1192              	__RME_Thd_Cop_Restore:
 1193              	.LFB55:
 1194              		.cfi_startproc
 1195              		@ args = 0, pretend = 0, frame = 0
 1196              		@ frame_needed = 0, uses_anonymous_args = 0
 1197              		@ link register save eliminated.
 1198 0000 1EFF2FE1 		bx	lr
 1199              		.cfi_endproc
 1200              	.LFE55:
 1202              		.section	.text.__RME_Inv_Reg_Save,"ax",%progbits
 1203              		.align	2
 1204              		.global	__RME_Inv_Reg_Save
 1205              		.syntax unified
 1206              		.arm
 1208              	__RME_Inv_Reg_Save:
 1209              	.LVL52:
 1210              	.LFB22:
 498:../../Source/Platform/A7A/rme_platform_a7a.c **** /* End Function:__RME_Thd_Cop_Reg_Init ***************************************/
 499:../../Source/Platform/A7A/rme_platform_a7a.c **** 
 500:../../Source/Platform/A7A/rme_platform_a7a.c **** /* Function:__RME_Thd_Cop_Save ************************************************
 501:../../Source/Platform/A7A/rme_platform_a7a.c **** Description : Save the co-op register sets. This operation is flexible - If the
 502:../../Source/Platform/A7A/rme_platform_a7a.c ****               program does not use the FPU, we do not save its context.
 503:../../Source/Platform/A7A/rme_platform_a7a.c **** Input       : struct RME_Reg_Struct* Reg - The context, used to decide whether
 504:../../Source/Platform/A7A/rme_platform_a7a.c ****                                            to save the context of the coprocessor.
 505:../../Source/Platform/A7A/rme_platform_a7a.c **** Output      : struct RME_Cop_Struct* Cop_Reg - The pointer to the coprocessor contents.
 506:../../Source/Platform/A7A/rme_platform_a7a.c **** Return      : None.
 507:../../Source/Platform/A7A/rme_platform_a7a.c **** ******************************************************************************/
 508:../../Source/Platform/A7A/rme_platform_a7a.c **** void __RME_Thd_Cop_Save(struct RME_Reg_Struct* Reg, struct RME_Cop_Struct* Cop_Reg)
 509:../../Source/Platform/A7A/rme_platform_a7a.c **** {
 510:../../Source/Platform/A7A/rme_platform_a7a.c ****     /* Not used for now */
 511:../../Source/Platform/A7A/rme_platform_a7a.c **** }
ARM GAS  C:\Users\even\AppData\Local\Temp\cckwnfBT.s 			page 34


 512:../../Source/Platform/A7A/rme_platform_a7a.c **** /* End Function:__RME_Thd_Cop_Save *******************************************/
 513:../../Source/Platform/A7A/rme_platform_a7a.c **** 
 514:../../Source/Platform/A7A/rme_platform_a7a.c **** /* Function:__RME_Thd_Cop_Restore *********************************************
 515:../../Source/Platform/A7A/rme_platform_a7a.c **** Description : Restore the co-op register sets. This operation is flexible - If the
 516:../../Source/Platform/A7A/rme_platform_a7a.c ****               FPU is not used, we do not restore its context.
 517:../../Source/Platform/A7A/rme_platform_a7a.c **** Input       : struct RME_Reg_Struct* Reg - The context, used to decide whether
 518:../../Source/Platform/A7A/rme_platform_a7a.c ****                                            to save the context of the coprocessor.
 519:../../Source/Platform/A7A/rme_platform_a7a.c **** Output      : struct RME_Cop_Struct* Cop_Reg - The pointer to the coprocessor contents.
 520:../../Source/Platform/A7A/rme_platform_a7a.c **** Return      : None.
 521:../../Source/Platform/A7A/rme_platform_a7a.c **** ******************************************************************************/
 522:../../Source/Platform/A7A/rme_platform_a7a.c **** void __RME_Thd_Cop_Restore(struct RME_Reg_Struct* Reg, struct RME_Cop_Struct* Cop_Reg)
 523:../../Source/Platform/A7A/rme_platform_a7a.c **** {
 524:../../Source/Platform/A7A/rme_platform_a7a.c ****     /* Not used for now */
 525:../../Source/Platform/A7A/rme_platform_a7a.c **** }
 526:../../Source/Platform/A7A/rme_platform_a7a.c **** /* End Function:__RME_Thd_Cop_Restore ****************************************/
 527:../../Source/Platform/A7A/rme_platform_a7a.c **** 
 528:../../Source/Platform/A7A/rme_platform_a7a.c **** /* Function:__RME_Inv_Reg_Save ************************************************
 529:../../Source/Platform/A7A/rme_platform_a7a.c **** Description : Save the necessary registers on invocation for returning. Only the
 530:../../Source/Platform/A7A/rme_platform_a7a.c ****               registers that will influence program control flow will be saved.
 531:../../Source/Platform/A7A/rme_platform_a7a.c **** Input       : struct RME_Reg_Struct* Reg - The register set.
 532:../../Source/Platform/A7A/rme_platform_a7a.c **** Output      : struct RME_Iret_Struct* Ret - The invocation return register context.
 533:../../Source/Platform/A7A/rme_platform_a7a.c **** Return      : None.
 534:../../Source/Platform/A7A/rme_platform_a7a.c **** ******************************************************************************/
 535:../../Source/Platform/A7A/rme_platform_a7a.c **** void __RME_Inv_Reg_Save(struct RME_Iret_Struct* Ret, struct RME_Reg_Struct* Reg)
 536:../../Source/Platform/A7A/rme_platform_a7a.c **** {
 1211              		.loc 1 536 1 view -0
 1212              		.cfi_startproc
 1213              		@ args = 0, pretend = 0, frame = 0
 1214              		@ frame_needed = 0, uses_anonymous_args = 0
 1215              		@ link register save eliminated.
 537:../../Source/Platform/A7A/rme_platform_a7a.c ****     Ret->PC=Reg->PC;
 1216              		.loc 1 537 5 view .LVU299
 1217              		.loc 1 537 16 is_stmt 0 view .LVU300
 1218 0000 3C3091E5 		ldr	r3, [r1, #60]
 1219              		.loc 1 537 12 view .LVU301
 1220 0004 003080E5 		str	r3, [r0]
 538:../../Source/Platform/A7A/rme_platform_a7a.c ****     Ret->SP=Reg->SP;
 1221              		.loc 1 538 5 is_stmt 1 view .LVU302
 1222              		.loc 1 538 16 is_stmt 0 view .LVU303
 1223 0008 343091E5 		ldr	r3, [r1, #52]
 1224              		.loc 1 538 12 view .LVU304
 1225 000c 043080E5 		str	r3, [r0, #4]
 539:../../Source/Platform/A7A/rme_platform_a7a.c **** }
 1226              		.loc 1 539 1 view .LVU305
 1227 0010 1EFF2FE1 		bx	lr
 1228              		.cfi_endproc
 1229              	.LFE22:
 1231              		.section	.text.__RME_Inv_Reg_Restore,"ax",%progbits
 1232              		.align	2
 1233              		.global	__RME_Inv_Reg_Restore
 1234              		.syntax unified
 1235              		.arm
 1237              	__RME_Inv_Reg_Restore:
 1238              	.LVL53:
 1239              	.LFB23:
 540:../../Source/Platform/A7A/rme_platform_a7a.c **** /* End Function:__RME_Inv_Reg_Save *******************************************/
 541:../../Source/Platform/A7A/rme_platform_a7a.c **** 
ARM GAS  C:\Users\even\AppData\Local\Temp\cckwnfBT.s 			page 35


 542:../../Source/Platform/A7A/rme_platform_a7a.c **** /* Function:__RME_Inv_Reg_Restore *********************************************
 543:../../Source/Platform/A7A/rme_platform_a7a.c **** Description : Restore the necessary registers for returning from an invocation.
 544:../../Source/Platform/A7A/rme_platform_a7a.c **** Input       : struct RME_Iret_Struct* Ret - The invocation return register context.
 545:../../Source/Platform/A7A/rme_platform_a7a.c **** Output      : struct RME_Reg_Struct* Reg - The register set.
 546:../../Source/Platform/A7A/rme_platform_a7a.c **** Return      : None.
 547:../../Source/Platform/A7A/rme_platform_a7a.c **** ******************************************************************************/
 548:../../Source/Platform/A7A/rme_platform_a7a.c **** void __RME_Inv_Reg_Restore(struct RME_Reg_Struct* Reg, struct RME_Iret_Struct* Ret)
 549:../../Source/Platform/A7A/rme_platform_a7a.c **** {
 1240              		.loc 1 549 1 is_stmt 1 view -0
 1241              		.cfi_startproc
 1242              		@ args = 0, pretend = 0, frame = 0
 1243              		@ frame_needed = 0, uses_anonymous_args = 0
 1244              		@ link register save eliminated.
 550:../../Source/Platform/A7A/rme_platform_a7a.c ****     Reg->PC=Ret->PC;
 1245              		.loc 1 550 5 view .LVU307
 1246              		.loc 1 550 16 is_stmt 0 view .LVU308
 1247 0000 003091E5 		ldr	r3, [r1]
 1248              		.loc 1 550 12 view .LVU309
 1249 0004 3C3080E5 		str	r3, [r0, #60]
 551:../../Source/Platform/A7A/rme_platform_a7a.c ****     Reg->SP=Ret->SP;
 1250              		.loc 1 551 5 is_stmt 1 view .LVU310
 1251              		.loc 1 551 16 is_stmt 0 view .LVU311
 1252 0008 043091E5 		ldr	r3, [r1, #4]
 1253              		.loc 1 551 12 view .LVU312
 1254 000c 343080E5 		str	r3, [r0, #52]
 552:../../Source/Platform/A7A/rme_platform_a7a.c **** }
 1255              		.loc 1 552 1 view .LVU313
 1256 0010 1EFF2FE1 		bx	lr
 1257              		.cfi_endproc
 1258              	.LFE23:
 1260              		.section	.text.__RME_Inv_Retval_Set,"ax",%progbits
 1261              		.align	2
 1262              		.global	__RME_Inv_Retval_Set
 1263              		.syntax unified
 1264              		.arm
 1266              	__RME_Inv_Retval_Set:
 1267              	.LVL54:
 1268              	.LFB24:
 553:../../Source/Platform/A7A/rme_platform_a7a.c **** /* End Function:__RME_Inv_Reg_Restore ****************************************/
 554:../../Source/Platform/A7A/rme_platform_a7a.c **** 
 555:../../Source/Platform/A7A/rme_platform_a7a.c **** /* Function:__RME_Inv_Retval_Set **********************************************
 556:../../Source/Platform/A7A/rme_platform_a7a.c **** Description : Set the invocation return value to the stack frame.
 557:../../Source/Platform/A7A/rme_platform_a7a.c **** Input       : rme_ret_t Retval - The return value.
 558:../../Source/Platform/A7A/rme_platform_a7a.c **** Output      : struct RME_Reg_Struct* Reg - The register set.
 559:../../Source/Platform/A7A/rme_platform_a7a.c **** Return      : None.
 560:../../Source/Platform/A7A/rme_platform_a7a.c **** ******************************************************************************/
 561:../../Source/Platform/A7A/rme_platform_a7a.c **** void __RME_Inv_Retval_Set(struct RME_Reg_Struct* Reg,
 562:../../Source/Platform/A7A/rme_platform_a7a.c ****                           rme_ret_t Retval)
 563:../../Source/Platform/A7A/rme_platform_a7a.c **** {
 1269              		.loc 1 563 1 is_stmt 1 view -0
 1270              		.cfi_startproc
 1271              		@ args = 0, pretend = 0, frame = 0
 1272              		@ frame_needed = 0, uses_anonymous_args = 0
 1273              		@ link register save eliminated.
 564:../../Source/Platform/A7A/rme_platform_a7a.c ****     Reg->R5=(rme_ptr_t)Retval;
 1274              		.loc 1 564 5 view .LVU315
 1275              		.loc 1 564 12 is_stmt 0 view .LVU316
ARM GAS  C:\Users\even\AppData\Local\Temp\cckwnfBT.s 			page 36


 1276 0000 181080E5 		str	r1, [r0, #24]
 565:../../Source/Platform/A7A/rme_platform_a7a.c **** }
 1277              		.loc 1 565 1 view .LVU317
 1278 0004 1EFF2FE1 		bx	lr
 1279              		.cfi_endproc
 1280              	.LFE24:
 1282              		.section	.text.__RME_Set_Inv_Retval,"ax",%progbits
 1283              		.align	2
 1284              		.global	__RME_Set_Inv_Retval
 1285              		.syntax unified
 1286              		.arm
 1288              	__RME_Set_Inv_Retval:
 1289              	.LVL55:
 1290              	.LFB25:
 566:../../Source/Platform/A7A/rme_platform_a7a.c **** /* End Function:__RME_Inv_Retval_Set *****************************************/
 567:../../Source/Platform/A7A/rme_platform_a7a.c **** 
 568:../../Source/Platform/A7A/rme_platform_a7a.c **** /* Function:__RME_Set_Inv_Retval **********************************************
 569:../../Source/Platform/A7A/rme_platform_a7a.c **** Description : Set the invocation return value to the stack frame.
 570:../../Source/Platform/A7A/rme_platform_a7a.c **** Input       : rme_ret_t Retval - The return value.
 571:../../Source/Platform/A7A/rme_platform_a7a.c **** Output      : struct RME_Reg_Struct* Reg - The register set.
 572:../../Source/Platform/A7A/rme_platform_a7a.c **** Return      : None.
 573:../../Source/Platform/A7A/rme_platform_a7a.c **** ******************************************************************************/
 574:../../Source/Platform/A7A/rme_platform_a7a.c **** void __RME_Set_Inv_Retval(struct RME_Reg_Struct* Reg, rme_ret_t Retval)
 575:../../Source/Platform/A7A/rme_platform_a7a.c **** {
 1291              		.loc 1 575 1 is_stmt 1 view -0
 1292              		.cfi_startproc
 1293              		@ args = 0, pretend = 0, frame = 0
 1294              		@ frame_needed = 0, uses_anonymous_args = 0
 1295              		@ link register save eliminated.
 576:../../Source/Platform/A7A/rme_platform_a7a.c ****     Reg->R1=(rme_ptr_t)Retval;
 1296              		.loc 1 576 5 view .LVU319
 1297              		.loc 1 576 12 is_stmt 0 view .LVU320
 1298 0000 081080E5 		str	r1, [r0, #8]
 577:../../Source/Platform/A7A/rme_platform_a7a.c **** }
 1299              		.loc 1 577 1 view .LVU321
 1300 0004 1EFF2FE1 		bx	lr
 1301              		.cfi_endproc
 1302              	.LFE25:
 1304              		.section	.text.__RME_Thd_Cop_Swap,"ax",%progbits
 1305              		.align	2
 1306              		.global	__RME_Thd_Cop_Swap
 1307              		.syntax unified
 1308              		.arm
 1310              	__RME_Thd_Cop_Swap:
 1311              	.LVL56:
 1312              	.LFB26:
 578:../../Source/Platform/A7A/rme_platform_a7a.c **** /* End Function:__RME_Set_Inv_Retval *****************************************/
 579:../../Source/Platform/A7A/rme_platform_a7a.c **** 
 580:../../Source/Platform/A7A/rme_platform_a7a.c **** /* Function:__RME_Thd_Cop_Swap ************************************************
 581:../../Source/Platform/A7A/rme_platform_a7a.c **** Description : Swap the cop register sets. This operation is flexible - If the
 582:../../Source/Platform/A7A/rme_platform_a7a.c ****               program does not use the FPU, we do not save/restore its context.
 583:../../Source/Platform/A7A/rme_platform_a7a.c ****               We do not need to turn off lazy stacking, because even if a fault
 584:../../Source/Platform/A7A/rme_platform_a7a.c ****               occurs, it (1) tails the execution of activates the will get dropped
 585:../../Source/Platform/A7A/rme_platform_a7a.c ****               by our handler deliberately and will not cause wrong attribution.
 586:../../Source/Platform/A7A/rme_platform_a7a.c ****               They can be alternatively disabled as well if you wish.
 587:../../Source/Platform/A7A/rme_platform_a7a.c **** Input       : rme_ptr_t Attr_New - The attribute of the context to switch to.
 588:../../Source/Platform/A7A/rme_platform_a7a.c ****               rme_ptr_t Is_Hyp_New - Whether the context to switch to is a
ARM GAS  C:\Users\even\AppData\Local\Temp\cckwnfBT.s 			page 37


 589:../../Source/Platform/A7A/rme_platform_a7a.c ****                                      hypervisor dedicated one.
 590:../../Source/Platform/A7A/rme_platform_a7a.c ****               struct RME_Reg_Struct* Reg_New - The context to switch to.
 591:../../Source/Platform/A7A/rme_platform_a7a.c ****               rme_ptr_t Attr_Cur - The attribute of the context to switch from.
 592:../../Source/Platform/A7A/rme_platform_a7a.c ****               rme_ptr_t Is_Hyp_Cur - Whether the context to switch from is a
 593:../../Source/Platform/A7A/rme_platform_a7a.c ****                                      hypervisor dedicated one.
 594:../../Source/Platform/A7A/rme_platform_a7a.c ****               struct RME_Reg_Struct* Reg_Cur - The context to switch from.
 595:../../Source/Platform/A7A/rme_platform_a7a.c **** Output      : void* Cop_New - The coprocessor context to switch to.
 596:../../Source/Platform/A7A/rme_platform_a7a.c ****               void* Cop_Cur - The coprocessor context to switch from.
 597:../../Source/Platform/A7A/rme_platform_a7a.c **** Return      : None.
 598:../../Source/Platform/A7A/rme_platform_a7a.c **** ******************************************************************************/
 599:../../Source/Platform/A7A/rme_platform_a7a.c **** void __RME_Thd_Cop_Swap(rme_ptr_t Attr_New,
 600:../../Source/Platform/A7A/rme_platform_a7a.c ****                         rme_ptr_t Is_Hyp_New,
 601:../../Source/Platform/A7A/rme_platform_a7a.c ****                         struct RME_Reg_Struct* Reg_New,
 602:../../Source/Platform/A7A/rme_platform_a7a.c ****                         void* Cop_New,
 603:../../Source/Platform/A7A/rme_platform_a7a.c ****                         rme_ptr_t Attr_Cur,
 604:../../Source/Platform/A7A/rme_platform_a7a.c ****                         rme_ptr_t Is_Hyp_Cur,
 605:../../Source/Platform/A7A/rme_platform_a7a.c ****                         struct RME_Reg_Struct* Reg_Cur,
 606:../../Source/Platform/A7A/rme_platform_a7a.c ****                         void* Cop_Cur)
 607:../../Source/Platform/A7A/rme_platform_a7a.c **** {
 1313              		.loc 1 607 1 is_stmt 1 view -0
 1314              		.cfi_startproc
 1315              		@ args = 16, pretend = 0, frame = 0
 1316              		@ frame_needed = 0, uses_anonymous_args = 0
 1317              		@ link register save eliminated.
 608:../../Source/Platform/A7A/rme_platform_a7a.c ****     
 609:../../Source/Platform/A7A/rme_platform_a7a.c **** }
 1318              		.loc 1 609 1 view .LVU323
 1319 0000 1EFF2FE1 		bx	lr
 1320              		.cfi_endproc
 1321              	.LFE26:
 1323              		.section	.text.__RME_Kfn_Handler,"ax",%progbits
 1324              		.align	2
 1325              		.global	__RME_Kfn_Handler
 1326              		.syntax unified
 1327              		.arm
 1329              	__RME_Kfn_Handler:
 1330              	.LVL57:
 1331              	.LFB27:
 610:../../Source/Platform/A7A/rme_platform_a7a.c **** /* End Function:__RME_Thd_Cop_Swap *******************************************/
 611:../../Source/Platform/A7A/rme_platform_a7a.c **** 
 612:../../Source/Platform/A7A/rme_platform_a7a.c **** /* Function:__RME_Kern_Func_Handler *******************************************
 613:../../Source/Platform/A7A/rme_platform_a7a.c **** Description : Handle kernel function calls.
 614:../../Source/Platform/A7A/rme_platform_a7a.c **** Input       : struct RME_Reg_Struct* Reg - The current register set.
 615:../../Source/Platform/A7A/rme_platform_a7a.c ****               rme_ptr_t Func_ID - The function ID.
 616:../../Source/Platform/A7A/rme_platform_a7a.c ****               rme_ptr_t Sub_ID - The sub function ID.
 617:../../Source/Platform/A7A/rme_platform_a7a.c ****               rme_ptr_t Param1 - The first parameter.
 618:../../Source/Platform/A7A/rme_platform_a7a.c ****               rme_ptr_t Param2 - The second parameter.
 619:../../Source/Platform/A7A/rme_platform_a7a.c **** Output      : None.
 620:../../Source/Platform/A7A/rme_platform_a7a.c **** Return      : rme_ptr_t - The value that the function returned.
 621:../../Source/Platform/A7A/rme_platform_a7a.c **** ******************************************************************************/
 622:../../Source/Platform/A7A/rme_platform_a7a.c **** rme_ret_t __RME_Kfn_Handler(struct RME_Cap_Cpt* Cpt,
 623:../../Source/Platform/A7A/rme_platform_a7a.c ****                                            struct RME_Reg_Struct* Reg,
 624:../../Source/Platform/A7A/rme_platform_a7a.c ****                                            rme_ptr_t Func_ID,
 625:../../Source/Platform/A7A/rme_platform_a7a.c ****                                            rme_ptr_t Sub_ID,
 626:../../Source/Platform/A7A/rme_platform_a7a.c ****                                            rme_ptr_t Param1,
 627:../../Source/Platform/A7A/rme_platform_a7a.c ****                                            rme_ptr_t Param2)
 628:../../Source/Platform/A7A/rme_platform_a7a.c **** {
ARM GAS  C:\Users\even\AppData\Local\Temp\cckwnfBT.s 			page 38


 1332              		.loc 1 628 1 view -0
 1333              		.cfi_startproc
 1334              		@ args = 8, pretend = 0, frame = 0
 1335              		@ frame_needed = 0, uses_anonymous_args = 0
 1336              		@ link register save eliminated.
 629:../../Source/Platform/A7A/rme_platform_a7a.c **** 	/* Currently no kernel function implemented */
 630:../../Source/Platform/A7A/rme_platform_a7a.c ****     return 0;
 1337              		.loc 1 630 5 view .LVU325
 631:../../Source/Platform/A7A/rme_platform_a7a.c **** }
 1338              		.loc 1 631 1 is_stmt 0 view .LVU326
 1339 0000 0000A0E3 		mov	r0, #0
 1340              	.LVL58:
 1341              		.loc 1 631 1 view .LVU327
 1342 0004 1EFF2FE1 		bx	lr
 1343              		.cfi_endproc
 1344              	.LFE27:
 1346              		.section	.text.__RME_A7A_Undefined_Handler,"ax",%progbits
 1347              		.align	2
 1348              		.global	__RME_A7A_Undefined_Handler
 1349              		.syntax unified
 1350              		.arm
 1352              	__RME_A7A_Undefined_Handler:
 1353              	.LFB28:
 632:../../Source/Platform/A7A/rme_platform_a7a.c **** /* End Function:__RME_Kern_Func_Handler **************************************/
 633:../../Source/Platform/A7A/rme_platform_a7a.c **** 
 634:../../Source/Platform/A7A/rme_platform_a7a.c **** /* Function:__RME_A7A_Undefined_Handler **************************************
 635:../../Source/Platform/A7A/rme_platform_a7a.c **** Description : The undefined instruction vector handler of RME.
 636:../../Source/Platform/A7A/rme_platform_a7a.c **** Input       : struct RME_Reg_Struct* Reg - The register set when entering the handler.
 637:../../Source/Platform/A7A/rme_platform_a7a.c **** Output      : struct RME_Reg_Struct* Reg - The register set when exiting the handler.
 638:../../Source/Platform/A7A/rme_platform_a7a.c **** Return      : None.
 639:../../Source/Platform/A7A/rme_platform_a7a.c **** ******************************************************************************/
 640:../../Source/Platform/A7A/rme_platform_a7a.c **** void __RME_A7A_Undefined_Handler(struct RME_Reg_Struct* Reg)
 641:../../Source/Platform/A7A/rme_platform_a7a.c **** {
 1354              		.loc 1 641 1 is_stmt 1 view -0
 1355              		.cfi_startproc
 1356              		@ Volatile: function does not return.
 1357              		@ args = 0, pretend = 0, frame = 0
 1358              		@ frame_needed = 0, uses_anonymous_args = 0
 1359              		@ link register save eliminated.
 1360              	.LVL59:
 1361              	.L70:
 642:../../Source/Platform/A7A/rme_platform_a7a.c **** 	/* We don't handle undefined instructions now */
 643:../../Source/Platform/A7A/rme_platform_a7a.c **** 	while(1);
 1362              		.loc 1 643 2 discriminator 1 view .LVU329
 1363              		.loc 1 643 10 discriminator 1 view .LVU330
 1364              		.loc 1 643 7 discriminator 1 view .LVU331
 1365 0000 FEFFFFEA 		b	.L70
 1366              		.cfi_endproc
 1367              	.LFE28:
 1369              		.section	.text.__RME_A7A_Prefetch_Abort_Handler,"ax",%progbits
 1370              		.align	2
 1371              		.global	__RME_A7A_Prefetch_Abort_Handler
 1372              		.syntax unified
 1373              		.arm
 1375              	__RME_A7A_Prefetch_Abort_Handler:
 1376              	.LFB29:
 644:../../Source/Platform/A7A/rme_platform_a7a.c **** }
ARM GAS  C:\Users\even\AppData\Local\Temp\cckwnfBT.s 			page 39


 645:../../Source/Platform/A7A/rme_platform_a7a.c **** /* End Function:__RME_A7A_Undefined_Handler *********************************/
 646:../../Source/Platform/A7A/rme_platform_a7a.c **** 
 647:../../Source/Platform/A7A/rme_platform_a7a.c **** /* Function:__RME_A7A_Prefetch_Abort_Handler *********************************
 648:../../Source/Platform/A7A/rme_platform_a7a.c **** Description : The prefetch abort vector handler of RME.
 649:../../Source/Platform/A7A/rme_platform_a7a.c **** Input       : struct RME_Reg_Struct* Reg - The register set when entering the handler.
 650:../../Source/Platform/A7A/rme_platform_a7a.c **** Output      : struct RME_Reg_Struct* Reg - The register set when exiting the handler.
 651:../../Source/Platform/A7A/rme_platform_a7a.c **** Return      : None.
 652:../../Source/Platform/A7A/rme_platform_a7a.c **** ******************************************************************************/
 653:../../Source/Platform/A7A/rme_platform_a7a.c **** void __RME_A7A_Prefetch_Abort_Handler(struct RME_Reg_Struct* Reg)
 654:../../Source/Platform/A7A/rme_platform_a7a.c **** {
 1377              		.loc 1 654 1 view -0
 1378              		.cfi_startproc
 1379              		@ Volatile: function does not return.
 1380              		@ args = 0, pretend = 0, frame = 0
 1381              		@ frame_needed = 0, uses_anonymous_args = 0
 1382              		@ link register save eliminated.
 1383              	.LVL60:
 1384              	.L72:
 655:../../Source/Platform/A7A/rme_platform_a7a.c **** 	/* We don't handle prefetch aborts now */
 656:../../Source/Platform/A7A/rme_platform_a7a.c **** 	while(1);
 1385              		.loc 1 656 2 discriminator 1 view .LVU333
 1386              		.loc 1 656 10 discriminator 1 view .LVU334
 1387              		.loc 1 656 7 discriminator 1 view .LVU335
 1388 0000 FEFFFFEA 		b	.L72
 1389              		.cfi_endproc
 1390              	.LFE29:
 1392              		.section	.text.__RME_A7A_Data_Abort_Handler,"ax",%progbits
 1393              		.align	2
 1394              		.global	__RME_A7A_Data_Abort_Handler
 1395              		.syntax unified
 1396              		.arm
 1398              	__RME_A7A_Data_Abort_Handler:
 1399              	.LFB30:
 657:../../Source/Platform/A7A/rme_platform_a7a.c **** }
 658:../../Source/Platform/A7A/rme_platform_a7a.c **** /* End Function:__RME_A7A_Prefetch_Abort_Handler ****************************/
 659:../../Source/Platform/A7A/rme_platform_a7a.c **** 
 660:../../Source/Platform/A7A/rme_platform_a7a.c **** /* Function:__RME_A7A_Data_Abort_Handler *************************************
 661:../../Source/Platform/A7A/rme_platform_a7a.c **** Description : The data abort vector handler of RME.
 662:../../Source/Platform/A7A/rme_platform_a7a.c **** Input       : struct RME_Reg_Struct* Reg - The register set when entering the handler.
 663:../../Source/Platform/A7A/rme_platform_a7a.c **** Output      : struct RME_Reg_Struct* Reg - The register set when exiting the handler.
 664:../../Source/Platform/A7A/rme_platform_a7a.c **** Return      : None.
 665:../../Source/Platform/A7A/rme_platform_a7a.c **** ******************************************************************************/
 666:../../Source/Platform/A7A/rme_platform_a7a.c **** void __RME_A7A_Data_Abort_Handler(struct RME_Reg_Struct* Reg)
 667:../../Source/Platform/A7A/rme_platform_a7a.c **** {
 1400              		.loc 1 667 1 view -0
 1401              		.cfi_startproc
 1402              		@ Volatile: function does not return.
 1403              		@ args = 0, pretend = 0, frame = 0
 1404              		@ frame_needed = 0, uses_anonymous_args = 0
 1405              		@ link register save eliminated.
 1406              	.LVL61:
 1407              	.L74:
 668:../../Source/Platform/A7A/rme_platform_a7a.c **** 	/* We don't handle data aborts now */
 669:../../Source/Platform/A7A/rme_platform_a7a.c **** 	while(1);
 1408              		.loc 1 669 2 discriminator 1 view .LVU337
 1409              		.loc 1 669 10 discriminator 1 view .LVU338
 1410              		.loc 1 669 7 discriminator 1 view .LVU339
ARM GAS  C:\Users\even\AppData\Local\Temp\cckwnfBT.s 			page 40


 1411 0000 FEFFFFEA 		b	.L74
 1412              		.cfi_endproc
 1413              	.LFE30:
 1415              		.section	.rodata.__RME_A7A_IRQ_Handler.str1.4,"aMS",%progbits,1
 1416              		.align	2
 1417              	.LC11:
 1418 0000 31343A30 		.ascii	"14:07:42\000"
 1418      373A3432 
 1418      00
 1419 0009 000000   		.align	2
 1420              	.LC12:
 1421 000c 46656220 		.ascii	"Feb 18 2025\000"
 1421      31382032 
 1421      30323500 
 1422              		.align	2
 1423              	.LC13:
 1424 0018 2E2E2F2E 		.ascii	"../../Source/Platform/A7A/rme_platform_a7a.c\000"
 1424      2E2F536F 
 1424      75726365 
 1424      2F506C61 
 1424      74666F72 
 1425              		.section	.text.__RME_A7A_IRQ_Handler,"ax",%progbits
 1426              		.align	2
 1427              		.global	__RME_A7A_IRQ_Handler
 1428              		.syntax unified
 1429              		.arm
 1431              	__RME_A7A_IRQ_Handler:
 1432              	.LVL62:
 1433              	.LFB31:
 670:../../Source/Platform/A7A/rme_platform_a7a.c **** }
 671:../../Source/Platform/A7A/rme_platform_a7a.c **** /* End Function:__RME_A7A_Data_Abort_Handler ********************************/
 672:../../Source/Platform/A7A/rme_platform_a7a.c **** 
 673:../../Source/Platform/A7A/rme_platform_a7a.c **** /* Function:__RME_A7A_IRQ_Handler ********************************************
 674:../../Source/Platform/A7A/rme_platform_a7a.c **** Description : The regular interrupt vector handler of RME.
 675:../../Source/Platform/A7A/rme_platform_a7a.c **** Input       : struct RME_Reg_Struct* Reg - The register set when entering the handler.
 676:../../Source/Platform/A7A/rme_platform_a7a.c **** Output      : struct RME_Reg_Struct* Reg - The register set when exiting the handler.
 677:../../Source/Platform/A7A/rme_platform_a7a.c **** Return      : None.
 678:../../Source/Platform/A7A/rme_platform_a7a.c **** ******************************************************************************/
 679:../../Source/Platform/A7A/rme_platform_a7a.c **** void __RME_A7A_IRQ_Handler(struct RME_Reg_Struct* Reg)
 680:../../Source/Platform/A7A/rme_platform_a7a.c **** {
 1434              		.loc 1 680 1 view -0
 1435              		.cfi_startproc
 1436              		@ args = 0, pretend = 0, frame = 0
 1437              		@ frame_needed = 0, uses_anonymous_args = 0
 681:../../Source/Platform/A7A/rme_platform_a7a.c **** 	rme_ptr_t Int_ID;
 1438              		.loc 1 681 2 view .LVU341
 682:../../Source/Platform/A7A/rme_platform_a7a.c **** 	rme_ptr_t CPUID;
 1439              		.loc 1 682 2 view .LVU342
 683:../../Source/Platform/A7A/rme_platform_a7a.c **** 
 684:../../Source/Platform/A7A/rme_platform_a7a.c **** 	/* What interrupt is this? */
 685:../../Source/Platform/A7A/rme_platform_a7a.c **** 	Int_ID=RME_A7A_GICC_IAR;
 1440              		.loc 1 685 2 view .LVU343
 1441              		.loc 1 685 8 is_stmt 0 view .LVU344
 1442 0000 0020A0E3 		mov	r2, #0
 686:../../Source/Platform/A7A/rme_platform_a7a.c **** 	CPUID=Int_ID>>10;
 687:../../Source/Platform/A7A/rme_platform_a7a.c **** 	Int_ID&=0x3FFU;
 688:../../Source/Platform/A7A/rme_platform_a7a.c **** 
ARM GAS  C:\Users\even\AppData\Local\Temp\cckwnfBT.s 			page 41


 689:../../Source/Platform/A7A/rme_platform_a7a.c **** #if(RME_A7A_GIC_TYPE==RME_A7A_GIC_V1)
 690:../../Source/Platform/A7A/rme_platform_a7a.c **** 	/* Is this a spurious interrupt? (Can't be 1022 because GICv1 don't have group1) */
 691:../../Source/Platform/A7A/rme_platform_a7a.c **** 	RME_ASSERT(Int_ID!=1022);
 1443              		.loc 1 691 2 view .LVU345
 1444 0004 FE0300E3 		movw	r0, #1022
 1445              	.LVL63:
 685:../../Source/Platform/A7A/rme_platform_a7a.c **** 	CPUID=Int_ID>>10;
 1446              		.loc 1 685 8 view .LVU346
 1447 0008 F0284FE3 		movt	r2, 63728
 680:../../Source/Platform/A7A/rme_platform_a7a.c **** 	rme_ptr_t Int_ID;
 1448              		.loc 1 680 1 view .LVU347
 1449 000c 10402DE9 		push	{r4, lr}
 1450              		.cfi_def_cfa_offset 8
 1451              		.cfi_offset 4, -8
 1452              		.cfi_offset 14, -4
 685:../../Source/Platform/A7A/rme_platform_a7a.c **** 	CPUID=Int_ID>>10;
 1453              		.loc 1 685 8 view .LVU348
 1454 0010 0C1192E5 		ldr	r1, [r2, #268]
 1455              	.LVL64:
 686:../../Source/Platform/A7A/rme_platform_a7a.c **** 	CPUID=Int_ID>>10;
 1456              		.loc 1 686 2 is_stmt 1 view .LVU349
 687:../../Source/Platform/A7A/rme_platform_a7a.c **** 
 1457              		.loc 1 687 2 view .LVU350
 687:../../Source/Platform/A7A/rme_platform_a7a.c **** 
 1458              		.loc 1 687 8 is_stmt 0 view .LVU351
 1459 0014 5130E9E7 		ubfx	r3, r1, #0, #10
 1460              	.LVL65:
 1461              		.loc 1 691 2 is_stmt 1 view .LVU352
 1462              		.loc 1 691 2 view .LVU353
 1463 0018 000053E1 		cmp	r3, r0
 1464 001c 1800000A 		beq	.L89
 1465 0020 FFC300E3 		movw	ip, #1023
 1466              		.loc 1 691 2 discriminator 2 view .LVU354
 692:../../Source/Platform/A7A/rme_platform_a7a.c **** 	if(Int_ID==1023)
 1467              		.loc 1 692 2 discriminator 2 view .LVU355
 1468              		.loc 1 692 4 is_stmt 0 discriminator 2 view .LVU356
 1469 0024 0C0053E1 		cmp	r3, ip
 1470 0028 1080BD08 		popeq	{r4, pc}
 693:../../Source/Platform/A7A/rme_platform_a7a.c **** 		return;
 694:../../Source/Platform/A7A/rme_platform_a7a.c **** 	/* Only the booting processor will receive timer interrupts */
 695:../../Source/Platform/A7A/rme_platform_a7a.c **** #if((RME_A7A_CPU_TYPE==RME_A7A_CPU_CORTEX_A5)|| \
 696:../../Source/Platform/A7A/rme_platform_a7a.c **** 	(RME_A7A_CPU_TYPE==RME_A7A_CPU_CORTEX_A9))
 697:../../Source/Platform/A7A/rme_platform_a7a.c **** 	/* Is is an timer interrupt? (we know that it is at 29) */
 698:../../Source/Platform/A7A/rme_platform_a7a.c **** 	if(Int_ID==29)
 1471              		.loc 1 698 2 is_stmt 1 view .LVU357
 1472              		.loc 1 698 4 is_stmt 0 view .LVU358
 1473 002c 1D0053E3 		cmp	r3, #29
 1474 0030 1C00000A 		beq	.L90
 686:../../Source/Platform/A7A/rme_platform_a7a.c **** 	Int_ID&=0x3FFU;
 1475              		.loc 1 686 7 view .LVU359
 1476 0034 2105A0E1 		lsr	r0, r1, #10
 1477              	.LVL66:
 699:../../Source/Platform/A7A/rme_platform_a7a.c **** 	{
 700:../../Source/Platform/A7A/rme_platform_a7a.c **** 		/* Clear the interrupt flag */
 701:../../Source/Platform/A7A/rme_platform_a7a.c **** 	    RME_A7A_PTWD_PTISR=0;
 702:../../Source/Platform/A7A/rme_platform_a7a.c **** 		//_RME_Tick_Handler(Reg);
 703:../../Source/Platform/A7A/rme_platform_a7a.c **** 		/* Send interrupt to all other processors to notify them about this */
ARM GAS  C:\Users\even\AppData\Local\Temp\cckwnfBT.s 			page 42


 704:../../Source/Platform/A7A/rme_platform_a7a.c **** 		/* EOI the interrupt */
 705:../../Source/Platform/A7A/rme_platform_a7a.c **** 		RME_A7A_GICC_EOIR=Int_ID;
 706:../../Source/Platform/A7A/rme_platform_a7a.c **** 		return;
 707:../../Source/Platform/A7A/rme_platform_a7a.c **** 	}
 708:../../Source/Platform/A7A/rme_platform_a7a.c **** #else
 709:../../Source/Platform/A7A/rme_platform_a7a.c **** 
 710:../../Source/Platform/A7A/rme_platform_a7a.c **** #endif
 711:../../Source/Platform/A7A/rme_platform_a7a.c **** 
 712:../../Source/Platform/A7A/rme_platform_a7a.c **** #else
 713:../../Source/Platform/A7A/rme_platform_a7a.c **** 
 714:../../Source/Platform/A7A/rme_platform_a7a.c **** #endif
 715:../../Source/Platform/A7A/rme_platform_a7a.c **** 	/* Is this a coprocessor timer interrupt? (We use interrupt number 0 for these) */
 716:../../Source/Platform/A7A/rme_platform_a7a.c **** 	if(Int_ID==0)
 1478              		.loc 1 716 2 is_stmt 1 view .LVU360
 1479              		.loc 1 716 4 is_stmt 0 view .LVU361
 1480 0038 000053E3 		cmp	r3, #0
 1481 003c 0300001A 		bne	.L80
 717:../../Source/Platform/A7A/rme_platform_a7a.c **** 	{
 718:../../Source/Platform/A7A/rme_platform_a7a.c **** 		/* This must have originated from interface 0 */
 719:../../Source/Platform/A7A/rme_platform_a7a.c **** 		RME_ASSERT(CPUID==0);
 1482              		.loc 1 719 3 is_stmt 1 view .LVU362
 1483              		.loc 1 719 3 view .LVU363
 1484 0040 000050E3 		cmp	r0, #0
 1485 0044 1B00001A 		bne	.L91
 1486              		.loc 1 719 3 discriminator 2 view .LVU364
 720:../../Source/Platform/A7A/rme_platform_a7a.c **** 		//_RME_Tick_SMP_Handler(Reg);
 721:../../Source/Platform/A7A/rme_platform_a7a.c **** 		/* EOI the interrupt */
 722:../../Source/Platform/A7A/rme_platform_a7a.c **** 		RME_A7A_GICC_EOIR=Int_ID;
 1487              		.loc 1 722 3 discriminator 2 view .LVU365
 1488              		.loc 1 722 20 is_stmt 0 discriminator 2 view .LVU366
 1489 0048 100182E5 		str	r0, [r2, #272]
 723:../../Source/Platform/A7A/rme_platform_a7a.c **** 		return;
 1490              		.loc 1 723 3 is_stmt 1 discriminator 2 view .LVU367
 1491 004c 1080BDE8 		pop	{r4, pc}
 1492              	.L80:
 724:../../Source/Platform/A7A/rme_platform_a7a.c **** 	}
 725:../../Source/Platform/A7A/rme_platform_a7a.c **** 
 726:../../Source/Platform/A7A/rme_platform_a7a.c **** 	/* Is this an other IPI? (All the rest of the SGIs are these) */
 727:../../Source/Platform/A7A/rme_platform_a7a.c **** 	if(Int_ID<16)
 1493              		.loc 1 727 2 view .LVU368
 1494              		.loc 1 727 4 is_stmt 0 view .LVU369
 1495 0050 3F0E11E3 		tst	r1, #1008
 1496 0054 2000000A 		beq	.L92
 728:../../Source/Platform/A7A/rme_platform_a7a.c **** 	{
 729:../../Source/Platform/A7A/rme_platform_a7a.c **** 		_RME_A7A_SGI_Handler(Reg,CPUID,Int_ID);
 730:../../Source/Platform/A7A/rme_platform_a7a.c **** 		/* EOI the interrupt */
 731:../../Source/Platform/A7A/rme_platform_a7a.c **** 		RME_A7A_GICC_EOIR=(CPUID<<10U)|Int_ID;
 732:../../Source/Platform/A7A/rme_platform_a7a.c **** 		return;
 733:../../Source/Platform/A7A/rme_platform_a7a.c **** 	}
 734:../../Source/Platform/A7A/rme_platform_a7a.c **** 
 735:../../Source/Platform/A7A/rme_platform_a7a.c **** 	/* Is this an casual interrupt? */
 736:../../Source/Platform/A7A/rme_platform_a7a.c **** 	RME_ASSERT(CPUID==0);
 1497              		.loc 1 736 2 is_stmt 1 view .LVU370
 1498              		.loc 1 736 2 view .LVU371
 1499 0058 000050E3 		cmp	r0, #0
 1500 005c 1080BD08 		popeq	{r4, pc}
 1501              		.loc 1 736 2 discriminator 1 view .LVU372
ARM GAS  C:\Users\even\AppData\Local\Temp\cckwnfBT.s 			page 43


 1502 0060 003000E3 		movw	r3, #:lower16:.LC11
 1503              	.LVL67:
 1504              		.loc 1 736 2 is_stmt 0 discriminator 1 view .LVU373
 1505 0064 002000E3 		movw	r2, #:lower16:.LC12
 1506 0068 003040E3 		movt	r3, #:upper16:.LC11
 1507 006c 000000E3 		movw	r0, #:lower16:.LC13
 1508              	.LVL68:
 1509              		.loc 1 736 2 discriminator 1 view .LVU374
 1510 0070 002040E3 		movt	r2, #:upper16:.LC12
 1511 0074 2E1EA0E3 		mov	r1, #736
 1512              	.LVL69:
 1513              		.loc 1 736 2 discriminator 1 view .LVU375
 1514 0078 000040E3 		movt	r0, #:upper16:.LC13
 1515 007c FEFFFFEB 		bl	RME_Log
 1516              	.LVL70:
 1517              	.L84:
 1518              		.loc 1 736 2 is_stmt 1 discriminator 3 view .LVU376
 1519              		.loc 1 736 2 discriminator 3 view .LVU377
 1520              		.loc 1 736 2 discriminator 3 view .LVU378
 1521              		.loc 1 736 2 discriminator 3 view .LVU379
 1522              		.loc 1 736 2 discriminator 3 view .LVU380
 1523              		.loc 1 736 2 discriminator 3 view .LVU381
 1524              		.loc 1 736 2 discriminator 3 view .LVU382
 1525              		.loc 1 736 2 discriminator 3 view .LVU383
 1526 0080 FEFFFFEA 		b	.L84
 1527              	.LVL71:
 1528              	.L89:
 691:../../Source/Platform/A7A/rme_platform_a7a.c **** 	if(Int_ID==1023)
 1529              		.loc 1 691 2 discriminator 1 view .LVU384
 1530 0084 003000E3 		movw	r3, #:lower16:.LC11
 1531              	.LVL72:
 691:../../Source/Platform/A7A/rme_platform_a7a.c **** 	if(Int_ID==1023)
 1532              		.loc 1 691 2 is_stmt 0 discriminator 1 view .LVU385
 1533 0088 002000E3 		movw	r2, #:lower16:.LC12
 1534 008c 003040E3 		movt	r3, #:upper16:.LC11
 1535 0090 000000E3 		movw	r0, #:lower16:.LC13
 1536 0094 002040E3 		movt	r2, #:upper16:.LC12
 1537 0098 B31200E3 		movw	r1, #691
 1538              	.LVL73:
 691:../../Source/Platform/A7A/rme_platform_a7a.c **** 	if(Int_ID==1023)
 1539              		.loc 1 691 2 discriminator 1 view .LVU386
 1540 009c 000040E3 		movt	r0, #:upper16:.LC13
 1541 00a0 FEFFFFEB 		bl	RME_Log
 1542              	.LVL74:
 1543              	.L77:
 691:../../Source/Platform/A7A/rme_platform_a7a.c **** 	if(Int_ID==1023)
 1544              		.loc 1 691 2 is_stmt 1 discriminator 1 view .LVU387
 691:../../Source/Platform/A7A/rme_platform_a7a.c **** 	if(Int_ID==1023)
 1545              		.loc 1 691 2 discriminator 1 view .LVU388
 691:../../Source/Platform/A7A/rme_platform_a7a.c **** 	if(Int_ID==1023)
 1546              		.loc 1 691 2 discriminator 1 view .LVU389
 691:../../Source/Platform/A7A/rme_platform_a7a.c **** 	if(Int_ID==1023)
 1547              		.loc 1 691 2 discriminator 1 view .LVU390
 691:../../Source/Platform/A7A/rme_platform_a7a.c **** 	if(Int_ID==1023)
 1548              		.loc 1 691 2 discriminator 1 view .LVU391
 691:../../Source/Platform/A7A/rme_platform_a7a.c **** 	if(Int_ID==1023)
 1549              		.loc 1 691 2 discriminator 1 view .LVU392
ARM GAS  C:\Users\even\AppData\Local\Temp\cckwnfBT.s 			page 44


 691:../../Source/Platform/A7A/rme_platform_a7a.c **** 	if(Int_ID==1023)
 1550              		.loc 1 691 2 discriminator 1 view .LVU393
 691:../../Source/Platform/A7A/rme_platform_a7a.c **** 	if(Int_ID==1023)
 1551              		.loc 1 691 2 discriminator 1 view .LVU394
 1552 00a4 FEFFFFEA 		b	.L77
 1553              	.LVL75:
 1554              	.L90:
 701:../../Source/Platform/A7A/rme_platform_a7a.c **** 		//_RME_Tick_Handler(Reg);
 1555              		.loc 1 701 6 view .LVU395
 701:../../Source/Platform/A7A/rme_platform_a7a.c **** 		//_RME_Tick_Handler(Reg);
 1556              		.loc 1 701 24 is_stmt 0 view .LVU396
 1557 00a8 0010A0E3 		mov	r1, #0
 1558              	.LVL76:
 701:../../Source/Platform/A7A/rme_platform_a7a.c **** 		//_RME_Tick_Handler(Reg);
 1559              		.loc 1 701 24 view .LVU397
 1560 00ac 0C1682E5 		str	r1, [r2, #1548]
 705:../../Source/Platform/A7A/rme_platform_a7a.c **** 		return;
 1561              		.loc 1 705 3 is_stmt 1 view .LVU398
 705:../../Source/Platform/A7A/rme_platform_a7a.c **** 		return;
 1562              		.loc 1 705 20 is_stmt 0 view .LVU399
 1563 00b0 103182E5 		str	r3, [r2, #272]
 706:../../Source/Platform/A7A/rme_platform_a7a.c **** 	}
 1564              		.loc 1 706 3 is_stmt 1 view .LVU400
 1565 00b4 1080BDE8 		pop	{r4, pc}
 1566              	.LVL77:
 1567              	.L91:
 719:../../Source/Platform/A7A/rme_platform_a7a.c **** 		//_RME_Tick_SMP_Handler(Reg);
 1568              		.loc 1 719 3 discriminator 1 view .LVU401
 1569 00b8 003000E3 		movw	r3, #:lower16:.LC11
 1570              	.LVL78:
 719:../../Source/Platform/A7A/rme_platform_a7a.c **** 		//_RME_Tick_SMP_Handler(Reg);
 1571              		.loc 1 719 3 is_stmt 0 discriminator 1 view .LVU402
 1572 00bc 002000E3 		movw	r2, #:lower16:.LC12
 1573 00c0 003040E3 		movt	r3, #:upper16:.LC11
 1574 00c4 000000E3 		movw	r0, #:lower16:.LC13
 1575              	.LVL79:
 719:../../Source/Platform/A7A/rme_platform_a7a.c **** 		//_RME_Tick_SMP_Handler(Reg);
 1576              		.loc 1 719 3 discriminator 1 view .LVU403
 1577 00c8 002040E3 		movt	r2, #:upper16:.LC12
 1578 00cc CF1200E3 		movw	r1, #719
 1579              	.LVL80:
 719:../../Source/Platform/A7A/rme_platform_a7a.c **** 		//_RME_Tick_SMP_Handler(Reg);
 1580              		.loc 1 719 3 discriminator 1 view .LVU404
 1581 00d0 000040E3 		movt	r0, #:upper16:.LC13
 1582 00d4 FEFFFFEB 		bl	RME_Log
 1583              	.LVL81:
 1584              	.L82:
 719:../../Source/Platform/A7A/rme_platform_a7a.c **** 		//_RME_Tick_SMP_Handler(Reg);
 1585              		.loc 1 719 3 is_stmt 1 discriminator 2 view .LVU405
 719:../../Source/Platform/A7A/rme_platform_a7a.c **** 		//_RME_Tick_SMP_Handler(Reg);
 1586              		.loc 1 719 3 discriminator 2 view .LVU406
 719:../../Source/Platform/A7A/rme_platform_a7a.c **** 		//_RME_Tick_SMP_Handler(Reg);
 1587              		.loc 1 719 3 discriminator 2 view .LVU407
 719:../../Source/Platform/A7A/rme_platform_a7a.c **** 		//_RME_Tick_SMP_Handler(Reg);
 1588              		.loc 1 719 3 discriminator 2 view .LVU408
 719:../../Source/Platform/A7A/rme_platform_a7a.c **** 		//_RME_Tick_SMP_Handler(Reg);
 1589              		.loc 1 719 3 discriminator 2 view .LVU409
ARM GAS  C:\Users\even\AppData\Local\Temp\cckwnfBT.s 			page 45


 719:../../Source/Platform/A7A/rme_platform_a7a.c **** 		//_RME_Tick_SMP_Handler(Reg);
 1590              		.loc 1 719 3 discriminator 2 view .LVU410
 719:../../Source/Platform/A7A/rme_platform_a7a.c **** 		//_RME_Tick_SMP_Handler(Reg);
 1591              		.loc 1 719 3 discriminator 2 view .LVU411
 719:../../Source/Platform/A7A/rme_platform_a7a.c **** 		//_RME_Tick_SMP_Handler(Reg);
 1592              		.loc 1 719 3 discriminator 2 view .LVU412
 1593 00d8 FEFFFFEA 		b	.L82
 1594              	.LVL82:
 1595              	.L92:
 729:../../Source/Platform/A7A/rme_platform_a7a.c **** 		/* EOI the interrupt */
 1596              		.loc 1 729 3 view .LVU413
 737:../../Source/Platform/A7A/rme_platform_a7a.c **** 
 738:../../Source/Platform/A7A/rme_platform_a7a.c **** }
 739:../../Source/Platform/A7A/rme_platform_a7a.c **** /* End Function:__RME_A7A_IRQ_Handler ***************************************/
 740:../../Source/Platform/A7A/rme_platform_a7a.c **** 
 741:../../Source/Platform/A7A/rme_platform_a7a.c **** /* Function:_RME_A7A_SGI_Handler *********************************************
 742:../../Source/Platform/A7A/rme_platform_a7a.c **** Description : The generic interrupt handler of RME for x64.
 743:../../Source/Platform/A7A/rme_platform_a7a.c **** Input       : struct RME_Reg_Struct* Reg - The register set when entering the handler.
 744:../../Source/Platform/A7A/rme_platform_a7a.c ****               rme_ptr_t CPUID - The ID of the sender CPU.
 745:../../Source/Platform/A7A/rme_platform_a7a.c ****               rme_ptr_t Int_ID - The ID of the SGI.
 746:../../Source/Platform/A7A/rme_platform_a7a.c **** Output      : struct RME_Reg_Struct* Reg - The register set when exiting the handler.
 747:../../Source/Platform/A7A/rme_platform_a7a.c **** Return      : None.
 748:../../Source/Platform/A7A/rme_platform_a7a.c **** ******************************************************************************/
 749:../../Source/Platform/A7A/rme_platform_a7a.c **** void _RME_A7A_SGI_Handler(struct RME_Reg_Struct* Reg, rme_ptr_t CPUID, rme_ptr_t Int_ID)
 750:../../Source/Platform/A7A/rme_platform_a7a.c **** {
 751:../../Source/Platform/A7A/rme_platform_a7a.c **** 	/* Not handling SGIs */
 752:../../Source/Platform/A7A/rme_platform_a7a.c **** 	return;
 1597              		.loc 1 752 2 view .LVU414
 731:../../Source/Platform/A7A/rme_platform_a7a.c **** 		return;
 1598              		.loc 1 731 3 view .LVU415
 731:../../Source/Platform/A7A/rme_platform_a7a.c **** 		return;
 1599              		.loc 1 731 33 is_stmt 0 view .LVU416
 1600 00dc 003583E1 		orr	r3, r3, r0, lsl #10
 1601              	.LVL83:
 731:../../Source/Platform/A7A/rme_platform_a7a.c **** 		return;
 1602              		.loc 1 731 20 view .LVU417
 1603 00e0 103182E5 		str	r3, [r2, #272]
 732:../../Source/Platform/A7A/rme_platform_a7a.c **** 	}
 1604              		.loc 1 732 3 is_stmt 1 view .LVU418
 1605 00e4 1080BDE8 		pop	{r4, pc}
 1606              		.cfi_endproc
 1607              	.LFE31:
 1609              		.section	.text._RME_A7A_SGI_Handler,"ax",%progbits
 1610              		.align	2
 1611              		.global	_RME_A7A_SGI_Handler
 1612              		.syntax unified
 1613              		.arm
 1615              	_RME_A7A_SGI_Handler:
 1616              	.LVL84:
 1617              	.LFB32:
 750:../../Source/Platform/A7A/rme_platform_a7a.c **** 	/* Not handling SGIs */
 1618              		.loc 1 750 1 view -0
 1619              		.cfi_startproc
 1620              		@ args = 0, pretend = 0, frame = 0
 1621              		@ frame_needed = 0, uses_anonymous_args = 0
 1622              		@ link register save eliminated.
 1623              		.loc 1 752 2 view .LVU420
ARM GAS  C:\Users\even\AppData\Local\Temp\cckwnfBT.s 			page 46


 753:../../Source/Platform/A7A/rme_platform_a7a.c **** }
 1624              		.loc 1 753 1 is_stmt 0 view .LVU421
 1625 0000 1EFF2FE1 		bx	lr
 1626              		.cfi_endproc
 1627              	.LFE32:
 1629              		.section	.rodata.__RME_A7A_Generic_Handler.str1.4,"aMS",%progbits,1
 1630              		.align	2
 1631              	.LC14:
 1632 0000 0D0A4765 		.ascii	"\015\012General int:\000"
 1632      6E657261 
 1632      6C20696E 
 1632      743A00
 1633              		.section	.text.__RME_A7A_Generic_Handler,"ax",%progbits
 1634              		.align	2
 1635              		.global	__RME_A7A_Generic_Handler
 1636              		.syntax unified
 1637              		.arm
 1639              	__RME_A7A_Generic_Handler:
 1640              	.LVL85:
 1641              	.LFB33:
 754:../../Source/Platform/A7A/rme_platform_a7a.c **** /* End Function:_RME_A7A_SGI_Handler ****************************************/
 755:../../Source/Platform/A7A/rme_platform_a7a.c **** 
 756:../../Source/Platform/A7A/rme_platform_a7a.c **** /* Function:__RME_A7A_Generic_Handler ****************************************
 757:../../Source/Platform/A7A/rme_platform_a7a.c **** Description : The generic interrupt handler of RME for Cortex-A (ARMv7).
 758:../../Source/Platform/A7A/rme_platform_a7a.c **** Input       : struct RME_Reg_Struct* Reg - The register set when entering the handler.
 759:../../Source/Platform/A7A/rme_platform_a7a.c ****               rme_ptr_t Int_Num - The interrupt number.
 760:../../Source/Platform/A7A/rme_platform_a7a.c **** Output      : struct RME_Reg_Struct* Reg - The register set when exiting the handler.
 761:../../Source/Platform/A7A/rme_platform_a7a.c **** Return      : None.
 762:../../Source/Platform/A7A/rme_platform_a7a.c **** ******************************************************************************/
 763:../../Source/Platform/A7A/rme_platform_a7a.c **** void __RME_A7A_Generic_Handler(struct RME_Reg_Struct* Reg, rme_ptr_t Int_Num)
 764:../../Source/Platform/A7A/rme_platform_a7a.c **** {
 1642              		.loc 1 764 1 is_stmt 1 view -0
 1643              		.cfi_startproc
 1644              		@ args = 0, pretend = 0, frame = 0
 1645              		@ frame_needed = 0, uses_anonymous_args = 0
 765:../../Source/Platform/A7A/rme_platform_a7a.c ****     /* Not handling interrupts */
 766:../../Source/Platform/A7A/rme_platform_a7a.c ****     RME_DBG_S("\r\nGeneral int:");
 1646              		.loc 1 766 5 view .LVU423
 1647 0000 000000E3 		movw	r0, #:lower16:.LC14
 1648              	.LVL86:
 764:../../Source/Platform/A7A/rme_platform_a7a.c ****     /* Not handling interrupts */
 1649              		.loc 1 764 1 is_stmt 0 view .LVU424
 1650 0004 10402DE9 		push	{r4, lr}
 1651              		.cfi_def_cfa_offset 8
 1652              		.cfi_offset 4, -8
 1653              		.cfi_offset 14, -4
 764:../../Source/Platform/A7A/rme_platform_a7a.c ****     /* Not handling interrupts */
 1654              		.loc 1 764 1 view .LVU425
 1655 0008 0140A0E1 		mov	r4, r1
 1656              		.loc 1 766 5 view .LVU426
 1657 000c 000040E3 		movt	r0, #:upper16:.LC14
 1658 0010 FEFFFFEB 		bl	RME_Str_Print
 1659              	.LVL87:
 767:../../Source/Platform/A7A/rme_platform_a7a.c ****     RME_DBG_I(Int_Num);
 1660              		.loc 1 767 5 is_stmt 1 view .LVU427
 1661 0014 0400A0E1 		mov	r0, r4
 768:../../Source/Platform/A7A/rme_platform_a7a.c **** 
ARM GAS  C:\Users\even\AppData\Local\Temp\cckwnfBT.s 			page 47


 769:../../Source/Platform/A7A/rme_platform_a7a.c ****     /* Not handling anything */
 770:../../Source/Platform/A7A/rme_platform_a7a.c ****     switch(Int_Num)
 771:../../Source/Platform/A7A/rme_platform_a7a.c ****     {
 772:../../Source/Platform/A7A/rme_platform_a7a.c ****         default:break;
 773:../../Source/Platform/A7A/rme_platform_a7a.c ****     }
 774:../../Source/Platform/A7A/rme_platform_a7a.c ****     /* Remember to perform context switch after any kernel sends */
 775:../../Source/Platform/A7A/rme_platform_a7a.c **** }
 1662              		.loc 1 775 1 is_stmt 0 view .LVU428
 1663 0018 1040BDE8 		pop	{r4, lr}
 1664              		.cfi_restore 14
 1665              		.cfi_restore 4
 1666              		.cfi_def_cfa_offset 0
 1667              	.LVL88:
 767:../../Source/Platform/A7A/rme_platform_a7a.c ****     RME_DBG_I(Int_Num);
 1668              		.loc 1 767 5 view .LVU429
 1669 001c FEFFFFEA 		b	RME_Int_Print
 1670              	.LVL89:
 767:../../Source/Platform/A7A/rme_platform_a7a.c ****     RME_DBG_I(Int_Num);
 1671              		.loc 1 767 5 view .LVU430
 1672              		.cfi_endproc
 1673              	.LFE33:
 1675              		.section	.text.__RME_Pgt_Set,"ax",%progbits
 1676              		.align	2
 1677              		.global	__RME_Pgt_Set
 1678              		.syntax unified
 1679              		.arm
 1681              	__RME_Pgt_Set:
 1682              	.LVL90:
 1683              	.LFB34:
 776:../../Source/Platform/A7A/rme_platform_a7a.c **** /* End Function:__RME_A7A_Generic_Handler ***********************************/
 777:../../Source/Platform/A7A/rme_platform_a7a.c **** 
 778:../../Source/Platform/A7A/rme_platform_a7a.c **** /* Function:__RME_Pgt_Set ***************************************************
 779:../../Source/Platform/A7A/rme_platform_a7a.c **** Description : Set the processor's page table.
 780:../../Source/Platform/A7A/rme_platform_a7a.c **** Input       : rme_ptr_t Pgt - The virtual address of the page table.
 781:../../Source/Platform/A7A/rme_platform_a7a.c **** Output      : None.
 782:../../Source/Platform/A7A/rme_platform_a7a.c **** Return      : None.
 783:../../Source/Platform/A7A/rme_platform_a7a.c **** ******************************************************************************/
 784:../../Source/Platform/A7A/rme_platform_a7a.c **** void __RME_Pgt_Set(rme_ptr_t Pgt)
 785:../../Source/Platform/A7A/rme_platform_a7a.c **** {
 1684              		.loc 1 785 1 is_stmt 1 view -0
 1685              		.cfi_startproc
 1686              		@ args = 0, pretend = 0, frame = 0
 1687              		@ frame_needed = 0, uses_anonymous_args = 0
 1688              		@ link register save eliminated.
 786:../../Source/Platform/A7A/rme_platform_a7a.c **** 
 787:../../Source/Platform/A7A/rme_platform_a7a.c **** }
 1689              		.loc 1 787 1 view .LVU432
 1690 0000 1EFF2FE1 		bx	lr
 1691              		.cfi_endproc
 1692              	.LFE34:
 1694              		.section	.text.__RME_Pgt_Check,"ax",%progbits
 1695              		.align	2
 1696              		.global	__RME_Pgt_Check
 1697              		.syntax unified
 1698              		.arm
 1700              	__RME_Pgt_Check:
 1701              	.LVL91:
ARM GAS  C:\Users\even\AppData\Local\Temp\cckwnfBT.s 			page 48


 1702              	.LFB35:
 788:../../Source/Platform/A7A/rme_platform_a7a.c **** /* End Function:__RME_Pgt_Set **********************************************/
 789:../../Source/Platform/A7A/rme_platform_a7a.c **** 
 790:../../Source/Platform/A7A/rme_platform_a7a.c **** /* Function:__RME_Pgt_Check *************************************************
 791:../../Source/Platform/A7A/rme_platform_a7a.c **** Description : Check if the page table parameters are feasible, according to the
 792:../../Source/Platform/A7A/rme_platform_a7a.c ****               parameters. This is only used in page table creation. The following
 793:../../Source/Platform/A7A/rme_platform_a7a.c ****               restrictions apply:
 794:../../Source/Platform/A7A/rme_platform_a7a.c **** 1. PAE is not supported by this port: if you have that much memory, use the Cortex-A
 795:../../Source/Platform/A7A/rme_platform_a7a.c ****    64-bit port instead. The translation scheme here is always:
 796:../../Source/Platform/A7A/rme_platform_a7a.c ****    4GB VA -> {Supersection, Section} -> {Large Page, Small Page}.
 797:../../Source/Platform/A7A/rme_platform_a7a.c ****    The supersection is described in ARMv7-AR ARM as optional, but is implemented on
 798:../../Source/Platform/A7A/rme_platform_a7a.c ****    all known ARMv7-A processors.
 799:../../Source/Platform/A7A/rme_platform_a7a.c ****    We only user TTBR0 here and we set value N to 0 as always. Using TTBR1 is nonsense
 800:../../Source/Platform/A7A/rme_platform_a7a.c ****    in our context, as it gives little benefit.
 801:../../Source/Platform/A7A/rme_platform_a7a.c **** 2. The ARM page tables have idiosyncrasy that allow two page size mappings to exist
 802:../../Source/Platform/A7A/rme_platform_a7a.c ****    in the same page table.
 803:../../Source/Platform/A7A/rme_platform_a7a.c **** 3. ARM page tables use repetition when it comes to supersections and large pages.
 804:../../Source/Platform/A7A/rme_platform_a7a.c ****    This breaks our numorder-sizeorder assumption, and for this reason, we do not
 805:../../Source/Platform/A7A/rme_platform_a7a.c ****    support these two page sizes explicitly. These two sizes are supported by kernel
 806:../../Source/Platform/A7A/rme_platform_a7a.c ****    functions instead, and the kernel function always maps/unmaps the pages as needed
 807:../../Source/Platform/A7A/rme_platform_a7a.c ****    without checking for any permissions; this can be viewed as a hack, and require
 808:../../Source/Platform/A7A/rme_platform_a7a.c ****    some caution when we are mapping pages in.
 809:../../Source/Platform/A7A/rme_platform_a7a.c **** Input       : rme_ptr_t Start_Addr - The start mapping address.
 810:../../Source/Platform/A7A/rme_platform_a7a.c ****               rme_ptr_t Is_Top - The top-level flag,
 811:../../Source/Platform/A7A/rme_platform_a7a.c ****               rme_ptr_t Size_Order - The size order of the page directory.
 812:../../Source/Platform/A7A/rme_platform_a7a.c ****               rme_ptr_t Num_Order - The number order of the page directory.
 813:../../Source/Platform/A7A/rme_platform_a7a.c ****               rme_ptr_t Vaddr - The virtual address of the page directory.
 814:../../Source/Platform/A7A/rme_platform_a7a.c **** Output      : None.
 815:../../Source/Platform/A7A/rme_platform_a7a.c **** Return      : rme_ptr_t - If successful, 0; else RME_ERR_HAL_FAIL.
 816:../../Source/Platform/A7A/rme_platform_a7a.c **** ******************************************************************************/
 817:../../Source/Platform/A7A/rme_platform_a7a.c **** rme_ptr_t __RME_Pgt_Check(rme_ptr_t Start_Addr, rme_ptr_t Is_Top,
 818:../../Source/Platform/A7A/rme_platform_a7a.c ****                             rme_ptr_t Size_Order, rme_ptr_t Num_Order, rme_ptr_t Vaddr)
 819:../../Source/Platform/A7A/rme_platform_a7a.c **** {
 1703              		.loc 1 819 1 view -0
 1704              		.cfi_startproc
 1705              		@ args = 4, pretend = 0, frame = 0
 1706              		@ frame_needed = 0, uses_anonymous_args = 0
 1707              		@ link register save eliminated.
 820:../../Source/Platform/A7A/rme_platform_a7a.c ****     /* Top-level - 1MB pages, 4096 entries, 16kB alignment */
 821:../../Source/Platform/A7A/rme_platform_a7a.c ****     if(Is_Top!=0)
 1708              		.loc 1 821 5 view .LVU434
 1709              		.loc 1 821 7 is_stmt 0 view .LVU435
 1710 0000 000051E3 		cmp	r1, #0
 1711 0004 0A00000A 		beq	.L98
 822:../../Source/Platform/A7A/rme_platform_a7a.c ****     {
 823:../../Source/Platform/A7A/rme_platform_a7a.c ****         if(Size_Order!=RME_PGT_SIZE_1M)
 1712              		.loc 1 823 9 is_stmt 1 view .LVU436
 824:../../Source/Platform/A7A/rme_platform_a7a.c ****             return RME_ERR_HAL_FAIL;
 825:../../Source/Platform/A7A/rme_platform_a7a.c ****         if(Num_Order!=RME_PGT_NUM_4K)
 1713              		.loc 1 825 9 view .LVU437
 1714              		.loc 1 825 11 is_stmt 0 view .LVU438
 1715 0008 140052E3 		cmp	r2, #20
 1716 000c 0C005303 		cmpeq	r3, #12
 1717 0010 0100000A 		beq	.L102
 1718              	.L101:
 826:../../Source/Platform/A7A/rme_platform_a7a.c ****             return RME_ERR_HAL_FAIL;
 1719              		.loc 1 826 20 view .LVU439
ARM GAS  C:\Users\even\AppData\Local\Temp\cckwnfBT.s 			page 49


 1720 0014 0000E0E3 		mvn	r0, #0
 1721              	.LVL92:
 827:../../Source/Platform/A7A/rme_platform_a7a.c ****         if((Vaddr&0x3FFF)!=0)
 828:../../Source/Platform/A7A/rme_platform_a7a.c ****             return RME_ERR_HAL_FAIL;
 829:../../Source/Platform/A7A/rme_platform_a7a.c ****     }
 830:../../Source/Platform/A7A/rme_platform_a7a.c ****     /* Second-level - 1MB pages, 4096 entries, 16kB alignment */
 831:../../Source/Platform/A7A/rme_platform_a7a.c ****     else
 832:../../Source/Platform/A7A/rme_platform_a7a.c ****     {
 833:../../Source/Platform/A7A/rme_platform_a7a.c ****         if(Size_Order!=RME_PGT_SIZE_64K)
 834:../../Source/Platform/A7A/rme_platform_a7a.c ****             return RME_ERR_HAL_FAIL;
 835:../../Source/Platform/A7A/rme_platform_a7a.c ****         if(Num_Order!=RME_PGT_NUM_1K)
 836:../../Source/Platform/A7A/rme_platform_a7a.c ****             return RME_ERR_HAL_FAIL;
 837:../../Source/Platform/A7A/rme_platform_a7a.c ****         if((Vaddr&0x3FF)!=0)
 838:../../Source/Platform/A7A/rme_platform_a7a.c ****             return RME_ERR_HAL_FAIL;
 839:../../Source/Platform/A7A/rme_platform_a7a.c ****     }
 840:../../Source/Platform/A7A/rme_platform_a7a.c **** 
 841:../../Source/Platform/A7A/rme_platform_a7a.c ****     return 0;
 842:../../Source/Platform/A7A/rme_platform_a7a.c **** }
 1722              		.loc 1 842 1 view .LVU440
 1723 0018 1EFF2FE1 		bx	lr
 1724              	.LVL93:
 1725              	.L102:
 827:../../Source/Platform/A7A/rme_platform_a7a.c ****         if((Vaddr&0x3FFF)!=0)
 1726              		.loc 1 827 9 is_stmt 1 view .LVU441
 827:../../Source/Platform/A7A/rme_platform_a7a.c ****         if((Vaddr&0x3FFF)!=0)
 1727              		.loc 1 827 18 is_stmt 0 view .LVU442
 1728 001c 00309DE5 		ldr	r3, [sp]
 1729              	.LVL94:
 827:../../Source/Platform/A7A/rme_platform_a7a.c ****         if((Vaddr&0x3FFF)!=0)
 1730              		.loc 1 827 18 view .LVU443
 1731 0020 5300EDE7 		ubfx	r0, r3, #0, #14
 1732              	.LVL95:
 827:../../Source/Platform/A7A/rme_platform_a7a.c ****         if((Vaddr&0x3FFF)!=0)
 1733              		.loc 1 827 11 view .LVU444
 1734 0024 000050E2 		subs	r0, r0, #0
 1735 0028 0100A013 		movne	r0, #1
 1736 002c 000060E2 		rsb	r0, r0, #0
 1737 0030 1EFF2FE1 		bx	lr
 1738              	.LVL96:
 1739              	.L98:
 833:../../Source/Platform/A7A/rme_platform_a7a.c ****             return RME_ERR_HAL_FAIL;
 1740              		.loc 1 833 9 is_stmt 1 view .LVU445
 835:../../Source/Platform/A7A/rme_platform_a7a.c ****             return RME_ERR_HAL_FAIL;
 1741              		.loc 1 835 9 view .LVU446
 835:../../Source/Platform/A7A/rme_platform_a7a.c ****             return RME_ERR_HAL_FAIL;
 1742              		.loc 1 835 11 is_stmt 0 view .LVU447
 1743 0034 100052E3 		cmp	r2, #16
 1744 0038 0A005303 		cmpeq	r3, #10
 1745 003c F4FFFF1A 		bne	.L101
 837:../../Source/Platform/A7A/rme_platform_a7a.c ****             return RME_ERR_HAL_FAIL;
 1746              		.loc 1 837 9 is_stmt 1 view .LVU448
 837:../../Source/Platform/A7A/rme_platform_a7a.c ****             return RME_ERR_HAL_FAIL;
 1747              		.loc 1 837 18 is_stmt 0 view .LVU449
 1748 0040 00309DE5 		ldr	r3, [sp]
 1749              	.LVL97:
 837:../../Source/Platform/A7A/rme_platform_a7a.c ****             return RME_ERR_HAL_FAIL;
 1750              		.loc 1 837 18 view .LVU450
ARM GAS  C:\Users\even\AppData\Local\Temp\cckwnfBT.s 			page 50


 1751 0044 5300E9E7 		ubfx	r0, r3, #0, #10
 1752              	.LVL98:
 837:../../Source/Platform/A7A/rme_platform_a7a.c ****             return RME_ERR_HAL_FAIL;
 1753              		.loc 1 837 11 view .LVU451
 1754 0048 000050E2 		subs	r0, r0, #0
 1755 004c 0100A013 		movne	r0, #1
 1756 0050 000060E2 		rsb	r0, r0, #0
 1757 0054 1EFF2FE1 		bx	lr
 1758              		.cfi_endproc
 1759              	.LFE35:
 1761              		.section	.text.__RME_Pgt_Init,"ax",%progbits
 1762              		.align	2
 1763              		.global	__RME_Pgt_Init
 1764              		.syntax unified
 1765              		.arm
 1767              	__RME_Pgt_Init:
 1768              	.LVL99:
 1769              	.LFB36:
 843:../../Source/Platform/A7A/rme_platform_a7a.c **** /* End Function:__RME_Pgt_Check ********************************************/
 844:../../Source/Platform/A7A/rme_platform_a7a.c **** 
 845:../../Source/Platform/A7A/rme_platform_a7a.c **** /* Function:__RME_Pgt_Init **************************************************
 846:../../Source/Platform/A7A/rme_platform_a7a.c **** Description : Initialize the page table data structure, according to the capability.
 847:../../Source/Platform/A7A/rme_platform_a7a.c **** Input       : struct RME_Cap_Pgt* - The capability to the page table to operate on.
 848:../../Source/Platform/A7A/rme_platform_a7a.c **** Output      : None.
 849:../../Source/Platform/A7A/rme_platform_a7a.c **** Return      : rme_ptr_t - If successful, 0; else RME_ERR_HAL_FAIL.
 850:../../Source/Platform/A7A/rme_platform_a7a.c **** ******************************************************************************/
 851:../../Source/Platform/A7A/rme_platform_a7a.c **** rme_ptr_t __RME_Pgt_Init(struct RME_Cap_Pgt* Pgt_Op)
 852:../../Source/Platform/A7A/rme_platform_a7a.c **** {
 1770              		.loc 1 852 1 is_stmt 1 view -0
 1771              		.cfi_startproc
 1772              		@ args = 0, pretend = 0, frame = 0
 1773              		@ frame_needed = 0, uses_anonymous_args = 0
 1774              		@ link register save eliminated.
 853:../../Source/Platform/A7A/rme_platform_a7a.c **** #if 0
 854:../../Source/Platform/A7A/rme_platform_a7a.c ****     rme_cnt_t Count;
 855:../../Source/Platform/A7A/rme_platform_a7a.c ****     rme_ptr_t* Ptr;
 856:../../Source/Platform/A7A/rme_platform_a7a.c **** 
 857:../../Source/Platform/A7A/rme_platform_a7a.c ****     /* Get the actual table */
 858:../../Source/Platform/A7A/rme_platform_a7a.c ****     //Ptr=RME_CAP_GETOBJ(Pgt_Op,rme_ptr_t*);
 859:../../Source/Platform/A7A/rme_platform_a7a.c **** 
 860:../../Source/Platform/A7A/rme_platform_a7a.c ****     /* Is this a first-level or a second-level? */
 861:../../Source/Platform/A7A/rme_platform_a7a.c ****     if((Pgt_Op->Start_Addr&RME_PGT_TOP)!=0)
 862:../../Source/Platform/A7A/rme_platform_a7a.c ****     {
 863:../../Source/Platform/A7A/rme_platform_a7a.c ****     	/* First-level - clean up the first half and map in the second half as kernel entries */
 864:../../Source/Platform/A7A/rme_platform_a7a.c **** 		for(Count=0;Count<2048;Count++)
 865:../../Source/Platform/A7A/rme_platform_a7a.c **** 			Ptr[Count]=0;
 866:../../Source/Platform/A7A/rme_platform_a7a.c **** 
 867:../../Source/Platform/A7A/rme_platform_a7a.c **** 		for(;Count<4096;Count++)
 868:../../Source/Platform/A7A/rme_platform_a7a.c **** 			Ptr[Count]=(&__RME_A7A_Kern_Pgt)[Count];
 869:../../Source/Platform/A7A/rme_platform_a7a.c ****     }
 870:../../Source/Platform/A7A/rme_platform_a7a.c ****     else
 871:../../Source/Platform/A7A/rme_platform_a7a.c ****     {
 872:../../Source/Platform/A7A/rme_platform_a7a.c ****     	/* Second-level - just clean it up to all zeros */
 873:../../Source/Platform/A7A/rme_platform_a7a.c **** 		for(Count=0;Count<256;Count++)
 874:../../Source/Platform/A7A/rme_platform_a7a.c **** 			Ptr[Count]=0;
 875:../../Source/Platform/A7A/rme_platform_a7a.c ****     }
 876:../../Source/Platform/A7A/rme_platform_a7a.c **** 
ARM GAS  C:\Users\even\AppData\Local\Temp\cckwnfBT.s 			page 51


 877:../../Source/Platform/A7A/rme_platform_a7a.c ****     RME_A7A_PGREG_POS(Ptr).Parent_Cnt=0;
 878:../../Source/Platform/A7A/rme_platform_a7a.c ****     RME_A7A_PGREG_POS(Ptr).ASID_Child_Cnt=0;
 879:../../Source/Platform/A7A/rme_platform_a7a.c ****     return 0;
 880:../../Source/Platform/A7A/rme_platform_a7a.c **** #endif
 881:../../Source/Platform/A7A/rme_platform_a7a.c **** }
 1775              		.loc 1 881 1 view .LVU453
 1776              	.LVL100:
 1777              		.loc 1 881 1 is_stmt 0 view .LVU454
 1778 0000 1EFF2FE1 		bx	lr
 1779              		.cfi_endproc
 1780              	.LFE36:
 1782              		.section	.text.__RME_Pgt_Del_Check,"ax",%progbits
 1783              		.align	2
 1784              		.global	__RME_Pgt_Del_Check
 1785              		.syntax unified
 1786              		.arm
 1788              	__RME_Pgt_Del_Check:
 1789              	.LFB57:
 1790              		.cfi_startproc
 1791              		@ args = 0, pretend = 0, frame = 0
 1792              		@ frame_needed = 0, uses_anonymous_args = 0
 1793              		@ link register save eliminated.
 1794 0000 0000A0E3 		mov	r0, #0
 1795 0004 1EFF2FE1 		bx	lr
 1796              		.cfi_endproc
 1797              	.LFE57:
 1799              		.section	.text.__RME_Pgt_Page_Map,"ax",%progbits
 1800              		.align	2
 1801              		.global	__RME_Pgt_Page_Map
 1802              		.syntax unified
 1803              		.arm
 1805              	__RME_Pgt_Page_Map:
 1806              	.LVL101:
 1807              	.LFB38:
 882:../../Source/Platform/A7A/rme_platform_a7a.c **** /* End Function:__RME_Pgt_Init *********************************************/
 883:../../Source/Platform/A7A/rme_platform_a7a.c **** 
 884:../../Source/Platform/A7A/rme_platform_a7a.c **** /* Function:__RME_Pgt_Del_Check *********************************************
 885:../../Source/Platform/A7A/rme_platform_a7a.c **** Description : Check if the page table can be deleted.
 886:../../Source/Platform/A7A/rme_platform_a7a.c **** Input       : struct RME_Cap_Pgt Pgt_Op* - The capability to the page table to operate on.
 887:../../Source/Platform/A7A/rme_platform_a7a.c **** Output      : None.
 888:../../Source/Platform/A7A/rme_platform_a7a.c **** Return      : rme_ptr_t - If can be deleted, 0; else RME_ERR_HAL_FAIL.
 889:../../Source/Platform/A7A/rme_platform_a7a.c **** ******************************************************************************/
 890:../../Source/Platform/A7A/rme_platform_a7a.c **** rme_ptr_t __RME_Pgt_Del_Check(struct RME_Cap_Pgt* Pgt_Op)
 891:../../Source/Platform/A7A/rme_platform_a7a.c **** {
 892:../../Source/Platform/A7A/rme_platform_a7a.c ****     #if 0
 893:../../Source/Platform/A7A/rme_platform_a7a.c ****     rme_ptr_t* Table;
 894:../../Source/Platform/A7A/rme_platform_a7a.c **** 
 895:../../Source/Platform/A7A/rme_platform_a7a.c ****     Table=RME_CAP_GETOBJ(Pgt_Op,rme_ptr_t*);
 896:../../Source/Platform/A7A/rme_platform_a7a.c **** 
 897:../../Source/Platform/A7A/rme_platform_a7a.c ****     /* See if this is a top-level. If yes, we only check child count */
 898:../../Source/Platform/A7A/rme_platform_a7a.c ****     if((Pgt_Op->Start_Addr&RME_PGT_TOP)!=0)
 899:../../Source/Platform/A7A/rme_platform_a7a.c ****     {
 900:../../Source/Platform/A7A/rme_platform_a7a.c ****     	if(((RME_A7A_PGREG_POS(Table).ASID_Child_Cnt)&0xFFFF)==0)
 901:../../Source/Platform/A7A/rme_platform_a7a.c ****     		return 0;
 902:../../Source/Platform/A7A/rme_platform_a7a.c ****     }
 903:../../Source/Platform/A7A/rme_platform_a7a.c ****     else
 904:../../Source/Platform/A7A/rme_platform_a7a.c ****     {
ARM GAS  C:\Users\even\AppData\Local\Temp\cckwnfBT.s 			page 52


 905:../../Source/Platform/A7A/rme_platform_a7a.c ****     	/* Must be the second-level. We only check parent count because it can't have child anymore */
 906:../../Source/Platform/A7A/rme_platform_a7a.c ****     	if(RME_A7A_PGREG_POS(Table).Parent_Cnt==0)
 907:../../Source/Platform/A7A/rme_platform_a7a.c ****     	        return 0;
 908:../../Source/Platform/A7A/rme_platform_a7a.c ****     }
 909:../../Source/Platform/A7A/rme_platform_a7a.c **** 
 910:../../Source/Platform/A7A/rme_platform_a7a.c ****     return RME_ERR_HAL_FAIL;
 911:../../Source/Platform/A7A/rme_platform_a7a.c ****     #endif
 912:../../Source/Platform/A7A/rme_platform_a7a.c **** }
 913:../../Source/Platform/A7A/rme_platform_a7a.c **** /* End Function:__RME_Pgt_Del_Check ****************************************/
 914:../../Source/Platform/A7A/rme_platform_a7a.c **** 
 915:../../Source/Platform/A7A/rme_platform_a7a.c **** /* Function:__RME_Pgt_Page_Map **********************************************
 916:../../Source/Platform/A7A/rme_platform_a7a.c **** Description : Map a page into the page table. This architecture requires that the
 917:../../Source/Platform/A7A/rme_platform_a7a.c ****               mapping is always at least readable. The Cortex-A's super pages are
 918:../../Source/Platform/A7A/rme_platform_a7a.c ****               not supported by this. Also, RME dfoesn't use the domain model; all
 919:../../Source/Platform/A7A/rme_platform_a7a.c ****               page tables' domain is always client, which means that the permission
 920:../../Source/Platform/A7A/rme_platform_a7a.c ****               flags will always be checked.
 921:../../Source/Platform/A7A/rme_platform_a7a.c **** Input       : struct RME_Cap_Pgt* - The cap ability to the page table to operate on.
 922:../../Source/Platform/A7A/rme_platform_a7a.c ****               rme_ptr_t Paddr - The physical address to map to. If we are unmapping,
 923:../../Source/Platform/A7A/rme_platform_a7a.c ****                                 this have no effect.
 924:../../Source/Platform/A7A/rme_platform_a7a.c ****               rme_ptr_t Pos - The position in the page table.
 925:../../Source/Platform/A7A/rme_platform_a7a.c ****               rme_ptr_t Flags - The RME standard page attributes. Need to translate
 926:../../Source/Platform/A7A/rme_platform_a7a.c ****                                 them into architecture specific page table's settings.
 927:../../Source/Platform/A7A/rme_platform_a7a.c **** Output      : None.
 928:../../Source/Platform/A7A/rme_platform_a7a.c **** Return      : rme_ptr_t - If successful, 0; else RME_ERR_HAL_FAIL.
 929:../../Source/Platform/A7A/rme_platform_a7a.c **** ******************************************************************************/
 930:../../Source/Platform/A7A/rme_platform_a7a.c **** rme_ptr_t __RME_Pgt_Page_Map(struct RME_Cap_Pgt* Pgt_Op, rme_ptr_t Paddr, rme_ptr_t Pos, rme_ptr_t 
 931:../../Source/Platform/A7A/rme_platform_a7a.c **** {
 1808              		.loc 1 931 1 is_stmt 1 view -0
 1809              		.cfi_startproc
 1810              		@ args = 0, pretend = 0, frame = 0
 1811              		@ frame_needed = 0, uses_anonymous_args = 0
 1812              		@ link register save eliminated.
 932:../../Source/Platform/A7A/rme_platform_a7a.c ****     #if 0
 933:../../Source/Platform/A7A/rme_platform_a7a.c ****     rme_ptr_t* Table;
 934:../../Source/Platform/A7A/rme_platform_a7a.c ****     rme_ptr_t A7A_Flags;
 935:../../Source/Platform/A7A/rme_platform_a7a.c **** 
 936:../../Source/Platform/A7A/rme_platform_a7a.c ****     /* It should at least be readable */
 937:../../Source/Platform/A7A/rme_platform_a7a.c ****     if((Flags&RME_PGT_READ)==0)
 938:../../Source/Platform/A7A/rme_platform_a7a.c ****         return RME_ERR_HAL_FAIL;
 939:../../Source/Platform/A7A/rme_platform_a7a.c **** 
 940:../../Source/Platform/A7A/rme_platform_a7a.c ****     /* Are we trying to map into the kernel space on the top level? */
 941:../../Source/Platform/A7A/rme_platform_a7a.c ****     if(((Pgt_Op->Start_Addr&RME_PGT_TOP)!=0)&&(Pos>=2048))
 942:../../Source/Platform/A7A/rme_platform_a7a.c ****         return RME_ERR_HAL_FAIL;
 943:../../Source/Platform/A7A/rme_platform_a7a.c **** 
 944:../../Source/Platform/A7A/rme_platform_a7a.c ****     /* Get the table */
 945:../../Source/Platform/A7A/rme_platform_a7a.c ****     Table=RME_CAP_GETOBJ(Pgt_Op,rme_ptr_t*);
 946:../../Source/Platform/A7A/rme_platform_a7a.c **** 
 947:../../Source/Platform/A7A/rme_platform_a7a.c ****     /* Generate flags */
 948:../../Source/Platform/A7A/rme_platform_a7a.c ****     if(RME_PGT_SIZEORD(Pgt_Op->Size_Num_Order)==RME_PGT_SIZE_4K)
 949:../../Source/Platform/A7A/rme_platform_a7a.c ****         A7A_Flags=RME_A7A_MMU_1M_PAGE_ADDR(Paddr)|RME_A7A_PGFLG_1M_RME2NAT(Flags);
 950:../../Source/Platform/A7A/rme_platform_a7a.c ****     else
 951:../../Source/Platform/A7A/rme_platform_a7a.c ****         A7A_Flags=RME_A7A_MMU_4K_PAGE_ADDR(Paddr)|RME_A7A_PGFLG_4K_RME2NAT(Flags);
 952:../../Source/Platform/A7A/rme_platform_a7a.c **** 
 953:../../Source/Platform/A7A/rme_platform_a7a.c ****     /* Try to map it in */
 954:../../Source/Platform/A7A/rme_platform_a7a.c ****     if(RME_COMP_SWAP(&(Table[Pos]),0,A7A_Flags)==0)
 955:../../Source/Platform/A7A/rme_platform_a7a.c ****         return RME_ERR_HAL_FAIL;
 956:../../Source/Platform/A7A/rme_platform_a7a.c **** 
ARM GAS  C:\Users\even\AppData\Local\Temp\cckwnfBT.s 			page 53


 957:../../Source/Platform/A7A/rme_platform_a7a.c ****     return 0;
 958:../../Source/Platform/A7A/rme_platform_a7a.c ****     #endif
 959:../../Source/Platform/A7A/rme_platform_a7a.c **** }
 1813              		.loc 1 959 1 view .LVU456
 1814              	.LVL102:
 1815              		.loc 1 959 1 is_stmt 0 view .LVU457
 1816 0000 1EFF2FE1 		bx	lr
 1817              		.cfi_endproc
 1818              	.LFE38:
 1820              		.section	.text.__RME_Pgt_Page_Unmap,"ax",%progbits
 1821              		.align	2
 1822              		.global	__RME_Pgt_Page_Unmap
 1823              		.syntax unified
 1824              		.arm
 1826              	__RME_Pgt_Page_Unmap:
 1827              	.LVL103:
 1828              	.LFB39:
 960:../../Source/Platform/A7A/rme_platform_a7a.c **** /* End Function:__RME_Pgt_Page_Map *****************************************/
 961:../../Source/Platform/A7A/rme_platform_a7a.c **** 
 962:../../Source/Platform/A7A/rme_platform_a7a.c **** /* Function:__RME_Pgt_Page_Unmap ********************************************
 963:../../Source/Platform/A7A/rme_platform_a7a.c **** Description : Unmap a page from the page table.
 964:../../Source/Platform/A7A/rme_platform_a7a.c **** Input       : struct RME_Cap_Pgt* - The capability to the page table to operate on.
 965:../../Source/Platform/A7A/rme_platform_a7a.c ****               rme_ptr_t Pos - The position in the page table.
 966:../../Source/Platform/A7A/rme_platform_a7a.c **** Output      : None.
 967:../../Source/Platform/A7A/rme_platform_a7a.c **** Return      : rme_ptr_t - If successful, 0; else RME_ERR_HAL_FAIL.
 968:../../Source/Platform/A7A/rme_platform_a7a.c **** ******************************************************************************/
 969:../../Source/Platform/A7A/rme_platform_a7a.c **** rme_ptr_t __RME_Pgt_Page_Unmap(struct RME_Cap_Pgt* Pgt_Op, rme_ptr_t Pos)
 970:../../Source/Platform/A7A/rme_platform_a7a.c **** {
 1829              		.loc 1 970 1 is_stmt 1 view -0
 1830              		.cfi_startproc
 1831              		@ args = 0, pretend = 0, frame = 0
 1832              		@ frame_needed = 0, uses_anonymous_args = 0
 1833              		@ link register save eliminated.
 971:../../Source/Platform/A7A/rme_platform_a7a.c ****     #if 0
 972:../../Source/Platform/A7A/rme_platform_a7a.c ****     rme_ptr_t* Table;
 973:../../Source/Platform/A7A/rme_platform_a7a.c ****     rme_ptr_t Temp;
 974:../../Source/Platform/A7A/rme_platform_a7a.c **** 
 975:../../Source/Platform/A7A/rme_platform_a7a.c ****     /* Are we trying to unmap the kernel space on the top level? */
 976:../../Source/Platform/A7A/rme_platform_a7a.c ****     if(((Pgt_Op->Start_Addr&RME_PGT_TOP)!=0)&&(Pos>=2048))
 977:../../Source/Platform/A7A/rme_platform_a7a.c ****         return RME_ERR_HAL_FAIL;
 978:../../Source/Platform/A7A/rme_platform_a7a.c **** 
 979:../../Source/Platform/A7A/rme_platform_a7a.c ****     /* Get the table */
 980:../../Source/Platform/A7A/rme_platform_a7a.c ****     Table=RME_CAP_GETOBJ(Pgt_Op,rme_ptr_t*);
 981:../../Source/Platform/A7A/rme_platform_a7a.c **** 
 982:../../Source/Platform/A7A/rme_platform_a7a.c ****     /* Make sure that there is something */
 983:../../Source/Platform/A7A/rme_platform_a7a.c ****     Temp=Table[Pos];
 984:../../Source/Platform/A7A/rme_platform_a7a.c ****     if(Temp==0)
 985:../../Source/Platform/A7A/rme_platform_a7a.c ****         return RME_ERR_HAL_FAIL;
 986:../../Source/Platform/A7A/rme_platform_a7a.c **** 
 987:../../Source/Platform/A7A/rme_platform_a7a.c ****     /* Is this a page directory? We cannot unmap page directories like this */
 988:../../Source/Platform/A7A/rme_platform_a7a.c ****     if((RME_PGT_SIZEORD(Pgt_Op->Size_Num_Order)!=RME_PGT_SIZE_4K)&&((Temp&RME_A7A_MMU_1M_PGDIR_PRES
 989:../../Source/Platform/A7A/rme_platform_a7a.c ****         return RME_ERR_HAL_FAIL;
 990:../../Source/Platform/A7A/rme_platform_a7a.c **** 
 991:../../Source/Platform/A7A/rme_platform_a7a.c ****     /* Try to unmap it. Use CAS just in case */
 992:../../Source/Platform/A7A/rme_platform_a7a.c ****     if(RME_COMP_SWAP(&(Table[Pos]),Temp,0)==0)
 993:../../Source/Platform/A7A/rme_platform_a7a.c ****         return RME_ERR_HAL_FAIL;
 994:../../Source/Platform/A7A/rme_platform_a7a.c **** 
ARM GAS  C:\Users\even\AppData\Local\Temp\cckwnfBT.s 			page 54


 995:../../Source/Platform/A7A/rme_platform_a7a.c ****     return 0;
 996:../../Source/Platform/A7A/rme_platform_a7a.c ****     #endif
 997:../../Source/Platform/A7A/rme_platform_a7a.c **** }
 1834              		.loc 1 997 1 view .LVU459
 1835              	.LVL104:
 1836              		.loc 1 997 1 is_stmt 0 view .LVU460
 1837 0000 1EFF2FE1 		bx	lr
 1838              		.cfi_endproc
 1839              	.LFE39:
 1841              		.section	.text.__RME_Pgt_Pgdir_Map,"ax",%progbits
 1842              		.align	2
 1843              		.global	__RME_Pgt_Pgdir_Map
 1844              		.syntax unified
 1845              		.arm
 1847              	__RME_Pgt_Pgdir_Map:
 1848              	.LVL105:
 1849              	.LFB40:
 998:../../Source/Platform/A7A/rme_platform_a7a.c **** /* End Function:__RME_Pgt_Page_Unmap ***************************************/
 999:../../Source/Platform/A7A/rme_platform_a7a.c **** 
1000:../../Source/Platform/A7A/rme_platform_a7a.c **** /* Function:__RME_Pgt_Pgdir_Map *********************************************
1001:../../Source/Platform/A7A/rme_platform_a7a.c **** Description : Map a page directory into the page table. It is surprising that
1002:../../Source/Platform/A7A/rme_platform_a7a.c ****               Cortex-A (ARMv7) does not support any kind of page directory flags.
1003:../../Source/Platform/A7A/rme_platform_a7a.c **** Input       : struct RME_Cap_Pgt* Pgt_Parent - The parent page table.
1004:../../Source/Platform/A7A/rme_platform_a7a.c ****               struct RME_Cap_Pgt* Pgt_Child - The child page table.
1005:../../Source/Platform/A7A/rme_platform_a7a.c ****               rme_ptr_t Pos - The position in the destination page table.
1006:../../Source/Platform/A7A/rme_platform_a7a.c ****               rme_ptr_t Flags - The RME standard flags for the child page table.
1007:../../Source/Platform/A7A/rme_platform_a7a.c **** Output      : None.
1008:../../Source/Platform/A7A/rme_platform_a7a.c **** Return      : rme_ptr_t - If successful, 0; else RME_ERR_HAL_FAIL.
1009:../../Source/Platform/A7A/rme_platform_a7a.c **** ******************************************************************************/
1010:../../Source/Platform/A7A/rme_platform_a7a.c **** rme_ptr_t __RME_Pgt_Pgdir_Map(struct RME_Cap_Pgt* Pgt_Parent, rme_ptr_t Pos,
1011:../../Source/Platform/A7A/rme_platform_a7a.c ****                                 struct RME_Cap_Pgt* Pgt_Child, rme_ptr_t Flags)
1012:../../Source/Platform/A7A/rme_platform_a7a.c **** {
 1850              		.loc 1 1012 1 is_stmt 1 view -0
 1851              		.cfi_startproc
 1852              		@ args = 0, pretend = 0, frame = 0
 1853              		@ frame_needed = 0, uses_anonymous_args = 0
 1854              		@ link register save eliminated.
1013:../../Source/Platform/A7A/rme_platform_a7a.c ****     #if 0
1014:../../Source/Platform/A7A/rme_platform_a7a.c ****     rme_ptr_t* Parent_Table;
1015:../../Source/Platform/A7A/rme_platform_a7a.c ****     rme_ptr_t* Child_Table;
1016:../../Source/Platform/A7A/rme_platform_a7a.c ****     rme_ptr_t A7A_Flags;
1017:../../Source/Platform/A7A/rme_platform_a7a.c **** 
1018:../../Source/Platform/A7A/rme_platform_a7a.c ****     /* It should at least be readable */
1019:../../Source/Platform/A7A/rme_platform_a7a.c ****     if((Flags&RME_PGT_READ)==0)
1020:../../Source/Platform/A7A/rme_platform_a7a.c ****         return RME_ERR_HAL_FAIL;
1021:../../Source/Platform/A7A/rme_platform_a7a.c **** 
1022:../../Source/Platform/A7A/rme_platform_a7a.c ****     /* Are we trying to map into the kernel space on the top level? */
1023:../../Source/Platform/A7A/rme_platform_a7a.c ****     if(((Pgt_Parent->Start_Addr&RME_PGT_TOP)!=0)&&(Pos>=2048))
1024:../../Source/Platform/A7A/rme_platform_a7a.c ****         return RME_ERR_HAL_FAIL;
1025:../../Source/Platform/A7A/rme_platform_a7a.c **** 
1026:../../Source/Platform/A7A/rme_platform_a7a.c ****     /* Get the table */
1027:../../Source/Platform/A7A/rme_platform_a7a.c ****     Parent_Table=RME_CAP_GETOBJ(Pgt_Parent,rme_ptr_t*);
1028:../../Source/Platform/A7A/rme_platform_a7a.c ****     Child_Table=RME_CAP_GETOBJ(Pgt_Child,rme_ptr_t*);
1029:../../Source/Platform/A7A/rme_platform_a7a.c **** 
1030:../../Source/Platform/A7A/rme_platform_a7a.c ****     /* Generate the content */
1031:../../Source/Platform/A7A/rme_platform_a7a.c ****     A7A_Flags=RME_A7A_MMU_1M_PGT_ADDR(RME_A7A_VA2PA(Child_Table))|RME_A7A_MMU_1M_PGDIR_PRESENT;
1032:../../Source/Platform/A7A/rme_platform_a7a.c **** 
ARM GAS  C:\Users\even\AppData\Local\Temp\cckwnfBT.s 			page 55


1033:../../Source/Platform/A7A/rme_platform_a7a.c ****     /* Try to map it in - may need to increase some count */
1034:../../Source/Platform/A7A/rme_platform_a7a.c ****     if(RME_COMP_SWAP(&(Parent_Table[Pos]),0,A7A_Flags)==0)
1035:../../Source/Platform/A7A/rme_platform_a7a.c ****         return RME_ERR_HAL_FAIL;
1036:../../Source/Platform/A7A/rme_platform_a7a.c **** 
1037:../../Source/Platform/A7A/rme_platform_a7a.c ****     /* Map complete, increase reference count for both page tables */
1038:../../Source/Platform/A7A/rme_platform_a7a.c ****     RME_FETCH_ADD((rme_ptr_t*)&(RME_A7A_PGREG_POS(Child_Table).Parent_Cnt),1);
1039:../../Source/Platform/A7A/rme_platform_a7a.c ****     RME_FETCH_ADD((rme_ptr_t*)&(RME_A7A_PGREG_POS(Parent_Table).ASID_Child_Cnt),1);
1040:../../Source/Platform/A7A/rme_platform_a7a.c **** 
1041:../../Source/Platform/A7A/rme_platform_a7a.c ****     return 0;
1042:../../Source/Platform/A7A/rme_platform_a7a.c ****     #endif
1043:../../Source/Platform/A7A/rme_platform_a7a.c **** }
 1855              		.loc 1 1043 1 view .LVU462
 1856              	.LVL106:
 1857              		.loc 1 1043 1 is_stmt 0 view .LVU463
 1858 0000 1EFF2FE1 		bx	lr
 1859              		.cfi_endproc
 1860              	.LFE40:
 1862              		.section	.text.__RME_Pgt_Pgdir_Unmap,"ax",%progbits
 1863              		.align	2
 1864              		.global	__RME_Pgt_Pgdir_Unmap
 1865              		.syntax unified
 1866              		.arm
 1868              	__RME_Pgt_Pgdir_Unmap:
 1869              	.LVL107:
 1870              	.LFB41:
1044:../../Source/Platform/A7A/rme_platform_a7a.c **** /* End Function:__RME_Pgt_Pgdir_Map ****************************************/
1045:../../Source/Platform/A7A/rme_platform_a7a.c **** 
1046:../../Source/Platform/A7A/rme_platform_a7a.c **** /* Function:__RME_Pgt_Pgdir_Unmap *******************************************
1047:../../Source/Platform/A7A/rme_platform_a7a.c **** Description : Unmap a page directory from the page table.
1048:../../Source/Platform/A7A/rme_platform_a7a.c **** Input       : struct RME_Cap_Pgt* Pgt_Op - The page table to operate on.
1049:../../Source/Platform/A7A/rme_platform_a7a.c ****               rme_ptr_t Pos - The position in the page table.
1050:../../Source/Platform/A7A/rme_platform_a7a.c **** Output      : None.
1051:../../Source/Platform/A7A/rme_platform_a7a.c **** Return      : rme_ptr_t - If successful, 0; else RME_ERR_HAL_FAIL.
1052:../../Source/Platform/A7A/rme_platform_a7a.c **** ******************************************************************************/
1053:../../Source/Platform/A7A/rme_platform_a7a.c **** rme_ret_t __RME_Pgt_Pgdir_Unmap(struct RME_Cap_Pgt* Pgt_Parent,rme_ptr_t Pos,
1054:../../Source/Platform/A7A/rme_platform_a7a.c ****                                                struct RME_Cap_Pgt* Pgt_Child)
1055:../../Source/Platform/A7A/rme_platform_a7a.c **** {
 1871              		.loc 1 1055 1 is_stmt 1 view -0
 1872              		.cfi_startproc
 1873              		@ args = 0, pretend = 0, frame = 0
 1874              		@ frame_needed = 0, uses_anonymous_args = 0
 1875              		@ link register save eliminated.
1056:../../Source/Platform/A7A/rme_platform_a7a.c ****    return 0;
 1876              		.loc 1 1056 4 view .LVU465
1057:../../Source/Platform/A7A/rme_platform_a7a.c **** }
 1877              		.loc 1 1057 1 is_stmt 0 view .LVU466
 1878 0000 0000A0E3 		mov	r0, #0
 1879              	.LVL108:
 1880              		.loc 1 1057 1 view .LVU467
 1881 0004 1EFF2FE1 		bx	lr
 1882              		.cfi_endproc
 1883              	.LFE41:
 1885              		.section	.text.__RME_Pgt_Lookup,"ax",%progbits
 1886              		.align	2
 1887              		.global	__RME_Pgt_Lookup
 1888              		.syntax unified
 1889              		.arm
ARM GAS  C:\Users\even\AppData\Local\Temp\cckwnfBT.s 			page 56


 1891              	__RME_Pgt_Lookup:
 1892              	.LVL109:
 1893              	.LFB42:
1058:../../Source/Platform/A7A/rme_platform_a7a.c **** /* End Function:__RME_Pgt_Pgdir_Unmap **************************************/
1059:../../Source/Platform/A7A/rme_platform_a7a.c **** 
1060:../../Source/Platform/A7A/rme_platform_a7a.c **** /* Function:__RME_Pgt_Lookup **************************************************
1061:../../Source/Platform/A7A/rme_platform_a7a.c **** Description : Lookup a page entry in a page directory. This function cannot deal
1062:../../Source/Platform/A7A/rme_platform_a7a.c ****               with large pages and super sections - it is the user's responsibility
1063:../../Source/Platform/A7A/rme_platform_a7a.c ****               to avoid this.
1064:../../Source/Platform/A7A/rme_platform_a7a.c **** Input       : struct RME_Cap_Pgt* Pgt_Op - The page directory to lookup.
1065:../../Source/Platform/A7A/rme_platform_a7a.c ****               rme_ptr_t Pos - The position to look up.
1066:../../Source/Platform/A7A/rme_platform_a7a.c **** Output      : rme_ptr_t* Paddr - The physical address of the page.
1067:../../Source/Platform/A7A/rme_platform_a7a.c ****               rme_ptr_t* Flags - The RME standard flags of the page.
1068:../../Source/Platform/A7A/rme_platform_a7a.c **** Return      : rme_ptr_t - If successful, 0; else RME_ERR_HAL_FAIL.
1069:../../Source/Platform/A7A/rme_platform_a7a.c **** ******************************************************************************/
1070:../../Source/Platform/A7A/rme_platform_a7a.c **** rme_ptr_t __RME_Pgt_Lookup(struct RME_Cap_Pgt* Pgt_Op, rme_ptr_t Pos, rme_ptr_t* Paddr, rme_ptr_t* 
1071:../../Source/Platform/A7A/rme_platform_a7a.c **** {
 1894              		.loc 1 1071 1 is_stmt 1 view -0
 1895              		.cfi_startproc
 1896              		@ args = 0, pretend = 0, frame = 0
 1897              		@ frame_needed = 0, uses_anonymous_args = 0
 1898              		@ link register save eliminated.
1072:../../Source/Platform/A7A/rme_platform_a7a.c ****     #if 0
1073:../../Source/Platform/A7A/rme_platform_a7a.c ****     rme_ptr_t* Table;
1074:../../Source/Platform/A7A/rme_platform_a7a.c ****     rme_ptr_t Temp;
1075:../../Source/Platform/A7A/rme_platform_a7a.c **** 
1076:../../Source/Platform/A7A/rme_platform_a7a.c ****     /* Check if the position is within the range of this page table */
1077:../../Source/Platform/A7A/rme_platform_a7a.c ****     if((Pos>>RME_PGT_NUMORD(Pgt_Op->Size_Num_Order))!=0)
1078:../../Source/Platform/A7A/rme_platform_a7a.c ****         return RME_ERR_HAL_FAIL;
1079:../../Source/Platform/A7A/rme_platform_a7a.c **** 
1080:../../Source/Platform/A7A/rme_platform_a7a.c ****     /* Get the table */
1081:../../Source/Platform/A7A/rme_platform_a7a.c ****     Table=RME_CAP_GETOBJ(Pgt_Op,rme_ptr_t*);
1082:../../Source/Platform/A7A/rme_platform_a7a.c ****     /* Get the position requested - atomic read */
1083:../../Source/Platform/A7A/rme_platform_a7a.c ****     Temp=Table[Pos];
1084:../../Source/Platform/A7A/rme_platform_a7a.c **** 
1085:../../Source/Platform/A7A/rme_platform_a7a.c ****     /* Start lookup - is this a terminal page, or? */
1086:../../Source/Platform/A7A/rme_platform_a7a.c ****     if(RME_PGT_SIZEORD(Pgt_Op->Size_Num_Order)==RME_PGT_SIZE_4K)
1087:../../Source/Platform/A7A/rme_platform_a7a.c ****     {
1088:../../Source/Platform/A7A/rme_platform_a7a.c ****         if((Temp&RME_A7A_MMU_4K_PAGE_PRESENT)==0)
1089:../../Source/Platform/A7A/rme_platform_a7a.c ****             return RME_ERR_HAL_FAIL;
1090:../../Source/Platform/A7A/rme_platform_a7a.c **** 
1091:../../Source/Platform/A7A/rme_platform_a7a.c ****         /* This is a small page. Return the physical address and flags */
1092:../../Source/Platform/A7A/rme_platform_a7a.c ****         if(Paddr!=0)
1093:../../Source/Platform/A7A/rme_platform_a7a.c ****         	*Paddr=RME_A7A_MMU_4K_PAGE_ADDR(Temp);
1094:../../Source/Platform/A7A/rme_platform_a7a.c ****         if(Flags!=0)
1095:../../Source/Platform/A7A/rme_platform_a7a.c ****             *Flags=RME_A7A_PGFLG_4K_NAT2RME(Temp);
1096:../../Source/Platform/A7A/rme_platform_a7a.c ****     }
1097:../../Source/Platform/A7A/rme_platform_a7a.c ****     else
1098:../../Source/Platform/A7A/rme_platform_a7a.c ****     {
1099:../../Source/Platform/A7A/rme_platform_a7a.c ****         if((Temp&RME_A7A_MMU_1M_PAGE_PRESENT)==0)
1100:../../Source/Platform/A7A/rme_platform_a7a.c ****             return RME_ERR_HAL_FAIL;
1101:../../Source/Platform/A7A/rme_platform_a7a.c **** 
1102:../../Source/Platform/A7A/rme_platform_a7a.c ****         /* This is a section. Return the physical address and flags */
1103:../../Source/Platform/A7A/rme_platform_a7a.c ****         if(Paddr!=0)
1104:../../Source/Platform/A7A/rme_platform_a7a.c ****         	*Paddr=RME_A7A_MMU_1M_PAGE_ADDR(Temp);
1105:../../Source/Platform/A7A/rme_platform_a7a.c ****         if(Flags!=0)
1106:../../Source/Platform/A7A/rme_platform_a7a.c ****             *Flags=RME_A7A_PGFLG_1M_NAT2RME(Temp);
ARM GAS  C:\Users\even\AppData\Local\Temp\cckwnfBT.s 			page 57


1107:../../Source/Platform/A7A/rme_platform_a7a.c ****     }
1108:../../Source/Platform/A7A/rme_platform_a7a.c **** 
1109:../../Source/Platform/A7A/rme_platform_a7a.c ****     return 0;
1110:../../Source/Platform/A7A/rme_platform_a7a.c ****     #endif
1111:../../Source/Platform/A7A/rme_platform_a7a.c **** }
 1899              		.loc 1 1111 1 view .LVU469
 1900              	.LVL110:
 1901              		.loc 1 1111 1 is_stmt 0 view .LVU470
 1902 0000 1EFF2FE1 		bx	lr
 1903              		.cfi_endproc
 1904              	.LFE42:
 1906              		.section	.text.__RME_Pgt_Walk,"ax",%progbits
 1907              		.align	2
 1908              		.global	__RME_Pgt_Walk
 1909              		.syntax unified
 1910              		.arm
 1912              	__RME_Pgt_Walk:
 1913              	.LVL111:
 1914              	.LFB43:
1112:../../Source/Platform/A7A/rme_platform_a7a.c **** /* End Function:__RME_Pgt_Lookup *******************************************/
1113:../../Source/Platform/A7A/rme_platform_a7a.c **** 
1114:../../Source/Platform/A7A/rme_platform_a7a.c **** /* Function:__RME_Pgt_Walk **************************************************
1115:../../Source/Platform/A7A/rme_platform_a7a.c **** Description : Walking function for the page table. This function just does page
1116:../../Source/Platform/A7A/rme_platform_a7a.c ****               table lookups. The page table that is being walked must be the top-
1117:../../Source/Platform/A7A/rme_platform_a7a.c ****               level page table. The output values are optional; only pass in pointers
1118:../../Source/Platform/A7A/rme_platform_a7a.c ****               when you need that value.
1119:../../Source/Platform/A7A/rme_platform_a7a.c ****               Walking kernel page tables is prohibited.
1120:../../Source/Platform/A7A/rme_platform_a7a.c ****               This function also does not support large pages and super sections.
1121:../../Source/Platform/A7A/rme_platform_a7a.c **** Input       : struct RME_Cap_Pgt* Pgt_Op - The page table to walk.
1122:../../Source/Platform/A7A/rme_platform_a7a.c ****               rme_ptr_t Vaddr - The virtual address to look up.
1123:../../Source/Platform/A7A/rme_platform_a7a.c **** Output      : rme_ptr_t* Pgt - The pointer to the page table level.
1124:../../Source/Platform/A7A/rme_platform_a7a.c ****               rme_ptr_t* Map_Vaddr - The virtual address that starts mapping.
1125:../../Source/Platform/A7A/rme_platform_a7a.c ****               rme_ptr_t* Paddr - The physical address of the page.
1126:../../Source/Platform/A7A/rme_platform_a7a.c ****               rme_ptr_t* Size_Order - The size order of the page.
1127:../../Source/Platform/A7A/rme_platform_a7a.c ****               rme_ptr_t* Num_Order - The entry order of the page.
1128:../../Source/Platform/A7A/rme_platform_a7a.c ****               rme_ptr_t* Flags - The RME standard flags of the page.
1129:../../Source/Platform/A7A/rme_platform_a7a.c **** Return      : rme_ptr_t - If successful, 0; else RME_ERR_HAL_FAIL.
1130:../../Source/Platform/A7A/rme_platform_a7a.c **** ******************************************************************************/
1131:../../Source/Platform/A7A/rme_platform_a7a.c **** rme_ptr_t __RME_Pgt_Walk(struct RME_Cap_Pgt* Pgt_Op, 
1132:../../Source/Platform/A7A/rme_platform_a7a.c ****                          rme_ptr_t Vaddr, 
1133:../../Source/Platform/A7A/rme_platform_a7a.c ****                          rme_ptr_t* Pgt,
1134:../../Source/Platform/A7A/rme_platform_a7a.c ****                            rme_ptr_t* Map_Vaddr, 
1135:../../Source/Platform/A7A/rme_platform_a7a.c ****                            rme_ptr_t* Paddr, 
1136:../../Source/Platform/A7A/rme_platform_a7a.c ****                            rme_ptr_t* Size_Order, 
1137:../../Source/Platform/A7A/rme_platform_a7a.c ****                            rme_ptr_t* Num_Order, 
1138:../../Source/Platform/A7A/rme_platform_a7a.c ****                            rme_ptr_t* Flags)
1139:../../Source/Platform/A7A/rme_platform_a7a.c **** {
 1915              		.loc 1 1139 1 is_stmt 1 view -0
 1916              		.cfi_startproc
 1917              		@ args = 16, pretend = 0, frame = 0
 1918              		@ frame_needed = 0, uses_anonymous_args = 0
 1919              		@ link register save eliminated.
1140:../../Source/Platform/A7A/rme_platform_a7a.c ****     #if 0
1141:../../Source/Platform/A7A/rme_platform_a7a.c ****     rme_ptr_t* Table;
1142:../../Source/Platform/A7A/rme_platform_a7a.c ****     rme_ptr_t Pos;
1143:../../Source/Platform/A7A/rme_platform_a7a.c ****     rme_ptr_t Temp;
1144:../../Source/Platform/A7A/rme_platform_a7a.c **** 
ARM GAS  C:\Users\even\AppData\Local\Temp\cckwnfBT.s 			page 58


1145:../../Source/Platform/A7A/rme_platform_a7a.c ****     /* Check if this is the top-level page table */
1146:../../Source/Platform/A7A/rme_platform_a7a.c ****     if(((Pgt_Op->Start_Addr)&RME_PGT_TOP)==0)
1147:../../Source/Platform/A7A/rme_platform_a7a.c ****         return RME_ERR_HAL_FAIL;
1148:../../Source/Platform/A7A/rme_platform_a7a.c **** 
1149:../../Source/Platform/A7A/rme_platform_a7a.c ****     /* Are we attempting a kernel or non-canonical lookup? If yes, stop immediately */
1150:../../Source/Platform/A7A/rme_platform_a7a.c ****     if(Vaddr>=0x7FFFFFFFU)
1151:../../Source/Platform/A7A/rme_platform_a7a.c ****         return RME_ERR_HAL_FAIL;
1152:../../Source/Platform/A7A/rme_platform_a7a.c **** 
1153:../../Source/Platform/A7A/rme_platform_a7a.c ****     /* Get the table and start lookup - We know that there are only 2 levels */
1154:../../Source/Platform/A7A/rme_platform_a7a.c ****     Table=RME_CAP_GETOBJ(Pgt_Op, rme_ptr_t*);
1155:../../Source/Platform/A7A/rme_platform_a7a.c **** 
1156:../../Source/Platform/A7A/rme_platform_a7a.c **** 	/* Calculate where is the entry - always 0 to 4096 */
1157:../../Source/Platform/A7A/rme_platform_a7a.c **** 	Pos=(Vaddr>>RME_PGT_SIZE_1M)&0xFFFU;
1158:../../Source/Platform/A7A/rme_platform_a7a.c **** 	/* Atomic read */
1159:../../Source/Platform/A7A/rme_platform_a7a.c **** 	Temp=Table[Pos];
1160:../../Source/Platform/A7A/rme_platform_a7a.c **** 
1161:../../Source/Platform/A7A/rme_platform_a7a.c **** 	/* Find the position of the entry - Is there a page, a directory, or nothing? */
1162:../../Source/Platform/A7A/rme_platform_a7a.c **** 	if((Temp&RME_A7A_MMU_1M_PAGE_PRESENT)!=0)
1163:../../Source/Platform/A7A/rme_platform_a7a.c **** 	{
1164:../../Source/Platform/A7A/rme_platform_a7a.c **** 		/* There is a 1M page */
1165:../../Source/Platform/A7A/rme_platform_a7a.c **** 		if(Pgt!=0)
1166:../../Source/Platform/A7A/rme_platform_a7a.c **** 			*Pgt=(rme_ptr_t)Table;
1167:../../Source/Platform/A7A/rme_platform_a7a.c **** 		if(Map_Vaddr!=0)
1168:../../Source/Platform/A7A/rme_platform_a7a.c **** 			*Map_Vaddr=RME_ROUND_DOWN(Vaddr,RME_PGT_SIZE_1M);
1169:../../Source/Platform/A7A/rme_platform_a7a.c **** 		if(Paddr!=0)
1170:../../Source/Platform/A7A/rme_platform_a7a.c **** 			*Paddr=RME_A7A_MMU_1M_PAGE_ADDR(Temp);
1171:../../Source/Platform/A7A/rme_platform_a7a.c **** 		if(Size_Order!=0)
1172:../../Source/Platform/A7A/rme_platform_a7a.c **** 			*Size_Order=RME_PGT_SIZE_1M;
1173:../../Source/Platform/A7A/rme_platform_a7a.c **** 		if(Num_Order!=0)
1174:../../Source/Platform/A7A/rme_platform_a7a.c **** 			*Num_Order=RME_PGT_NUM_4K;
1175:../../Source/Platform/A7A/rme_platform_a7a.c **** 		if(Flags!=0)
1176:../../Source/Platform/A7A/rme_platform_a7a.c **** 			*Flags=RME_A7A_PGFLG_1M_NAT2RME(Temp);
1177:../../Source/Platform/A7A/rme_platform_a7a.c **** 
1178:../../Source/Platform/A7A/rme_platform_a7a.c **** 	}
1179:../../Source/Platform/A7A/rme_platform_a7a.c **** 	else if((Temp&RME_A7A_MMU_1M_PGDIR_PRESENT)!=0)
1180:../../Source/Platform/A7A/rme_platform_a7a.c **** 	{
1181:../../Source/Platform/A7A/rme_platform_a7a.c **** 		Table=(rme_ptr_t*)RME_A7A_PA2VA(RME_A7A_MMU_1M_PGT_ADDR(Temp));
1182:../../Source/Platform/A7A/rme_platform_a7a.c **** 		/* Calculate where is the entry - always 0 to 256 */
1183:../../Source/Platform/A7A/rme_platform_a7a.c **** 		Pos=(Vaddr>>RME_PGT_SIZE_4K)&0xFFU;
1184:../../Source/Platform/A7A/rme_platform_a7a.c **** 		/* Atomic read */
1185:../../Source/Platform/A7A/rme_platform_a7a.c **** 		Temp=Table[Pos];
1186:../../Source/Platform/A7A/rme_platform_a7a.c **** 
1187:../../Source/Platform/A7A/rme_platform_a7a.c **** 		if((Temp&RME_A7A_MMU_4K_PAGE_PRESENT)!=0)
1188:../../Source/Platform/A7A/rme_platform_a7a.c **** 		{
1189:../../Source/Platform/A7A/rme_platform_a7a.c **** 			/* There is a 4k page */
1190:../../Source/Platform/A7A/rme_platform_a7a.c **** 			if(Pgt!=0)
1191:../../Source/Platform/A7A/rme_platform_a7a.c **** 				*Pgt=(rme_ptr_t)Table;
1192:../../Source/Platform/A7A/rme_platform_a7a.c **** 			if(Map_Vaddr!=0)
1193:../../Source/Platform/A7A/rme_platform_a7a.c **** 				*Map_Vaddr=RME_ROUND_DOWN(Vaddr,RME_PGT_SIZE_4K);
1194:../../Source/Platform/A7A/rme_platform_a7a.c **** 			if(Paddr!=0)
1195:../../Source/Platform/A7A/rme_platform_a7a.c **** 				*Paddr=RME_A7A_MMU_4K_PAGE_ADDR(Temp);
1196:../../Source/Platform/A7A/rme_platform_a7a.c **** 			if(Size_Order!=0)
1197:../../Source/Platform/A7A/rme_platform_a7a.c **** 				*Size_Order=RME_PGT_SIZE_4K;
1198:../../Source/Platform/A7A/rme_platform_a7a.c **** 			if(Num_Order!=0)
1199:../../Source/Platform/A7A/rme_platform_a7a.c **** 				*Num_Order=RME_PGT_NUM_256;
1200:../../Source/Platform/A7A/rme_platform_a7a.c **** 			if(Flags!=0)
1201:../../Source/Platform/A7A/rme_platform_a7a.c **** 				*Flags=RME_A7A_PGFLG_4K_NAT2RME(Temp);
ARM GAS  C:\Users\even\AppData\Local\Temp\cckwnfBT.s 			page 59


1202:../../Source/Platform/A7A/rme_platform_a7a.c **** 		}
1203:../../Source/Platform/A7A/rme_platform_a7a.c **** 		else
1204:../../Source/Platform/A7A/rme_platform_a7a.c **** 			return RME_ERR_HAL_FAIL;
1205:../../Source/Platform/A7A/rme_platform_a7a.c **** 	}
1206:../../Source/Platform/A7A/rme_platform_a7a.c **** 	else
1207:../../Source/Platform/A7A/rme_platform_a7a.c **** 		return RME_ERR_HAL_FAIL;
1208:../../Source/Platform/A7A/rme_platform_a7a.c **** 
1209:../../Source/Platform/A7A/rme_platform_a7a.c ****     return 0;
1210:../../Source/Platform/A7A/rme_platform_a7a.c ****     #endif
1211:../../Source/Platform/A7A/rme_platform_a7a.c **** }
 1920              		.loc 1 1211 1 view .LVU472
 1921              	.LVL112:
 1922              		.loc 1 1211 1 is_stmt 0 view .LVU473
 1923 0000 1EFF2FE1 		bx	lr
 1924              		.cfi_endproc
 1925              	.LFE43:
 1927              		.global	RME_A7A_CPU_Cnt
 1928              		.global	RME_A7A_Mem_Info
 1929              		.global	RME_A7A_Kot
 1930              		.global	RME_A7A_Local
 1931              		.global	RME_A7A_Timestamp
 1932              		.section	.bss.RME_A7A_CPU_Cnt,"aw",%nobits
 1933              		.align	2
 1936              	RME_A7A_CPU_Cnt:
 1937 0000 00000000 		.space	4
 1938              		.section	.bss.RME_A7A_Kot,"aw",%nobits
 1939              		.align	3
 1942              	RME_A7A_Kot:
 1943 0000 00000000 		.space	8388608
 1943      00000000 
 1943      00000000 
 1943      00000000 
 1943      00000000 
 1944              		.section	.bss.RME_A7A_Local,"aw",%nobits
 1945              		.align	2
 1946              		.set	.LANCHOR0,. + 0
 1949              	RME_A7A_Local:
 1950 0000 00000000 		.space	276
 1950      00000000 
 1950      00000000 
 1950      00000000 
 1950      00000000 
 1951              		.section	.bss.RME_A7A_Timestamp,"aw",%nobits
 1952              		.align	2
 1955              	RME_A7A_Timestamp:
 1956 0000 00000000 		.space	4
 1957              		.section	.rodata.RME_A7A_Mem_Info,"a"
 1958              		.align	3
 1961              	RME_A7A_Mem_Info:
 1962 0000 19000000 		.word	25
 1963 0004 00000000 		.word	0
 1964 0008 00000000 		.word	0
 1965 000c 00040000 		.word	1024
 1966 0010 0E0C0300 		.word	199694
 1967 0014 00000040 		.word	1073741824
 1968 0018 00000040 		.word	1073741824
 1969 001c 00020000 		.word	512
ARM GAS  C:\Users\even\AppData\Local\Temp\cckwnfBT.s 			page 60


 1970 0020 020C0300 		.word	199682
 1971 0024 000000E0 		.word	-536870912
 1972 0028 00000060 		.word	1610612736
 1973 002c 00020000 		.word	512
 1974 0030 020C0300 		.word	199682
 1975 0034 00000000 		.word	0
 1976 0038 00000080 		.word	-2147483648
 1977 003c 00040000 		.word	1024
 1978 0040 0E040300 		.word	197646
 1979 0044 00000040 		.word	1073741824
 1980 0048 000000C0 		.word	-1073741824
 1981 004c 00020000 		.word	512
 1982 0050 02040300 		.word	197634
 1983 0054 000000E0 		.word	-536870912
 1984 0058 000000E0 		.word	-536870912
 1985 005c 00020000 		.word	512
 1986 0060 02040300 		.word	197634
 1987              		.text
 1988              	.Letext0:
 1989              		.file 2 "../../Include/Platform/A7A/rme_platform_a7a.h"
 1990              		.file 3 "../../Include/Kernel/rme_kernel.h"
ARM GAS  C:\Users\even\AppData\Local\Temp\cckwnfBT.s 			page 61


DEFINED SYMBOLS
                            *ABS*:00000000 rme_platform_a7a.c
C:\Users\even\AppData\Local\Temp\cckwnfBT.s:22     .rodata.main.str1.4:00000000 $d
C:\Users\even\AppData\Local\Temp\cckwnfBT.s:23     .rodata.main.str1.4:00000000 .LC0
C:\Users\even\AppData\Local\Temp\cckwnfBT.s:26     .text.startup.main:00000000 $a
C:\Users\even\AppData\Local\Temp\cckwnfBT.s:31     .text.startup.main:00000000 main
C:\Users\even\AppData\Local\Temp\cckwnfBT.s:324    .text.__RME_Putchar:00000000 $a
C:\Users\even\AppData\Local\Temp\cckwnfBT.s:329    .text.__RME_Putchar:00000000 __RME_Putchar
C:\Users\even\AppData\Local\Temp\cckwnfBT.s:360    .text.__RME_A7A_Int_Local_Init:00000000 $a
C:\Users\even\AppData\Local\Temp\cckwnfBT.s:365    .text.__RME_A7A_Int_Local_Init:00000000 __RME_A7A_Int_Local_Init
C:\Users\even\AppData\Local\Temp\cckwnfBT.s:395    .text.__RME_A7A_Feature_Get:00000000 $a
C:\Users\even\AppData\Local\Temp\cckwnfBT.s:400    .text.__RME_A7A_Feature_Get:00000000 __RME_A7A_Feature_Get
C:\Users\even\AppData\Local\Temp\cckwnfBT.s:411    .text.__RME_A7A_Mem_Init:00000000 $a
C:\Users\even\AppData\Local\Temp\cckwnfBT.s:416    .text.__RME_A7A_Mem_Init:00000000 __RME_A7A_Mem_Init
C:\Users\even\AppData\Local\Temp\cckwnfBT.s:430    .text.__RME_A7A_SMP_Init:00000000 $a
C:\Users\even\AppData\Local\Temp\cckwnfBT.s:435    .text.__RME_A7A_SMP_Init:00000000 __RME_A7A_SMP_Init
C:\Users\even\AppData\Local\Temp\cckwnfBT.s:446    .text.__RME_A7A_SMP_Tick:00000000 $a
C:\Users\even\AppData\Local\Temp\cckwnfBT.s:451    .text.__RME_A7A_SMP_Tick:00000000 __RME_A7A_SMP_Tick
C:\Users\even\AppData\Local\Temp\cckwnfBT.s:462    .rodata.__RME_Lowlvl_Init.str1.4:00000000 $d
C:\Users\even\AppData\Local\Temp\cckwnfBT.s:463    .rodata.__RME_Lowlvl_Init.str1.4:00000000 .LC1
C:\Users\even\AppData\Local\Temp\cckwnfBT.s:466    .rodata.__RME_Lowlvl_Init.str1.4:00000018 .LC2
C:\Users\even\AppData\Local\Temp\cckwnfBT.s:469    .rodata.__RME_Lowlvl_Init.str1.4:00000030 .LC3
C:\Users\even\AppData\Local\Temp\cckwnfBT.s:472    .rodata.__RME_Lowlvl_Init.str1.4:00000048 .LC4
C:\Users\even\AppData\Local\Temp\cckwnfBT.s:475    .rodata.__RME_Lowlvl_Init.str1.4:00000064 .LC5
C:\Users\even\AppData\Local\Temp\cckwnfBT.s:478    .rodata.__RME_Lowlvl_Init.str1.4:0000007c .LC6
C:\Users\even\AppData\Local\Temp\cckwnfBT.s:481    .rodata.__RME_Lowlvl_Init.str1.4:0000009c .LC7
C:\Users\even\AppData\Local\Temp\cckwnfBT.s:484    .rodata.__RME_Lowlvl_Init.str1.4:000000b4 .LC8
C:\Users\even\AppData\Local\Temp\cckwnfBT.s:487    .rodata.__RME_Lowlvl_Init.str1.4:000000d8 .LC9
C:\Users\even\AppData\Local\Temp\cckwnfBT.s:490    .rodata.__RME_Lowlvl_Init.str1.4:000000ec .LC10
C:\Users\even\AppData\Local\Temp\cckwnfBT.s:493    .text.__RME_Lowlvl_Init:00000000 $a
C:\Users\even\AppData\Local\Temp\cckwnfBT.s:498    .text.__RME_Lowlvl_Init:00000000 __RME_Lowlvl_Init
C:\Users\even\AppData\Local\Temp\cckwnfBT.s:1946   .bss.RME_A7A_Local:00000000 .LANCHOR0
C:\Users\even\AppData\Local\Temp\cckwnfBT.s:811    .text.__RME_Pgt_Kom_Init:00000000 $a
C:\Users\even\AppData\Local\Temp\cckwnfBT.s:816    .text.__RME_Pgt_Kom_Init:00000000 __RME_Pgt_Kom_Init
C:\Users\even\AppData\Local\Temp\cckwnfBT.s:831    .text.__RME_SMP_Low_Level_Init:00000000 $a
C:\Users\even\AppData\Local\Temp\cckwnfBT.s:836    .text.__RME_SMP_Low_Level_Init:00000000 __RME_SMP_Low_Level_Init
C:\Users\even\AppData\Local\Temp\cckwnfBT.s:848    .text.__RME_Boot:00000000 $a
C:\Users\even\AppData\Local\Temp\cckwnfBT.s:853    .text.__RME_Boot:00000000 __RME_Boot
C:\Users\even\AppData\Local\Temp\cckwnfBT.s:920    .text.__RME_Reboot:00000000 $a
C:\Users\even\AppData\Local\Temp\cckwnfBT.s:925    .text.__RME_Reboot:00000000 __RME_Reboot
C:\Users\even\AppData\Local\Temp\cckwnfBT.s:938    .text.__RME_Shutdown:00000000 $a
C:\Users\even\AppData\Local\Temp\cckwnfBT.s:943    .text.__RME_Shutdown:00000000 __RME_Shutdown
C:\Users\even\AppData\Local\Temp\cckwnfBT.s:954    .text.__RME_Svc_Param_Get:00000000 $a
C:\Users\even\AppData\Local\Temp\cckwnfBT.s:959    .text.__RME_Svc_Param_Get:00000000 __RME_Svc_Param_Get
C:\Users\even\AppData\Local\Temp\cckwnfBT.s:1000   .text.__RME_Svc_Retval_Set:00000000 $a
C:\Users\even\AppData\Local\Temp\cckwnfBT.s:1005   .text.__RME_Svc_Retval_Set:00000000 __RME_Svc_Retval_Set
C:\Users\even\AppData\Local\Temp\cckwnfBT.s:1022   .text.__RME_Thd_Reg_Init:00000000 $a
C:\Users\even\AppData\Local\Temp\cckwnfBT.s:1027   .text.__RME_Thd_Reg_Init:00000000 __RME_Thd_Reg_Init
C:\Users\even\AppData\Local\Temp\cckwnfBT.s:1053   .text.__RME_Thd_Reg_Copy:00000000 $a
C:\Users\even\AppData\Local\Temp\cckwnfBT.s:1058   .text.__RME_Thd_Reg_Copy:00000000 __RME_Thd_Reg_Copy
C:\Users\even\AppData\Local\Temp\cckwnfBT.s:1152   .text.__RME_Thd_Cop_Init:00000000 $a
C:\Users\even\AppData\Local\Temp\cckwnfBT.s:1157   .text.__RME_Thd_Cop_Init:00000000 __RME_Thd_Cop_Init
C:\Users\even\AppData\Local\Temp\cckwnfBT.s:1171   .text.__RME_Thd_Cop_Save:00000000 $a
C:\Users\even\AppData\Local\Temp\cckwnfBT.s:1176   .text.__RME_Thd_Cop_Save:00000000 __RME_Thd_Cop_Save
C:\Users\even\AppData\Local\Temp\cckwnfBT.s:1187   .text.__RME_Thd_Cop_Restore:00000000 $a
C:\Users\even\AppData\Local\Temp\cckwnfBT.s:1192   .text.__RME_Thd_Cop_Restore:00000000 __RME_Thd_Cop_Restore
C:\Users\even\AppData\Local\Temp\cckwnfBT.s:1203   .text.__RME_Inv_Reg_Save:00000000 $a
ARM GAS  C:\Users\even\AppData\Local\Temp\cckwnfBT.s 			page 62


C:\Users\even\AppData\Local\Temp\cckwnfBT.s:1208   .text.__RME_Inv_Reg_Save:00000000 __RME_Inv_Reg_Save
C:\Users\even\AppData\Local\Temp\cckwnfBT.s:1232   .text.__RME_Inv_Reg_Restore:00000000 $a
C:\Users\even\AppData\Local\Temp\cckwnfBT.s:1237   .text.__RME_Inv_Reg_Restore:00000000 __RME_Inv_Reg_Restore
C:\Users\even\AppData\Local\Temp\cckwnfBT.s:1261   .text.__RME_Inv_Retval_Set:00000000 $a
C:\Users\even\AppData\Local\Temp\cckwnfBT.s:1266   .text.__RME_Inv_Retval_Set:00000000 __RME_Inv_Retval_Set
C:\Users\even\AppData\Local\Temp\cckwnfBT.s:1283   .text.__RME_Set_Inv_Retval:00000000 $a
C:\Users\even\AppData\Local\Temp\cckwnfBT.s:1288   .text.__RME_Set_Inv_Retval:00000000 __RME_Set_Inv_Retval
C:\Users\even\AppData\Local\Temp\cckwnfBT.s:1305   .text.__RME_Thd_Cop_Swap:00000000 $a
C:\Users\even\AppData\Local\Temp\cckwnfBT.s:1310   .text.__RME_Thd_Cop_Swap:00000000 __RME_Thd_Cop_Swap
C:\Users\even\AppData\Local\Temp\cckwnfBT.s:1324   .text.__RME_Kfn_Handler:00000000 $a
C:\Users\even\AppData\Local\Temp\cckwnfBT.s:1329   .text.__RME_Kfn_Handler:00000000 __RME_Kfn_Handler
C:\Users\even\AppData\Local\Temp\cckwnfBT.s:1347   .text.__RME_A7A_Undefined_Handler:00000000 $a
C:\Users\even\AppData\Local\Temp\cckwnfBT.s:1352   .text.__RME_A7A_Undefined_Handler:00000000 __RME_A7A_Undefined_Handler
C:\Users\even\AppData\Local\Temp\cckwnfBT.s:1370   .text.__RME_A7A_Prefetch_Abort_Handler:00000000 $a
C:\Users\even\AppData\Local\Temp\cckwnfBT.s:1375   .text.__RME_A7A_Prefetch_Abort_Handler:00000000 __RME_A7A_Prefetch_Abort_Handler
C:\Users\even\AppData\Local\Temp\cckwnfBT.s:1393   .text.__RME_A7A_Data_Abort_Handler:00000000 $a
C:\Users\even\AppData\Local\Temp\cckwnfBT.s:1398   .text.__RME_A7A_Data_Abort_Handler:00000000 __RME_A7A_Data_Abort_Handler
C:\Users\even\AppData\Local\Temp\cckwnfBT.s:1416   .rodata.__RME_A7A_IRQ_Handler.str1.4:00000000 $d
C:\Users\even\AppData\Local\Temp\cckwnfBT.s:1417   .rodata.__RME_A7A_IRQ_Handler.str1.4:00000000 .LC11
C:\Users\even\AppData\Local\Temp\cckwnfBT.s:1420   .rodata.__RME_A7A_IRQ_Handler.str1.4:0000000c .LC12
C:\Users\even\AppData\Local\Temp\cckwnfBT.s:1423   .rodata.__RME_A7A_IRQ_Handler.str1.4:00000018 .LC13
C:\Users\even\AppData\Local\Temp\cckwnfBT.s:1426   .text.__RME_A7A_IRQ_Handler:00000000 $a
C:\Users\even\AppData\Local\Temp\cckwnfBT.s:1431   .text.__RME_A7A_IRQ_Handler:00000000 __RME_A7A_IRQ_Handler
C:\Users\even\AppData\Local\Temp\cckwnfBT.s:1610   .text._RME_A7A_SGI_Handler:00000000 $a
C:\Users\even\AppData\Local\Temp\cckwnfBT.s:1615   .text._RME_A7A_SGI_Handler:00000000 _RME_A7A_SGI_Handler
C:\Users\even\AppData\Local\Temp\cckwnfBT.s:1630   .rodata.__RME_A7A_Generic_Handler.str1.4:00000000 $d
C:\Users\even\AppData\Local\Temp\cckwnfBT.s:1631   .rodata.__RME_A7A_Generic_Handler.str1.4:00000000 .LC14
C:\Users\even\AppData\Local\Temp\cckwnfBT.s:1634   .text.__RME_A7A_Generic_Handler:00000000 $a
C:\Users\even\AppData\Local\Temp\cckwnfBT.s:1639   .text.__RME_A7A_Generic_Handler:00000000 __RME_A7A_Generic_Handler
C:\Users\even\AppData\Local\Temp\cckwnfBT.s:1676   .text.__RME_Pgt_Set:00000000 $a
C:\Users\even\AppData\Local\Temp\cckwnfBT.s:1681   .text.__RME_Pgt_Set:00000000 __RME_Pgt_Set
C:\Users\even\AppData\Local\Temp\cckwnfBT.s:1695   .text.__RME_Pgt_Check:00000000 $a
C:\Users\even\AppData\Local\Temp\cckwnfBT.s:1700   .text.__RME_Pgt_Check:00000000 __RME_Pgt_Check
C:\Users\even\AppData\Local\Temp\cckwnfBT.s:1762   .text.__RME_Pgt_Init:00000000 $a
C:\Users\even\AppData\Local\Temp\cckwnfBT.s:1767   .text.__RME_Pgt_Init:00000000 __RME_Pgt_Init
C:\Users\even\AppData\Local\Temp\cckwnfBT.s:1783   .text.__RME_Pgt_Del_Check:00000000 $a
C:\Users\even\AppData\Local\Temp\cckwnfBT.s:1788   .text.__RME_Pgt_Del_Check:00000000 __RME_Pgt_Del_Check
C:\Users\even\AppData\Local\Temp\cckwnfBT.s:1800   .text.__RME_Pgt_Page_Map:00000000 $a
C:\Users\even\AppData\Local\Temp\cckwnfBT.s:1805   .text.__RME_Pgt_Page_Map:00000000 __RME_Pgt_Page_Map
C:\Users\even\AppData\Local\Temp\cckwnfBT.s:1821   .text.__RME_Pgt_Page_Unmap:00000000 $a
C:\Users\even\AppData\Local\Temp\cckwnfBT.s:1826   .text.__RME_Pgt_Page_Unmap:00000000 __RME_Pgt_Page_Unmap
C:\Users\even\AppData\Local\Temp\cckwnfBT.s:1842   .text.__RME_Pgt_Pgdir_Map:00000000 $a
C:\Users\even\AppData\Local\Temp\cckwnfBT.s:1847   .text.__RME_Pgt_Pgdir_Map:00000000 __RME_Pgt_Pgdir_Map
C:\Users\even\AppData\Local\Temp\cckwnfBT.s:1863   .text.__RME_Pgt_Pgdir_Unmap:00000000 $a
C:\Users\even\AppData\Local\Temp\cckwnfBT.s:1868   .text.__RME_Pgt_Pgdir_Unmap:00000000 __RME_Pgt_Pgdir_Unmap
C:\Users\even\AppData\Local\Temp\cckwnfBT.s:1886   .text.__RME_Pgt_Lookup:00000000 $a
C:\Users\even\AppData\Local\Temp\cckwnfBT.s:1891   .text.__RME_Pgt_Lookup:00000000 __RME_Pgt_Lookup
C:\Users\even\AppData\Local\Temp\cckwnfBT.s:1907   .text.__RME_Pgt_Walk:00000000 $a
C:\Users\even\AppData\Local\Temp\cckwnfBT.s:1912   .text.__RME_Pgt_Walk:00000000 __RME_Pgt_Walk
C:\Users\even\AppData\Local\Temp\cckwnfBT.s:1936   .bss.RME_A7A_CPU_Cnt:00000000 RME_A7A_CPU_Cnt
C:\Users\even\AppData\Local\Temp\cckwnfBT.s:1961   .rodata.RME_A7A_Mem_Info:00000000 RME_A7A_Mem_Info
C:\Users\even\AppData\Local\Temp\cckwnfBT.s:1942   .bss.RME_A7A_Kot:00000000 RME_A7A_Kot
C:\Users\even\AppData\Local\Temp\cckwnfBT.s:1949   .bss.RME_A7A_Local:00000000 RME_A7A_Local
C:\Users\even\AppData\Local\Temp\cckwnfBT.s:1955   .bss.RME_A7A_Timestamp:00000000 RME_A7A_Timestamp
C:\Users\even\AppData\Local\Temp\cckwnfBT.s:1933   .bss.RME_A7A_CPU_Cnt:00000000 $d
C:\Users\even\AppData\Local\Temp\cckwnfBT.s:1939   .bss.RME_A7A_Kot:00000000 $d
C:\Users\even\AppData\Local\Temp\cckwnfBT.s:1945   .bss.RME_A7A_Local:00000000 $d
ARM GAS  C:\Users\even\AppData\Local\Temp\cckwnfBT.s 			page 63


C:\Users\even\AppData\Local\Temp\cckwnfBT.s:1952   .bss.RME_A7A_Timestamp:00000000 $d
C:\Users\even\AppData\Local\Temp\cckwnfBT.s:1958   .rodata.RME_A7A_Mem_Info:00000000 $d
                           .group:00000000 wm4.0.fe3c9ee3fdfbed0fcc0e8dc47e87fbb2
                           .group:00000000 wm4.rme_platform_a7a.h.12.4ea7c3e7cd5be5689682b56f61920b43
                           .group:00000000 wm4.rme_platform_xc7z020.h.15.439a86713387cac48fb920c2c501913e
                           .group:00000000 wm4.rme_platform_a7a.h.136.4a0faa042aee30814e6d83fdc3818dd9
                           .group:00000000 wm4.rme_kernel.h.27.716340edb41bad57d522729bf2b8a38a
                           .group:00000000 wm4.rme.h.11.9832b5e30070a0fa5589a615f357d92d
                           .group:00000000 wm4.rme_kernel.h.185.3974182bb1c1d44bb740025d2e899ec7
                           .group:00000000 wm4.rme_platform_a7a.h.393.7eab80424ec01c7c054622820ea1dfa1
                           .group:00000000 wm4.rme_kernel.h.679.5cba0ca852965e732f79ab9e9cae51eb
                           .group:00000000 wm4.rme_platform_a7a.h.510.48e6eb785fa7467271fe185a558b001c
                           .group:00000000 wm4.rme_kernel.h.931.ec71bd25af7f487c8cb7f50ed1922251

UNDEFINED SYMBOLS
RME_Str_Print
_RME_CPU_Local_Init
RME_Int_Print
__RME_A7A_Vector_Table
__RME_A7A_VBAR_Set
__RME_Int_Enable
RME_Log
