
RME.elf:     file format elf32-littlearm


Disassembly of section .text:

80100000 <_RME_Cpt_Add>:
80100000:	e3110080 	tst	r1, #128	; 0x80
80100004:	e92d47f0 	push	{r4, r5, r6, r7, r8, r9, sl, lr}
80100008:	e1a04001 	mov	r4, r1
8010000c:	e59d9020 	ldr	r9, [sp, #32]
80100010:	e1a06000 	mov	r6, r0
80100014:	e59d8024 	ldr	r8, [sp, #36]	; 0x24
80100018:	e1a07002 	mov	r7, r2
8010001c:	e1a05003 	mov	r5, r3
80100020:	1a00005b 	bne	80100194 <_RME_Cpt_Add+0x194>
80100024:	e5903014 	ldr	r3, [r0, #20]
80100028:	e1510003 	cmp	r1, r3
8010002c:	3590100c 	ldrcc	r1, [r0, #12]
80100030:	2a000055 	bcs	8010018c <_RME_Cpt_Add+0x18c>
80100034:	e0814284 	add	r4, r1, r4, lsl #5
80100038:	e1a00004 	mov	r0, r4
8010003c:	eb0161af 	bl	80158700 <__RME_A7A_Read_Acquire>
80100040:	e7e73850 	ubfx	r3, r0, #16, #8
80100044:	e3530002 	cmp	r3, #2
80100048:	0a0000d0 	beq	80100390 <_RME_Cpt_Add+0x390>
8010004c:	e1a00c20 	lsr	r0, r0, #24
80100050:	e3500003 	cmp	r0, #3
80100054:	1a0000cb 	bne	80100388 <_RME_Cpt_Add+0x388>
80100058:	e3150080 	tst	r5, #128	; 0x80
8010005c:	0a000047 	beq	80100180 <_RME_Cpt_Add+0x180>
80100060:	e5962014 	ldr	r2, [r6, #20]
80100064:	e1a03425 	lsr	r3, r5, #8
80100068:	e1530002 	cmp	r3, r2
8010006c:	2a000046 	bcs	8010018c <_RME_Cpt_Add+0x18c>
80100070:	e596600c 	ldr	r6, [r6, #12]
80100074:	e0866283 	add	r6, r6, r3, lsl #5
80100078:	e1a00006 	mov	r0, r6
8010007c:	eb01619f 	bl	80158700 <__RME_A7A_Read_Acquire>
80100080:	e7e73850 	ubfx	r3, r0, #16, #8
80100084:	e3530002 	cmp	r3, #2
80100088:	0a0000c0 	beq	80100390 <_RME_Cpt_Add+0x390>
8010008c:	e1a00c20 	lsr	r0, r0, #24
80100090:	e3500003 	cmp	r0, #3
80100094:	1a0000bb 	bne	80100388 <_RME_Cpt_Add+0x388>
80100098:	e5963014 	ldr	r3, [r6, #20]
8010009c:	e205507f 	and	r5, r5, #127	; 0x7f
801000a0:	e1550003 	cmp	r5, r3
801000a4:	2a000038 	bcs	8010018c <_RME_Cpt_Add+0x18c>
801000a8:	e596300c 	ldr	r3, [r6, #12]
801000ac:	e0835285 	add	r5, r3, r5, lsl #5
801000b0:	e1a00005 	mov	r0, r5
801000b4:	eb016191 	bl	80158700 <__RME_A7A_Read_Acquire>
801000b8:	e7e73850 	ubfx	r3, r0, #16, #8
801000bc:	e3530002 	cmp	r3, #2
801000c0:	0a0000b2 	beq	80100390 <_RME_Cpt_Add+0x390>
801000c4:	e1a00c20 	lsr	r0, r0, #24
801000c8:	e3500003 	cmp	r0, #3
801000cc:	1a0000ad 	bne	80100388 <_RME_Cpt_Add+0x388>
801000d0:	e5943008 	ldr	r3, [r4, #8]
801000d4:	e3130010 	tst	r3, #16
801000d8:	0a000053 	beq	8010022c <_RME_Cpt_Add+0x22c>
801000dc:	e5953008 	ldr	r3, [r5, #8]
801000e0:	e3130008 	tst	r3, #8
801000e4:	0a000050 	beq	8010022c <_RME_Cpt_Add+0x22c>
801000e8:	e5943014 	ldr	r3, [r4, #20]
801000ec:	e1530007 	cmp	r3, r7
801000f0:	9a000025 	bls	8010018c <_RME_Cpt_Add+0x18c>
801000f4:	e5953014 	ldr	r3, [r5, #20]
801000f8:	e594600c 	ldr	r6, [r4, #12]
801000fc:	e1530009 	cmp	r3, r9
80100100:	e086a287 	add	sl, r6, r7, lsl #5
80100104:	9a000020 	bls	8010018c <_RME_Cpt_Add+0x18c>
80100108:	e595500c 	ldr	r5, [r5, #12]
8010010c:	e0854289 	add	r4, r5, r9, lsl #5
80100110:	e1a00004 	mov	r0, r4
80100114:	eb016179 	bl	80158700 <__RME_A7A_Read_Acquire>
80100118:	e7e73850 	ubfx	r3, r0, #16, #8
8010011c:	e1a01004 	mov	r1, r4
80100120:	e3530002 	cmp	r3, #2
80100124:	0a000099 	beq	80100390 <_RME_Cpt_Add+0x390>
80100128:	e3500000 	cmp	r0, #0
8010012c:	0a000099 	beq	80100398 <_RME_Cpt_Add+0x398>
80100130:	e1a03c20 	lsr	r3, r0, #24
80100134:	e3530004 	cmp	r3, #4
80100138:	0a000029 	beq	801001e4 <_RME_Cpt_Add+0x1e4>
8010013c:	e3530001 	cmp	r3, #1
80100140:	0a00003b 	beq	80100234 <_RME_Cpt_Add+0x234>
80100144:	e3530002 	cmp	r3, #2
80100148:	0a000067 	beq	801002ec <_RME_Cpt_Add+0x2ec>
8010014c:	e3580000 	cmp	r8, #0
80100150:	0a000035 	beq	8010022c <_RME_Cpt_Add+0x22c>
80100154:	e5942008 	ldr	r2, [r4, #8]
80100158:	e1d82002 	bics	r2, r8, r2
8010015c:	1a000032 	bne	8010022c <_RME_Cpt_Add+0x22c>
80100160:	e7962287 	ldr	r2, [r6, r7, lsl #5]
80100164:	e3520000 	cmp	r2, #0
80100168:	1a000002 	bne	80100178 <_RME_Cpt_Add+0x178>
8010016c:	e7962287 	ldr	r2, [r6, r7, lsl #5]
80100170:	e3520000 	cmp	r2, #0
80100174:	0a000039 	beq	80100260 <_RME_Cpt_Add+0x260>
80100178:	e3e00004 	mvn	r0, #4
8010017c:	e8bd87f0 	pop	{r4, r5, r6, r7, r8, r9, sl, pc}
80100180:	e5963014 	ldr	r3, [r6, #20]
80100184:	e1550003 	cmp	r5, r3
80100188:	3affffc6 	bcc	801000a8 <_RME_Cpt_Add+0xa8>
8010018c:	e3e00002 	mvn	r0, #2
80100190:	e8bd87f0 	pop	{r4, r5, r6, r7, r8, r9, sl, pc}
80100194:	e5902014 	ldr	r2, [r0, #20]
80100198:	e1a03421 	lsr	r3, r1, #8
8010019c:	e1530002 	cmp	r3, r2
801001a0:	2afffff9 	bcs	8010018c <_RME_Cpt_Add+0x18c>
801001a4:	e590a00c 	ldr	sl, [r0, #12]
801001a8:	e08aa283 	add	sl, sl, r3, lsl #5
801001ac:	e1a0000a 	mov	r0, sl
801001b0:	eb016152 	bl	80158700 <__RME_A7A_Read_Acquire>
801001b4:	e7e73850 	ubfx	r3, r0, #16, #8
801001b8:	e3530002 	cmp	r3, #2
801001bc:	0a000073 	beq	80100390 <_RME_Cpt_Add+0x390>
801001c0:	e1a00c20 	lsr	r0, r0, #24
801001c4:	e3500003 	cmp	r0, #3
801001c8:	1a00006e 	bne	80100388 <_RME_Cpt_Add+0x388>
801001cc:	e59a3014 	ldr	r3, [sl, #20]
801001d0:	e204407f 	and	r4, r4, #127	; 0x7f
801001d4:	e1540003 	cmp	r4, r3
801001d8:	2affffeb 	bcs	8010018c <_RME_Cpt_Add+0x18c>
801001dc:	e59a100c 	ldr	r1, [sl, #12]
801001e0:	eaffff93 	b	80100034 <_RME_Cpt_Add+0x34>
801001e4:	e5942008 	ldr	r2, [r4, #8]
801001e8:	e1a0ca28 	lsr	ip, r8, #20
801001ec:	e15c0a22 	cmp	ip, r2, lsr #20
801001f0:	8a00000d 	bhi	8010022c <_RME_Cpt_Add+0x22c>
801001f4:	e5942008 	ldr	r2, [r4, #8]
801001f8:	e7ebe458 	ubfx	lr, r8, #8, #12
801001fc:	e7eb2452 	ubfx	r2, r2, #8, #12
80100200:	e15c000e 	cmp	ip, lr
80100204:	215e0002 	cmpcs	lr, r2
80100208:	3a000007 	bcc	8010022c <_RME_Cpt_Add+0x22c>
8010020c:	e6ef2078 	uxtb	r2, r8
80100210:	e3520000 	cmp	r2, #0
80100214:	0a000004 	beq	8010022c <_RME_Cpt_Add+0x22c>
80100218:	e5942008 	ldr	r2, [r4, #8]
8010021c:	e1c82002 	bic	r2, r8, r2
80100220:	e20220ff 	and	r2, r2, #255	; 0xff
80100224:	e3520000 	cmp	r2, #0
80100228:	0affffcc 	beq	80100160 <_RME_Cpt_Add+0x160>
8010022c:	e3e00006 	mvn	r0, #6
80100230:	e8bd87f0 	pop	{r4, r5, r6, r7, r8, r9, sl, pc}
80100234:	e5942008 	ldr	r2, [r4, #8]
80100238:	e1a0c828 	lsr	ip, r8, #16
8010023c:	e15c0822 	cmp	ip, r2, lsr #16
80100240:	8afffff9 	bhi	8010022c <_RME_Cpt_Add+0x22c>
80100244:	e5942008 	ldr	r2, [r4, #8]
80100248:	e6ffe078 	uxth	lr, r8
8010024c:	e6ff2072 	uxth	r2, r2
80100250:	e15c000e 	cmp	ip, lr
80100254:	215e0002 	cmpcs	lr, r2
80100258:	2affffc0 	bcs	80100160 <_RME_Cpt_Add+0x160>
8010025c:	eafffff2 	b	8010022c <_RME_Cpt_Add+0x22c>
80100260:	e309c114 	movw	ip, #37140	; 0x9114
80100264:	e3a0e801 	mov	lr, #65536	; 0x10000
80100268:	e348c095 	movt	ip, #32917	; 0x8095
8010026c:	e3530002 	cmp	r3, #2
80100270:	e786e287 	str	lr, [r6, r7, lsl #5]
80100274:	e59cc000 	ldr	ip, [ip]
80100278:	e58ac010 	str	ip, [sl, #16]
8010027c:	0a000032 	beq	8010034c <_RME_Cpt_Add+0x34c>
80100280:	e58a8008 	str	r8, [sl, #8]
80100284:	e2433001 	sub	r3, r3, #1
80100288:	e594200c 	ldr	r2, [r4, #12]
8010028c:	e3530001 	cmp	r3, #1
80100290:	e58a200c 	str	r2, [sl, #12]
80100294:	e5943014 	ldr	r3, [r4, #20]
80100298:	e58a3014 	str	r3, [sl, #20]
8010029c:	e5943018 	ldr	r3, [r4, #24]
801002a0:	e58a3018 	str	r3, [sl, #24]
801002a4:	e594301c 	ldr	r3, [r4, #28]
801002a8:	e58a301c 	str	r3, [sl, #28]
801002ac:	9a000032 	bls	8010037c <_RME_Cpt_Add+0x37c>
801002b0:	e7953289 	ldr	r3, [r5, r9, lsl #5]
801002b4:	e6ff3073 	uxth	r3, r3
801002b8:	e3530000 	cmp	r3, #0
801002bc:	15941004 	ldrne	r1, [r4, #4]
801002c0:	e58a1004 	str	r1, [sl, #4]
801002c4:	e59a2004 	ldr	r2, [sl, #4]
801002c8:	e5923004 	ldr	r3, [r2, #4]
801002cc:	e2833001 	add	r3, r3, #1
801002d0:	e5823004 	str	r3, [r2, #4]
801002d4:	e20014ff 	and	r1, r0, #-16777216	; 0xff000000
801002d8:	e1a0000a 	mov	r0, sl
801002dc:	e3811001 	orr	r1, r1, #1
801002e0:	eb016109 	bl	8015870c <__RME_A7A_Write_Release>
801002e4:	e3a00000 	mov	r0, #0
801002e8:	e8bd87f0 	pop	{r4, r5, r6, r7, r8, r9, sl, pc}
801002ec:	e59d3028 	ldr	r3, [sp, #40]	; 0x28
801002f0:	e1a02828 	lsr	r2, r8, #16
801002f4:	e1a03823 	lsr	r3, r3, #16
801002f8:	e3c3303f 	bic	r3, r3, #63	; 0x3f
801002fc:	e1a02802 	lsl	r2, r2, #16
80100300:	e1a08808 	lsl	r8, r8, #16
80100304:	e1833002 	orr	r3, r3, r2
80100308:	e1580003 	cmp	r8, r3
8010030c:	2affffc6 	bcs	8010022c <_RME_Cpt_Add+0x22c>
80100310:	e5941014 	ldr	r1, [r4, #20]
80100314:	e5942014 	ldr	r2, [r4, #20]
80100318:	e0888001 	add	r8, r8, r1
8010031c:	e1520008 	cmp	r2, r8
80100320:	8affffc1 	bhi	8010022c <_RME_Cpt_Add+0x22c>
80100324:	e5941014 	ldr	r1, [r4, #20]
80100328:	e5942014 	ldr	r2, [r4, #20]
8010032c:	e0833001 	add	r3, r3, r1
80100330:	e1520003 	cmp	r2, r3
80100334:	8affffbc 	bhi	8010022c <_RME_Cpt_Add+0x22c>
80100338:	e5943014 	ldr	r3, [r4, #20]
8010033c:	e3e00006 	mvn	r0, #6
80100340:	e1530008 	cmp	r3, r8
80100344:	95943018 	ldrls	r3, [r4, #24]
80100348:	e8bd87f0 	pop	{r4, r5, r6, r7, r8, r9, sl, pc}
8010034c:	e58a2008 	str	r2, [sl, #8]
80100350:	e594300c 	ldr	r3, [r4, #12]
80100354:	e58a300c 	str	r3, [sl, #12]
80100358:	e5943014 	ldr	r3, [r4, #20]
8010035c:	e58a3014 	str	r3, [sl, #20]
80100360:	e5943018 	ldr	r3, [r4, #24]
80100364:	e58a3018 	str	r3, [sl, #24]
80100368:	e594301c 	ldr	r3, [r4, #28]
8010036c:	e58a301c 	str	r3, [sl, #28]
80100370:	e3e03000 	mvn	r3, #0
80100374:	e58a2014 	str	r2, [sl, #20]
80100378:	e58a3018 	str	r3, [sl, #24]
8010037c:	e3a03000 	mov	r3, #0
80100380:	e58a3004 	str	r3, [sl, #4]
80100384:	eaffffd2 	b	801002d4 <_RME_Cpt_Add+0x2d4>
80100388:	e3e00001 	mvn	r0, #1
8010038c:	e8bd87f0 	pop	{r4, r5, r6, r7, r8, r9, sl, pc}
80100390:	e3e00008 	mvn	r0, #8
80100394:	e8bd87f0 	pop	{r4, r5, r6, r7, r8, r9, sl, pc}
80100398:	e3e00000 	mvn	r0, #0
8010039c:	e8bd87f0 	pop	{r4, r5, r6, r7, r8, r9, sl, pc}

801003a0 <_RME_Prc_Crt>:
801003a0:	e3110080 	tst	r1, #128	; 0x80
801003a4:	e92d47f0 	push	{r4, r5, r6, r7, r8, r9, sl, lr}
801003a8:	e1a05001 	mov	r5, r1
801003ac:	e59d8020 	ldr	r8, [sp, #32]
801003b0:	e1a04000 	mov	r4, r0
801003b4:	e1a07002 	mov	r7, r2
801003b8:	e1a06003 	mov	r6, r3
801003bc:	1a000051 	bne	80100508 <_RME_Prc_Crt+0x168>
801003c0:	e5903014 	ldr	r3, [r0, #20]
801003c4:	e1510003 	cmp	r1, r3
801003c8:	3590100c 	ldrcc	r1, [r0, #12]
801003cc:	2a000073 	bcs	801005a0 <_RME_Prc_Crt+0x200>
801003d0:	e0815285 	add	r5, r1, r5, lsl #5
801003d4:	e1a00005 	mov	r0, r5
801003d8:	eb0160c8 	bl	80158700 <__RME_A7A_Read_Acquire>
801003dc:	e7e73850 	ubfx	r3, r0, #16, #8
801003e0:	e3530002 	cmp	r3, #2
801003e4:	0a00008f 	beq	80100628 <_RME_Prc_Crt+0x288>
801003e8:	e1a00c20 	lsr	r0, r0, #24
801003ec:	e3500003 	cmp	r0, #3
801003f0:	1a000088 	bne	80100618 <_RME_Prc_Crt+0x278>
801003f4:	e3160080 	tst	r6, #128	; 0x80
801003f8:	0a00003d 	beq	801004f4 <_RME_Prc_Crt+0x154>
801003fc:	e5942014 	ldr	r2, [r4, #20]
80100400:	e1a03426 	lsr	r3, r6, #8
80100404:	e1530002 	cmp	r3, r2
80100408:	2a000064 	bcs	801005a0 <_RME_Prc_Crt+0x200>
8010040c:	e594900c 	ldr	r9, [r4, #12]
80100410:	e0899283 	add	r9, r9, r3, lsl #5
80100414:	e1a00009 	mov	r0, r9
80100418:	eb0160b8 	bl	80158700 <__RME_A7A_Read_Acquire>
8010041c:	e7e73850 	ubfx	r3, r0, #16, #8
80100420:	e3530002 	cmp	r3, #2
80100424:	0a00007f 	beq	80100628 <_RME_Prc_Crt+0x288>
80100428:	e1a00c20 	lsr	r0, r0, #24
8010042c:	e3500003 	cmp	r0, #3
80100430:	1a000078 	bne	80100618 <_RME_Prc_Crt+0x278>
80100434:	e5993014 	ldr	r3, [r9, #20]
80100438:	e206607f 	and	r6, r6, #127	; 0x7f
8010043c:	e1560003 	cmp	r6, r3
80100440:	2a000056 	bcs	801005a0 <_RME_Prc_Crt+0x200>
80100444:	e599300c 	ldr	r3, [r9, #12]
80100448:	e0836286 	add	r6, r3, r6, lsl #5
8010044c:	e1a00006 	mov	r0, r6
80100450:	eb0160aa 	bl	80158700 <__RME_A7A_Read_Acquire>
80100454:	e7e73850 	ubfx	r3, r0, #16, #8
80100458:	e3530002 	cmp	r3, #2
8010045c:	0a000071 	beq	80100628 <_RME_Prc_Crt+0x288>
80100460:	e1a00c20 	lsr	r0, r0, #24
80100464:	e3500003 	cmp	r0, #3
80100468:	1a00006a 	bne	80100618 <_RME_Prc_Crt+0x278>
8010046c:	e3180080 	tst	r8, #128	; 0x80
80100470:	1a000038 	bne	80100558 <_RME_Prc_Crt+0x1b8>
80100474:	e5943014 	ldr	r3, [r4, #20]
80100478:	e1580003 	cmp	r8, r3
8010047c:	2a000047 	bcs	801005a0 <_RME_Prc_Crt+0x200>
80100480:	e594300c 	ldr	r3, [r4, #12]
80100484:	e0838288 	add	r8, r3, r8, lsl #5
80100488:	e1a00008 	mov	r0, r8
8010048c:	eb01609b 	bl	80158700 <__RME_A7A_Read_Acquire>
80100490:	e7e73850 	ubfx	r3, r0, #16, #8
80100494:	e3530002 	cmp	r3, #2
80100498:	0a000062 	beq	80100628 <_RME_Prc_Crt+0x288>
8010049c:	e1a00c20 	lsr	r0, r0, #24
801004a0:	e3500004 	cmp	r0, #4
801004a4:	1a00005b 	bne	80100618 <_RME_Prc_Crt+0x278>
801004a8:	e5953008 	ldr	r3, [r5, #8]
801004ac:	e3130001 	tst	r3, #1
801004b0:	0a00005a 	beq	80100620 <_RME_Prc_Crt+0x280>
801004b4:	e5963008 	ldr	r3, [r6, #8]
801004b8:	e3130040 	tst	r3, #64	; 0x40
801004bc:	0a000057 	beq	80100620 <_RME_Prc_Crt+0x280>
801004c0:	e5983008 	ldr	r3, [r8, #8]
801004c4:	e3130040 	tst	r3, #64	; 0x40
801004c8:	0a000054 	beq	80100620 <_RME_Prc_Crt+0x280>
801004cc:	e5953014 	ldr	r3, [r5, #20]
801004d0:	e1530007 	cmp	r3, r7
801004d4:	9a000031 	bls	801005a0 <_RME_Prc_Crt+0x200>
801004d8:	e595300c 	ldr	r3, [r5, #12]
801004dc:	e7932287 	ldr	r2, [r3, r7, lsl #5]
801004e0:	e0830287 	add	r0, r3, r7, lsl #5
801004e4:	e3520000 	cmp	r2, #0
801004e8:	0a00002e 	beq	801005a8 <_RME_Prc_Crt+0x208>
801004ec:	e3e00004 	mvn	r0, #4
801004f0:	e8bd87f0 	pop	{r4, r5, r6, r7, r8, r9, sl, pc}
801004f4:	e5943014 	ldr	r3, [r4, #20]
801004f8:	e1560003 	cmp	r6, r3
801004fc:	2a000027 	bcs	801005a0 <_RME_Prc_Crt+0x200>
80100500:	e594300c 	ldr	r3, [r4, #12]
80100504:	eaffffcf 	b	80100448 <_RME_Prc_Crt+0xa8>
80100508:	e5902014 	ldr	r2, [r0, #20]
8010050c:	e1a03421 	lsr	r3, r1, #8
80100510:	e1530002 	cmp	r3, r2
80100514:	2a000021 	bcs	801005a0 <_RME_Prc_Crt+0x200>
80100518:	e590900c 	ldr	r9, [r0, #12]
8010051c:	e0899283 	add	r9, r9, r3, lsl #5
80100520:	e1a00009 	mov	r0, r9
80100524:	eb016075 	bl	80158700 <__RME_A7A_Read_Acquire>
80100528:	e7e73850 	ubfx	r3, r0, #16, #8
8010052c:	e3530002 	cmp	r3, #2
80100530:	0a00003c 	beq	80100628 <_RME_Prc_Crt+0x288>
80100534:	e1a00c20 	lsr	r0, r0, #24
80100538:	e3500003 	cmp	r0, #3
8010053c:	1a000035 	bne	80100618 <_RME_Prc_Crt+0x278>
80100540:	e5993014 	ldr	r3, [r9, #20]
80100544:	e205507f 	and	r5, r5, #127	; 0x7f
80100548:	e1550003 	cmp	r5, r3
8010054c:	2a000013 	bcs	801005a0 <_RME_Prc_Crt+0x200>
80100550:	e599100c 	ldr	r1, [r9, #12]
80100554:	eaffff9d 	b	801003d0 <_RME_Prc_Crt+0x30>
80100558:	e5942014 	ldr	r2, [r4, #20]
8010055c:	e1a03428 	lsr	r3, r8, #8
80100560:	e1530002 	cmp	r3, r2
80100564:	2a00000d 	bcs	801005a0 <_RME_Prc_Crt+0x200>
80100568:	e594400c 	ldr	r4, [r4, #12]
8010056c:	e0844283 	add	r4, r4, r3, lsl #5
80100570:	e1a00004 	mov	r0, r4
80100574:	eb016061 	bl	80158700 <__RME_A7A_Read_Acquire>
80100578:	e7e73850 	ubfx	r3, r0, #16, #8
8010057c:	e3530002 	cmp	r3, #2
80100580:	0a000028 	beq	80100628 <_RME_Prc_Crt+0x288>
80100584:	e1a00c20 	lsr	r0, r0, #24
80100588:	e3500003 	cmp	r0, #3
8010058c:	1a000021 	bne	80100618 <_RME_Prc_Crt+0x278>
80100590:	e5943014 	ldr	r3, [r4, #20]
80100594:	e208807f 	and	r8, r8, #127	; 0x7f
80100598:	e1580003 	cmp	r8, r3
8010059c:	3affffb7 	bcc	80100480 <_RME_Prc_Crt+0xe0>
801005a0:	e3e00002 	mvn	r0, #2
801005a4:	e8bd87f0 	pop	{r4, r5, r6, r7, r8, r9, sl, pc}
801005a8:	e3091114 	movw	r1, #37140	; 0x9114
801005ac:	e3a0c801 	mov	ip, #65536	; 0x10000
801005b0:	eddf0b1e 	vldr	d16, [pc, #120]	; 80100630 <_RME_Prc_Crt+0x290>
801005b4:	e3481095 	movt	r1, #32917	; 0x8095
801005b8:	e783c287 	str	ip, [r3, r7, lsl #5]
801005bc:	e2803004 	add	r3, r0, #4
801005c0:	e580200c 	str	r2, [r0, #12]
801005c4:	e5912000 	ldr	r2, [r1]
801005c8:	e3a01405 	mov	r1, #83886080	; 0x5000000
801005cc:	e5802010 	str	r2, [r0, #16]
801005d0:	f443078f 	vst1.32	{d16}, [r3]
801005d4:	e1d630b0 	ldrh	r3, [r6]
801005d8:	e3530000 	cmp	r3, #0
801005dc:	e1d830b0 	ldrh	r3, [r8]
801005e0:	15966004 	ldrne	r6, [r6, #4]
801005e4:	e3530000 	cmp	r3, #0
801005e8:	15988004 	ldrne	r8, [r8, #4]
801005ec:	e5806014 	str	r6, [r0, #20]
801005f0:	e5808018 	str	r8, [r0, #24]
801005f4:	e5963004 	ldr	r3, [r6, #4]
801005f8:	e2833001 	add	r3, r3, #1
801005fc:	e5863004 	str	r3, [r6, #4]
80100600:	e5983004 	ldr	r3, [r8, #4]
80100604:	e2833001 	add	r3, r3, #1
80100608:	e5883004 	str	r3, [r8, #4]
8010060c:	eb01603e 	bl	8015870c <__RME_A7A_Write_Release>
80100610:	e3a00000 	mov	r0, #0
80100614:	e8bd87f0 	pop	{r4, r5, r6, r7, r8, r9, sl, pc}
80100618:	e3e00001 	mvn	r0, #1
8010061c:	e8bd87f0 	pop	{r4, r5, r6, r7, r8, r9, sl, pc}
80100620:	e3e00006 	mvn	r0, #6
80100624:	e8bd87f0 	pop	{r4, r5, r6, r7, r8, r9, sl, pc}
80100628:	e3e00008 	mvn	r0, #8
8010062c:	e8bd87f0 	pop	{r4, r5, r6, r7, r8, r9, sl, pc}
80100630:	00000000 	.word	0x00000000
80100634:	0000000f 	.word	0x0000000f

80100638 <_RME_Pgt_Add>:
80100638:	e92d47f0 	push	{r4, r5, r6, r7, r8, r9, sl, lr}
8010063c:	e3110080 	tst	r1, #128	; 0x80
80100640:	e24dd008 	sub	sp, sp, #8
80100644:	e1a04001 	mov	r4, r1
80100648:	e1a08000 	mov	r8, r0
8010064c:	e1a05002 	mov	r5, r2
80100650:	e59d9028 	ldr	r9, [sp, #40]	; 0x28
80100654:	e1a07003 	mov	r7, r3
80100658:	e59d602c 	ldr	r6, [sp, #44]	; 0x2c
8010065c:	1a000064 	bne	801007f4 <_RME_Pgt_Add+0x1bc>
80100660:	e5903014 	ldr	r3, [r0, #20]
80100664:	e1510003 	cmp	r1, r3
80100668:	3590100c 	ldrcc	r1, [r0, #12]
8010066c:	2a00005e 	bcs	801007ec <_RME_Pgt_Add+0x1b4>
80100670:	e0814284 	add	r4, r1, r4, lsl #5
80100674:	e1a00004 	mov	r0, r4
80100678:	eb016020 	bl	80158700 <__RME_A7A_Read_Acquire>
8010067c:	e7e73850 	ubfx	r3, r0, #16, #8
80100680:	e3530002 	cmp	r3, #2
80100684:	0a000076 	beq	80100864 <_RME_Pgt_Add+0x22c>
80100688:	e1a00c20 	lsr	r0, r0, #24
8010068c:	e3500004 	cmp	r0, #4
80100690:	1a00006b 	bne	80100844 <_RME_Pgt_Add+0x20c>
80100694:	e3190080 	tst	r9, #128	; 0x80
80100698:	0a000050 	beq	801007e0 <_RME_Pgt_Add+0x1a8>
8010069c:	e5982014 	ldr	r2, [r8, #20]
801006a0:	e1a03429 	lsr	r3, r9, #8
801006a4:	e1530002 	cmp	r3, r2
801006a8:	2a00004f 	bcs	801007ec <_RME_Pgt_Add+0x1b4>
801006ac:	e598800c 	ldr	r8, [r8, #12]
801006b0:	e0888283 	add	r8, r8, r3, lsl #5
801006b4:	e1a00008 	mov	r0, r8
801006b8:	eb016010 	bl	80158700 <__RME_A7A_Read_Acquire>
801006bc:	e7e73850 	ubfx	r3, r0, #16, #8
801006c0:	e3530002 	cmp	r3, #2
801006c4:	0a000066 	beq	80100864 <_RME_Pgt_Add+0x22c>
801006c8:	e1a00c20 	lsr	r0, r0, #24
801006cc:	e3500003 	cmp	r0, #3
801006d0:	1a00005b 	bne	80100844 <_RME_Pgt_Add+0x20c>
801006d4:	e5983014 	ldr	r3, [r8, #20]
801006d8:	e209907f 	and	r9, r9, #127	; 0x7f
801006dc:	e1590003 	cmp	r9, r3
801006e0:	2a000041 	bcs	801007ec <_RME_Pgt_Add+0x1b4>
801006e4:	e598300c 	ldr	r3, [r8, #12]
801006e8:	e0839289 	add	r9, r3, r9, lsl #5
801006ec:	e1a00009 	mov	r0, r9
801006f0:	eb016002 	bl	80158700 <__RME_A7A_Read_Acquire>
801006f4:	e7e73850 	ubfx	r3, r0, #16, #8
801006f8:	e3530002 	cmp	r3, #2
801006fc:	0a000058 	beq	80100864 <_RME_Pgt_Add+0x22c>
80100700:	e1a00c20 	lsr	r0, r0, #24
80100704:	e3500004 	cmp	r0, #4
80100708:	1a00004d 	bne	80100844 <_RME_Pgt_Add+0x20c>
8010070c:	e5943008 	ldr	r3, [r4, #8]
80100710:	e3130002 	tst	r3, #2
80100714:	0a00004c 	beq	8010084c <_RME_Pgt_Add+0x214>
80100718:	e5992008 	ldr	r2, [r9, #8]
8010071c:	e3120001 	tst	r2, #1
80100720:	0a000049 	beq	8010084c <_RME_Pgt_Add+0x214>
80100724:	e1550a23 	cmp	r5, r3, lsr #20
80100728:	8a000047 	bhi	8010084c <_RME_Pgt_Add+0x214>
8010072c:	e7eb3453 	ubfx	r3, r3, #8, #12
80100730:	e1530005 	cmp	r3, r5
80100734:	8a000044 	bhi	8010084c <_RME_Pgt_Add+0x214>
80100738:	e1560a22 	cmp	r6, r2, lsr #20
8010073c:	8a000042 	bhi	8010084c <_RME_Pgt_Add+0x214>
80100740:	e7eb2452 	ubfx	r2, r2, #8, #12
80100744:	e1520006 	cmp	r2, r6
80100748:	8a00003f 	bhi	8010084c <_RME_Pgt_Add+0x214>
8010074c:	e5943014 	ldr	r3, [r4, #20]
80100750:	e5992014 	ldr	r2, [r9, #20]
80100754:	e1a08823 	lsr	r8, r3, #16
80100758:	e1a01822 	lsr	r1, r2, #16
8010075c:	e1580001 	cmp	r8, r1
80100760:	8a00003b 	bhi	80100854 <_RME_Pgt_Add+0x21c>
80100764:	e6ff2072 	uxth	r2, r2
80100768:	e6ff3073 	uxth	r3, r3
8010076c:	e1a02236 	lsr	r2, r6, r2
80100770:	e1923335 	orrs	r3, r2, r5, lsr r3
80100774:	1a000036 	bne	80100854 <_RME_Pgt_Add+0x21c>
80100778:	e351001f 	cmp	r1, #31
8010077c:	8a000004 	bhi	80100794 <_RME_Pgt_Add+0x15c>
80100780:	e59d3030 	ldr	r3, [sp, #48]	; 0x30
80100784:	e3a02001 	mov	r2, #1
80100788:	e1a03813 	lsl	r3, r3, r8
8010078c:	e1530112 	cmp	r3, r2, lsl r1
80100790:	2a00002f 	bcs	80100854 <_RME_Pgt_Add+0x21c>
80100794:	e1a01006 	mov	r1, r6
80100798:	e28d3004 	add	r3, sp, #4
8010079c:	e1a00009 	mov	r0, r9
801007a0:	e1a0200d 	mov	r2, sp
801007a4:	eb001354 	bl	801054fc <__RME_Pgt_Lookup>
801007a8:	e59d1000 	ldr	r1, [sp]
801007ac:	e358001f 	cmp	r8, #31
801007b0:	e59d0004 	ldr	r0, [sp, #4]
801007b4:	959d3030 	ldrls	r3, [sp, #48]	; 0x30
801007b8:	90811813 	addls	r1, r1, r3, lsl r8
801007bc:	e1d76000 	bics	r6, r7, r0
801007c0:	1a000025 	bne	8010085c <_RME_Pgt_Add+0x224>
801007c4:	e1a03007 	mov	r3, r7
801007c8:	e1a02005 	mov	r2, r5
801007cc:	e1a00004 	mov	r0, r4
801007d0:	eb001344 	bl	801054e8 <__RME_Pgt_Page_Map>
801007d4:	e1a00006 	mov	r0, r6
801007d8:	e28dd008 	add	sp, sp, #8
801007dc:	e8bd87f0 	pop	{r4, r5, r6, r7, r8, r9, sl, pc}
801007e0:	e5983014 	ldr	r3, [r8, #20]
801007e4:	e1590003 	cmp	r9, r3
801007e8:	3affffbd 	bcc	801006e4 <_RME_Pgt_Add+0xac>
801007ec:	e3e00002 	mvn	r0, #2
801007f0:	eafffff8 	b	801007d8 <_RME_Pgt_Add+0x1a0>
801007f4:	e5902014 	ldr	r2, [r0, #20]
801007f8:	e1a03421 	lsr	r3, r1, #8
801007fc:	e1530002 	cmp	r3, r2
80100800:	2afffff9 	bcs	801007ec <_RME_Pgt_Add+0x1b4>
80100804:	e590a00c 	ldr	sl, [r0, #12]
80100808:	e08aa283 	add	sl, sl, r3, lsl #5
8010080c:	e1a0000a 	mov	r0, sl
80100810:	eb015fba 	bl	80158700 <__RME_A7A_Read_Acquire>
80100814:	e7e73850 	ubfx	r3, r0, #16, #8
80100818:	e3530002 	cmp	r3, #2
8010081c:	0a000010 	beq	80100864 <_RME_Pgt_Add+0x22c>
80100820:	e1a00c20 	lsr	r0, r0, #24
80100824:	e3500003 	cmp	r0, #3
80100828:	1a000005 	bne	80100844 <_RME_Pgt_Add+0x20c>
8010082c:	e59a3014 	ldr	r3, [sl, #20]
80100830:	e204407f 	and	r4, r4, #127	; 0x7f
80100834:	e1540003 	cmp	r4, r3
80100838:	2affffeb 	bcs	801007ec <_RME_Pgt_Add+0x1b4>
8010083c:	e59a100c 	ldr	r1, [sl, #12]
80100840:	eaffff8a 	b	80100670 <_RME_Pgt_Add+0x38>
80100844:	e3e00001 	mvn	r0, #1
80100848:	eaffffe2 	b	801007d8 <_RME_Pgt_Add+0x1a0>
8010084c:	e3e00006 	mvn	r0, #6
80100850:	eaffffe0 	b	801007d8 <_RME_Pgt_Add+0x1a0>
80100854:	e3e00064 	mvn	r0, #100	; 0x64
80100858:	eaffffde 	b	801007d8 <_RME_Pgt_Add+0x1a0>
8010085c:	e3e00067 	mvn	r0, #103	; 0x67
80100860:	eaffffdc 	b	801007d8 <_RME_Pgt_Add+0x1a0>
80100864:	e3e00008 	mvn	r0, #8
80100868:	eaffffda 	b	801007d8 <_RME_Pgt_Add+0x1a0>

8010086c <_RME_Pgt_Con>:
8010086c:	e3110080 	tst	r1, #128	; 0x80
80100870:	e92d41f0 	push	{r4, r5, r6, r7, r8, lr}
80100874:	e1a04001 	mov	r4, r1
80100878:	e1a06000 	mov	r6, r0
8010087c:	e1a07002 	mov	r7, r2
80100880:	e1a05003 	mov	r5, r3
80100884:	1a000056 	bne	801009e4 <_RME_Pgt_Con+0x178>
80100888:	e5903014 	ldr	r3, [r0, #20]
8010088c:	e1510003 	cmp	r1, r3
80100890:	3590100c 	ldrcc	r1, [r0, #12]
80100894:	2a000050 	bcs	801009dc <_RME_Pgt_Con+0x170>
80100898:	e0814284 	add	r4, r1, r4, lsl #5
8010089c:	e1a00004 	mov	r0, r4
801008a0:	eb015f96 	bl	80158700 <__RME_A7A_Read_Acquire>
801008a4:	e7e73850 	ubfx	r3, r0, #16, #8
801008a8:	e3530002 	cmp	r3, #2
801008ac:	0a000066 	beq	80100a4c <_RME_Pgt_Con+0x1e0>
801008b0:	e1a00c20 	lsr	r0, r0, #24
801008b4:	e3500004 	cmp	r0, #4
801008b8:	1a00005d 	bne	80100a34 <_RME_Pgt_Con+0x1c8>
801008bc:	e3150080 	tst	r5, #128	; 0x80
801008c0:	0a000042 	beq	801009d0 <_RME_Pgt_Con+0x164>
801008c4:	e5962014 	ldr	r2, [r6, #20]
801008c8:	e1a03425 	lsr	r3, r5, #8
801008cc:	e1530002 	cmp	r3, r2
801008d0:	2a000041 	bcs	801009dc <_RME_Pgt_Con+0x170>
801008d4:	e596600c 	ldr	r6, [r6, #12]
801008d8:	e0866283 	add	r6, r6, r3, lsl #5
801008dc:	e1a00006 	mov	r0, r6
801008e0:	eb015f86 	bl	80158700 <__RME_A7A_Read_Acquire>
801008e4:	e7e73850 	ubfx	r3, r0, #16, #8
801008e8:	e3530002 	cmp	r3, #2
801008ec:	0a000056 	beq	80100a4c <_RME_Pgt_Con+0x1e0>
801008f0:	e1a00c20 	lsr	r0, r0, #24
801008f4:	e3500003 	cmp	r0, #3
801008f8:	1a00004d 	bne	80100a34 <_RME_Pgt_Con+0x1c8>
801008fc:	e5963014 	ldr	r3, [r6, #20]
80100900:	e205507f 	and	r5, r5, #127	; 0x7f
80100904:	e1550003 	cmp	r5, r3
80100908:	2a000033 	bcs	801009dc <_RME_Pgt_Con+0x170>
8010090c:	e596200c 	ldr	r2, [r6, #12]
80100910:	e0825285 	add	r5, r2, r5, lsl #5
80100914:	e1a00005 	mov	r0, r5
80100918:	eb015f78 	bl	80158700 <__RME_A7A_Read_Acquire>
8010091c:	e7e73850 	ubfx	r3, r0, #16, #8
80100920:	e3530002 	cmp	r3, #2
80100924:	0a000048 	beq	80100a4c <_RME_Pgt_Con+0x1e0>
80100928:	e1a00c20 	lsr	r0, r0, #24
8010092c:	e3500004 	cmp	r0, #4
80100930:	1a00003f 	bne	80100a34 <_RME_Pgt_Con+0x1c8>
80100934:	e5943008 	ldr	r3, [r4, #8]
80100938:	e3130010 	tst	r3, #16
8010093c:	0a000040 	beq	80100a44 <_RME_Pgt_Con+0x1d8>
80100940:	e5952008 	ldr	r2, [r5, #8]
80100944:	e3120008 	tst	r2, #8
80100948:	0a00003d 	beq	80100a44 <_RME_Pgt_Con+0x1d8>
8010094c:	e1570a23 	cmp	r7, r3, lsr #20
80100950:	8a00003b 	bhi	80100a44 <_RME_Pgt_Con+0x1d8>
80100954:	e7eb3453 	ubfx	r3, r3, #8, #12
80100958:	e1530007 	cmp	r3, r7
8010095c:	8a000038 	bhi	80100a44 <_RME_Pgt_Con+0x1d8>
80100960:	e5942014 	ldr	r2, [r4, #20]
80100964:	e6ff3072 	uxth	r3, r2
80100968:	e1b03337 	lsrs	r3, r7, r3
8010096c:	1a000032 	bne	80100a3c <_RME_Pgt_Con+0x1d0>
80100970:	e5953014 	ldr	r3, [r5, #20]
80100974:	e1a01823 	lsr	r1, r3, #16
80100978:	e6f13073 	uxtah	r3, r1, r3
8010097c:	e1530822 	cmp	r3, r2, lsr #16
80100980:	1a00002d 	bne	80100a3c <_RME_Pgt_Con+0x1d0>
80100984:	e59d3018 	ldr	r3, [sp, #24]
80100988:	e1a02005 	mov	r2, r5
8010098c:	e1a00004 	mov	r0, r4
80100990:	e1a01007 	mov	r1, r7
80100994:	eb0012d5 	bl	801054f0 <__RME_Pgt_Pgdir_Map>
80100998:	e1d430b0 	ldrh	r3, [r4]
8010099c:	e3a00000 	mov	r0, #0
801009a0:	e3530000 	cmp	r3, #0
801009a4:	15944004 	ldrne	r4, [r4, #4]
801009a8:	e5943004 	ldr	r3, [r4, #4]
801009ac:	e2833001 	add	r3, r3, #1
801009b0:	e5843004 	str	r3, [r4, #4]
801009b4:	e1d530b0 	ldrh	r3, [r5]
801009b8:	e3530000 	cmp	r3, #0
801009bc:	15955004 	ldrne	r5, [r5, #4]
801009c0:	e5953004 	ldr	r3, [r5, #4]
801009c4:	e2833001 	add	r3, r3, #1
801009c8:	e5853004 	str	r3, [r5, #4]
801009cc:	e8bd81f0 	pop	{r4, r5, r6, r7, r8, pc}
801009d0:	e5963014 	ldr	r3, [r6, #20]
801009d4:	e1550003 	cmp	r5, r3
801009d8:	3affffcb 	bcc	8010090c <_RME_Pgt_Con+0xa0>
801009dc:	e3e00002 	mvn	r0, #2
801009e0:	e8bd81f0 	pop	{r4, r5, r6, r7, r8, pc}
801009e4:	e5902014 	ldr	r2, [r0, #20]
801009e8:	e1a03421 	lsr	r3, r1, #8
801009ec:	e1530002 	cmp	r3, r2
801009f0:	2afffff9 	bcs	801009dc <_RME_Pgt_Con+0x170>
801009f4:	e590800c 	ldr	r8, [r0, #12]
801009f8:	e0888283 	add	r8, r8, r3, lsl #5
801009fc:	e1a00008 	mov	r0, r8
80100a00:	eb015f3e 	bl	80158700 <__RME_A7A_Read_Acquire>
80100a04:	e7e73850 	ubfx	r3, r0, #16, #8
80100a08:	e3530002 	cmp	r3, #2
80100a0c:	0a00000e 	beq	80100a4c <_RME_Pgt_Con+0x1e0>
80100a10:	e1a00c20 	lsr	r0, r0, #24
80100a14:	e3500003 	cmp	r0, #3
80100a18:	1a000005 	bne	80100a34 <_RME_Pgt_Con+0x1c8>
80100a1c:	e5983014 	ldr	r3, [r8, #20]
80100a20:	e204407f 	and	r4, r4, #127	; 0x7f
80100a24:	e1540003 	cmp	r4, r3
80100a28:	2affffeb 	bcs	801009dc <_RME_Pgt_Con+0x170>
80100a2c:	e598100c 	ldr	r1, [r8, #12]
80100a30:	eaffff98 	b	80100898 <_RME_Pgt_Con+0x2c>
80100a34:	e3e00001 	mvn	r0, #1
80100a38:	e8bd81f0 	pop	{r4, r5, r6, r7, r8, pc}
80100a3c:	e3e00064 	mvn	r0, #100	; 0x64
80100a40:	e8bd81f0 	pop	{r4, r5, r6, r7, r8, pc}
80100a44:	e3e00006 	mvn	r0, #6
80100a48:	e8bd81f0 	pop	{r4, r5, r6, r7, r8, pc}
80100a4c:	e3e00008 	mvn	r0, #8
80100a50:	e8bd81f0 	pop	{r4, r5, r6, r7, r8, pc}

80100a54 <_RME_Pgt_Des>:
80100a54:	e3110080 	tst	r1, #128	; 0x80
80100a58:	e92d41f0 	push	{r4, r5, r6, r7, r8, lr}
80100a5c:	e1a04001 	mov	r4, r1
80100a60:	e1a06000 	mov	r6, r0
80100a64:	e1a07002 	mov	r7, r2
80100a68:	e1a05003 	mov	r5, r3
80100a6c:	1a000051 	bne	80100bb8 <_RME_Pgt_Des+0x164>
80100a70:	e5903014 	ldr	r3, [r0, #20]
80100a74:	e1510003 	cmp	r1, r3
80100a78:	3590100c 	ldrcc	r1, [r0, #12]
80100a7c:	2a00004b 	bcs	80100bb0 <_RME_Pgt_Des+0x15c>
80100a80:	e0814284 	add	r4, r1, r4, lsl #5
80100a84:	e1a00004 	mov	r0, r4
80100a88:	eb015f1c 	bl	80158700 <__RME_A7A_Read_Acquire>
80100a8c:	e7e73850 	ubfx	r3, r0, #16, #8
80100a90:	e3530002 	cmp	r3, #2
80100a94:	0a000061 	beq	80100c20 <_RME_Pgt_Des+0x1cc>
80100a98:	e1a00c20 	lsr	r0, r0, #24
80100a9c:	e3500003 	cmp	r0, #3
80100aa0:	1a000058 	bne	80100c08 <_RME_Pgt_Des+0x1b4>
80100aa4:	e3150080 	tst	r5, #128	; 0x80
80100aa8:	0a00003d 	beq	80100ba4 <_RME_Pgt_Des+0x150>
80100aac:	e5962014 	ldr	r2, [r6, #20]
80100ab0:	e1a03425 	lsr	r3, r5, #8
80100ab4:	e1530002 	cmp	r3, r2
80100ab8:	2a00003c 	bcs	80100bb0 <_RME_Pgt_Des+0x15c>
80100abc:	e596600c 	ldr	r6, [r6, #12]
80100ac0:	e0866283 	add	r6, r6, r3, lsl #5
80100ac4:	e1a00006 	mov	r0, r6
80100ac8:	eb015f0c 	bl	80158700 <__RME_A7A_Read_Acquire>
80100acc:	e7e73850 	ubfx	r3, r0, #16, #8
80100ad0:	e3530002 	cmp	r3, #2
80100ad4:	0a000051 	beq	80100c20 <_RME_Pgt_Des+0x1cc>
80100ad8:	e1a00c20 	lsr	r0, r0, #24
80100adc:	e3500003 	cmp	r0, #3
80100ae0:	1a000048 	bne	80100c08 <_RME_Pgt_Des+0x1b4>
80100ae4:	e5963014 	ldr	r3, [r6, #20]
80100ae8:	e205507f 	and	r5, r5, #127	; 0x7f
80100aec:	e1550003 	cmp	r5, r3
80100af0:	2a00002e 	bcs	80100bb0 <_RME_Pgt_Des+0x15c>
80100af4:	e596200c 	ldr	r2, [r6, #12]
80100af8:	e0825285 	add	r5, r2, r5, lsl #5
80100afc:	e1a00005 	mov	r0, r5
80100b00:	eb015efe 	bl	80158700 <__RME_A7A_Read_Acquire>
80100b04:	e7e73850 	ubfx	r3, r0, #16, #8
80100b08:	e3530002 	cmp	r3, #2
80100b0c:	0a000043 	beq	80100c20 <_RME_Pgt_Des+0x1cc>
80100b10:	e1a00c20 	lsr	r0, r0, #24
80100b14:	e3500003 	cmp	r0, #3
80100b18:	1a00003a 	bne	80100c08 <_RME_Pgt_Des+0x1b4>
80100b1c:	e5943008 	ldr	r3, [r4, #8]
80100b20:	e3130020 	tst	r3, #32
80100b24:	0a000039 	beq	80100c10 <_RME_Pgt_Des+0x1bc>
80100b28:	e5952008 	ldr	r2, [r5, #8]
80100b2c:	e3120008 	tst	r2, #8
80100b30:	0a000036 	beq	80100c10 <_RME_Pgt_Des+0x1bc>
80100b34:	e1570a23 	cmp	r7, r3, lsr #20
80100b38:	8a000034 	bhi	80100c10 <_RME_Pgt_Des+0x1bc>
80100b3c:	e7eb3453 	ubfx	r3, r3, #8, #12
80100b40:	e1530007 	cmp	r3, r7
80100b44:	8a000031 	bhi	80100c10 <_RME_Pgt_Des+0x1bc>
80100b48:	e1d431b4 	ldrh	r3, [r4, #20]
80100b4c:	e1b03337 	lsrs	r3, r7, r3
80100b50:	1a000030 	bne	80100c18 <_RME_Pgt_Des+0x1c4>
80100b54:	e1a02005 	mov	r2, r5
80100b58:	e1a01007 	mov	r1, r7
80100b5c:	e1a00004 	mov	r0, r4
80100b60:	eb001263 	bl	801054f4 <__RME_Pgt_Pgdir_Unmap>
80100b64:	e3500000 	cmp	r0, #0
80100b68:	ba00002e 	blt	80100c28 <_RME_Pgt_Des+0x1d4>
80100b6c:	e1d430b0 	ldrh	r3, [r4]
80100b70:	e3a00000 	mov	r0, #0
80100b74:	e3530000 	cmp	r3, #0
80100b78:	15944004 	ldrne	r4, [r4, #4]
80100b7c:	e5943004 	ldr	r3, [r4, #4]
80100b80:	e2433001 	sub	r3, r3, #1
80100b84:	e5843004 	str	r3, [r4, #4]
80100b88:	e1d530b0 	ldrh	r3, [r5]
80100b8c:	e3530000 	cmp	r3, #0
80100b90:	15955004 	ldrne	r5, [r5, #4]
80100b94:	e5953004 	ldr	r3, [r5, #4]
80100b98:	e2433001 	sub	r3, r3, #1
80100b9c:	e5853004 	str	r3, [r5, #4]
80100ba0:	e8bd81f0 	pop	{r4, r5, r6, r7, r8, pc}
80100ba4:	e5963014 	ldr	r3, [r6, #20]
80100ba8:	e1550003 	cmp	r5, r3
80100bac:	3affffd0 	bcc	80100af4 <_RME_Pgt_Des+0xa0>
80100bb0:	e3e00002 	mvn	r0, #2
80100bb4:	e8bd81f0 	pop	{r4, r5, r6, r7, r8, pc}
80100bb8:	e5902014 	ldr	r2, [r0, #20]
80100bbc:	e1a03421 	lsr	r3, r1, #8
80100bc0:	e1530002 	cmp	r3, r2
80100bc4:	2afffff9 	bcs	80100bb0 <_RME_Pgt_Des+0x15c>
80100bc8:	e590800c 	ldr	r8, [r0, #12]
80100bcc:	e0888283 	add	r8, r8, r3, lsl #5
80100bd0:	e1a00008 	mov	r0, r8
80100bd4:	eb015ec9 	bl	80158700 <__RME_A7A_Read_Acquire>
80100bd8:	e7e73850 	ubfx	r3, r0, #16, #8
80100bdc:	e3530002 	cmp	r3, #2
80100be0:	0a00000e 	beq	80100c20 <_RME_Pgt_Des+0x1cc>
80100be4:	e1a00c20 	lsr	r0, r0, #24
80100be8:	e3500003 	cmp	r0, #3
80100bec:	1a000005 	bne	80100c08 <_RME_Pgt_Des+0x1b4>
80100bf0:	e5983014 	ldr	r3, [r8, #20]
80100bf4:	e204407f 	and	r4, r4, #127	; 0x7f
80100bf8:	e1540003 	cmp	r4, r3
80100bfc:	2affffeb 	bcs	80100bb0 <_RME_Pgt_Des+0x15c>
80100c00:	e598100c 	ldr	r1, [r8, #12]
80100c04:	eaffff9d 	b	80100a80 <_RME_Pgt_Des+0x2c>
80100c08:	e3e00001 	mvn	r0, #1
80100c0c:	e8bd81f0 	pop	{r4, r5, r6, r7, r8, pc}
80100c10:	e3e00006 	mvn	r0, #6
80100c14:	e8bd81f0 	pop	{r4, r5, r6, r7, r8, pc}
80100c18:	e3e00064 	mvn	r0, #100	; 0x64
80100c1c:	e8bd81f0 	pop	{r4, r5, r6, r7, r8, pc}
80100c20:	e3e00008 	mvn	r0, #8
80100c24:	e8bd81f0 	pop	{r4, r5, r6, r7, r8, pc}
80100c28:	e3e00065 	mvn	r0, #101	; 0x65
80100c2c:	e8bd81f0 	pop	{r4, r5, r6, r7, r8, pc}

80100c30 <RME_Int_Print>:
80100c30:	e92d41f0 	push	{r4, r5, r6, r7, r8, lr}
80100c34:	e2507000 	subs	r7, r0, #0
80100c38:	0a000024 	beq	80100cd0 <RME_Int_Print+0xa0>
80100c3c:	a3a06001 	movge	r6, #1
80100c40:	a3a00000 	movge	r0, #0
80100c44:	ba00001b 	blt	80100cb8 <RME_Int_Print+0x88>
80100c48:	e30c2ccd 	movw	r2, #52429	; 0xcccd
80100c4c:	e34c2ccc 	movt	r2, #52428	; 0xcccc
80100c50:	e0831792 	umull	r1, r3, r2, r7
80100c54:	e1b031a3 	lsrs	r3, r3, #3
80100c58:	0a000021 	beq	80100ce4 <RME_Int_Print+0xb4>
80100c5c:	e3a05001 	mov	r5, #1
80100c60:	e3a0100a 	mov	r1, #10
80100c64:	e1a04005 	mov	r4, r5
80100c68:	e083c392 	umull	ip, r3, r2, r3
80100c6c:	e0040491 	mul	r4, r1, r4
80100c70:	e1b031a3 	lsrs	r3, r3, #3
80100c74:	e2855001 	add	r5, r5, #1
80100c78:	1afffffa 	bne	80100c68 <RME_Int_Print+0x38>
80100c7c:	e0806005 	add	r6, r0, r5
80100c80:	e30c8ccd 	movw	r8, #52429	; 0xcccd
80100c84:	e34c8ccc 	movt	r8, #52428	; 0xcccc
80100c88:	e733f417 	udiv	r3, r7, r4
80100c8c:	e2830030 	add	r0, r3, #48	; 0x30
80100c90:	e2455001 	sub	r5, r5, #1
80100c94:	e6af0070 	sxtb	r0, r0
80100c98:	e0677394 	mls	r7, r4, r3, r7
80100c9c:	e0843498 	umull	r3, r4, r8, r4
80100ca0:	eb0010e7 	bl	80105044 <__RME_Putchar>
80100ca4:	e1a041a4 	lsr	r4, r4, #3
80100ca8:	e3550000 	cmp	r5, #0
80100cac:	1afffff5 	bne	80100c88 <RME_Int_Print+0x58>
80100cb0:	e1a00006 	mov	r0, r6
80100cb4:	e8bd81f0 	pop	{r4, r5, r6, r7, r8, pc}
80100cb8:	e3a0002d 	mov	r0, #45	; 0x2d
80100cbc:	e2677000 	rsb	r7, r7, #0
80100cc0:	e3a06002 	mov	r6, #2
80100cc4:	eb0010de 	bl	80105044 <__RME_Putchar>
80100cc8:	e3a00001 	mov	r0, #1
80100ccc:	eaffffdd 	b	80100c48 <RME_Int_Print+0x18>
80100cd0:	e3a06001 	mov	r6, #1
80100cd4:	e3a00030 	mov	r0, #48	; 0x30
80100cd8:	eb0010d9 	bl	80105044 <__RME_Putchar>
80100cdc:	e1a00006 	mov	r0, r6
80100ce0:	e8bd81f0 	pop	{r4, r5, r6, r7, r8, pc}
80100ce4:	e2870030 	add	r0, r7, #48	; 0x30
80100ce8:	e6af0070 	sxtb	r0, r0
80100cec:	eb0010d4 	bl	80105044 <__RME_Putchar>
80100cf0:	eaffffee 	b	80100cb0 <RME_Int_Print+0x80>

80100cf4 <RME_Str_Print>:
80100cf4:	e92d4070 	push	{r4, r5, r6, lr}
80100cf8:	e3a04000 	mov	r4, #0
80100cfc:	e1a05000 	mov	r5, r0
80100d00:	ea000003 	b	80100d14 <RME_Str_Print+0x20>
80100d04:	e2844002 	add	r4, r4, #2
80100d08:	eb0010cd 	bl	80105044 <__RME_Putchar>
80100d0c:	e3540c01 	cmp	r4, #256	; 0x100
80100d10:	0a000002 	beq	80100d20 <RME_Str_Print+0x2c>
80100d14:	e19500d4 	ldrsb	r0, [r5, r4]
80100d18:	e3500000 	cmp	r0, #0
80100d1c:	1afffff8 	bne	80100d04 <RME_Str_Print+0x10>
80100d20:	e1a00004 	mov	r0, r4
80100d24:	e8bd8070 	pop	{r4, r5, r6, pc}

80100d28 <RME_Log>:
80100d28:	e92d47f0 	push	{r4, r5, r6, r7, r8, r9, sl, lr}
80100d2c:	e3084898 	movw	r4, #34968	; 0x8898
80100d30:	e3484015 	movt	r4, #32789	; 0x8015
80100d34:	e1a08000 	mov	r8, r0
80100d38:	e1a07001 	mov	r7, r1
80100d3c:	e1a06002 	mov	r6, r2
80100d40:	e1a05003 	mov	r5, r3
80100d44:	e28490fe 	add	r9, r4, #254	; 0xfe
80100d48:	e3a0000d 	mov	r0, #13
80100d4c:	eb0010bc 	bl	80105044 <__RME_Putchar>
80100d50:	e1540009 	cmp	r4, r9
80100d54:	0a000059 	beq	80100ec0 <RME_Log+0x198>
80100d58:	e1f400d2 	ldrsb	r0, [r4, #2]!
80100d5c:	e3500000 	cmp	r0, #0
80100d60:	1afffff9 	bne	80100d4c <RME_Log+0x24>
80100d64:	e1a04000 	mov	r4, r0
80100d68:	ea000002 	b	80100d78 <RME_Log+0x50>
80100d6c:	eb0010b4 	bl	80105044 <__RME_Putchar>
80100d70:	e3540c01 	cmp	r4, #256	; 0x100
80100d74:	0a000003 	beq	80100d88 <RME_Log+0x60>
80100d78:	e19800d4 	ldrsb	r0, [r8, r4]
80100d7c:	e2844002 	add	r4, r4, #2
80100d80:	e3500000 	cmp	r0, #0
80100d84:	1afffff8 	bne	80100d6c <RME_Log+0x44>
80100d88:	e30848c0 	movw	r4, #35008	; 0x88c0
80100d8c:	e3a00020 	mov	r0, #32
80100d90:	e3484015 	movt	r4, #32789	; 0x8015
80100d94:	e28480fe 	add	r8, r4, #254	; 0xfe
80100d98:	eb0010a9 	bl	80105044 <__RME_Putchar>
80100d9c:	e1580004 	cmp	r8, r4
80100da0:	0a000002 	beq	80100db0 <RME_Log+0x88>
80100da4:	e1f400d2 	ldrsb	r0, [r4, #2]!
80100da8:	e3500000 	cmp	r0, #0
80100dac:	1afffff9 	bne	80100d98 <RME_Log+0x70>
80100db0:	e3570000 	cmp	r7, #0
80100db4:	0a00003e 	beq	80100eb4 <RME_Log+0x18c>
80100db8:	ba000039 	blt	80100ea4 <RME_Log+0x17c>
80100dbc:	e30c2ccd 	movw	r2, #52429	; 0xcccd
80100dc0:	e34c2ccc 	movt	r2, #52428	; 0xcccc
80100dc4:	e0831792 	umull	r1, r3, r2, r7
80100dc8:	e1b031a3 	lsrs	r3, r3, #3
80100dcc:	0a00003f 	beq	80100ed0 <RME_Log+0x1a8>
80100dd0:	e3a04001 	mov	r4, #1
80100dd4:	e3a0100a 	mov	r1, #10
80100dd8:	e1a08004 	mov	r8, r4
80100ddc:	e0830392 	umull	r0, r3, r2, r3
80100de0:	e0040491 	mul	r4, r1, r4
80100de4:	e1b031a3 	lsrs	r3, r3, #3
80100de8:	e2888001 	add	r8, r8, #1
80100dec:	1afffffa 	bne	80100ddc <RME_Log+0xb4>
80100df0:	e30c9ccd 	movw	r9, #52429	; 0xcccd
80100df4:	e34c9ccc 	movt	r9, #52428	; 0xcccc
80100df8:	e733f417 	udiv	r3, r7, r4
80100dfc:	e2830030 	add	r0, r3, #48	; 0x30
80100e00:	e2488001 	sub	r8, r8, #1
80100e04:	e6af0070 	sxtb	r0, r0
80100e08:	e0677394 	mls	r7, r4, r3, r7
80100e0c:	e0843499 	umull	r3, r4, r9, r4
80100e10:	eb00108b 	bl	80105044 <__RME_Putchar>
80100e14:	e1a041a4 	lsr	r4, r4, #3
80100e18:	e3580000 	cmp	r8, #0
80100e1c:	1afffff5 	bne	80100df8 <RME_Log+0xd0>
80100e20:	e3a0000d 	mov	r0, #13
80100e24:	e3a04000 	mov	r4, #0
80100e28:	eb001085 	bl	80105044 <__RME_Putchar>
80100e2c:	ea000002 	b	80100e3c <RME_Log+0x114>
80100e30:	eb001083 	bl	80105044 <__RME_Putchar>
80100e34:	e3540c01 	cmp	r4, #256	; 0x100
80100e38:	0a000003 	beq	80100e4c <RME_Log+0x124>
80100e3c:	e19600d4 	ldrsb	r0, [r6, r4]
80100e40:	e2844002 	add	r4, r4, #2
80100e44:	e3500000 	cmp	r0, #0
80100e48:	1afffff8 	bne	80100e30 <RME_Log+0x108>
80100e4c:	e30848cc 	movw	r4, #35020	; 0x88cc
80100e50:	e3a00020 	mov	r0, #32
80100e54:	e3484015 	movt	r4, #32789	; 0x8015
80100e58:	e28460fe 	add	r6, r4, #254	; 0xfe
80100e5c:	eb001078 	bl	80105044 <__RME_Putchar>
80100e60:	e1560004 	cmp	r6, r4
80100e64:	0a000017 	beq	80100ec8 <RME_Log+0x1a0>
80100e68:	e1f400d2 	ldrsb	r0, [r4, #2]!
80100e6c:	e3500000 	cmp	r0, #0
80100e70:	1afffff9 	bne	80100e5c <RME_Log+0x134>
80100e74:	e1a04000 	mov	r4, r0
80100e78:	ea000002 	b	80100e88 <RME_Log+0x160>
80100e7c:	eb001070 	bl	80105044 <__RME_Putchar>
80100e80:	e3540c01 	cmp	r4, #256	; 0x100
80100e84:	0a000003 	beq	80100e98 <RME_Log+0x170>
80100e88:	e19500d4 	ldrsb	r0, [r5, r4]
80100e8c:	e2844002 	add	r4, r4, #2
80100e90:	e3500000 	cmp	r0, #0
80100e94:	1afffff8 	bne	80100e7c <RME_Log+0x154>
80100e98:	e8bd47f0 	pop	{r4, r5, r6, r7, r8, r9, sl, lr}
80100e9c:	e3a0000d 	mov	r0, #13
80100ea0:	ea001067 	b	80105044 <__RME_Putchar>
80100ea4:	e3a0002d 	mov	r0, #45	; 0x2d
80100ea8:	e2677000 	rsb	r7, r7, #0
80100eac:	eb001064 	bl	80105044 <__RME_Putchar>
80100eb0:	eaffffc1 	b	80100dbc <RME_Log+0x94>
80100eb4:	e3a00030 	mov	r0, #48	; 0x30
80100eb8:	eb001061 	bl	80105044 <__RME_Putchar>
80100ebc:	eaffffd7 	b	80100e20 <RME_Log+0xf8>
80100ec0:	e3a04000 	mov	r4, #0
80100ec4:	eaffffab 	b	80100d78 <RME_Log+0x50>
80100ec8:	e3a04000 	mov	r4, #0
80100ecc:	eaffffed 	b	80100e88 <RME_Log+0x160>
80100ed0:	e2870030 	add	r0, r7, #48	; 0x30
80100ed4:	e6af0070 	sxtb	r0, r0
80100ed8:	eb001059 	bl	80105044 <__RME_Putchar>
80100edc:	eaffffcf 	b	80100e20 <RME_Log+0xf8>

80100ee0 <_RME_Run_High>:
80100ee0:	e92d4010 	push	{r4, lr}
80100ee4:	e1a04000 	mov	r4, r0
80100ee8:	e5900010 	ldr	r0, [r0, #16]
80100eec:	e3500000 	cmp	r0, #0
80100ef0:	1a000008 	bne	80100f18 <_RME_Run_High+0x38>
80100ef4:	e30838d0 	movw	r3, #35024	; 0x88d0
80100ef8:	e30828dc 	movw	r2, #35036	; 0x88dc
80100efc:	e3483015 	movt	r3, #32789	; 0x8015
80100f00:	e30808e8 	movw	r0, #35048	; 0x88e8
80100f04:	e3482015 	movt	r2, #32789	; 0x8015
80100f08:	e3011186 	movw	r1, #4486	; 0x1186
80100f0c:	e3480015 	movt	r0, #32789	; 0x8015
80100f10:	ebffff84 	bl	80100d28 <RME_Log>
80100f14:	eafffffe 	b	80100f14 <_RME_Run_High+0x34>
80100f18:	eb015e06 	bl	80158738 <__RME_A7A_MSB_Get>
80100f1c:	e0844180 	add	r4, r4, r0, lsl #3
80100f20:	e5940014 	ldr	r0, [r4, #20]
80100f24:	e8bd8010 	pop	{r4, pc}

80100f28 <_RME_Thd_Sched_Bind>:
80100f28:	e3110080 	tst	r1, #128	; 0x80
80100f2c:	e92d47f0 	push	{r4, r5, r6, r7, r8, r9, sl, lr}
80100f30:	e1a05001 	mov	r5, r1
80100f34:	e59d8028 	ldr	r8, [sp, #40]	; 0x28
80100f38:	e1a04000 	mov	r4, r0
80100f3c:	e1a06002 	mov	r6, r2
80100f40:	e1a07003 	mov	r7, r3
80100f44:	1a00006e 	bne	80101104 <_RME_Thd_Sched_Bind+0x1dc>
80100f48:	e5903014 	ldr	r3, [r0, #20]
80100f4c:	e1510003 	cmp	r1, r3
80100f50:	3590100c 	ldrcc	r1, [r0, #12]
80100f54:	2a00009b 	bcs	801011c8 <_RME_Thd_Sched_Bind+0x2a0>
80100f58:	e0815285 	add	r5, r1, r5, lsl #5
80100f5c:	e1a00005 	mov	r0, r5
80100f60:	eb015de6 	bl	80158700 <__RME_A7A_Read_Acquire>
80100f64:	e7e73850 	ubfx	r3, r0, #16, #8
80100f68:	e3530002 	cmp	r3, #2
80100f6c:	0a0000c5 	beq	80101288 <_RME_Thd_Sched_Bind+0x360>
80100f70:	e1a00c20 	lsr	r0, r0, #24
80100f74:	e3500006 	cmp	r0, #6
80100f78:	1a0000b0 	bne	80101240 <_RME_Thd_Sched_Bind+0x318>
80100f7c:	e3160080 	tst	r6, #128	; 0x80
80100f80:	0a000073 	beq	80101154 <_RME_Thd_Sched_Bind+0x22c>
80100f84:	e5942014 	ldr	r2, [r4, #20]
80100f88:	e1a03426 	lsr	r3, r6, #8
80100f8c:	e1530002 	cmp	r3, r2
80100f90:	2a00008c 	bcs	801011c8 <_RME_Thd_Sched_Bind+0x2a0>
80100f94:	e594900c 	ldr	r9, [r4, #12]
80100f98:	e0899283 	add	r9, r9, r3, lsl #5
80100f9c:	e1a00009 	mov	r0, r9
80100fa0:	eb015dd6 	bl	80158700 <__RME_A7A_Read_Acquire>
80100fa4:	e7e73850 	ubfx	r3, r0, #16, #8
80100fa8:	e3530002 	cmp	r3, #2
80100fac:	0a0000b5 	beq	80101288 <_RME_Thd_Sched_Bind+0x360>
80100fb0:	e1a00c20 	lsr	r0, r0, #24
80100fb4:	e3500003 	cmp	r0, #3
80100fb8:	1a0000a0 	bne	80101240 <_RME_Thd_Sched_Bind+0x318>
80100fbc:	e5993014 	ldr	r3, [r9, #20]
80100fc0:	e206607f 	and	r6, r6, #127	; 0x7f
80100fc4:	e1560003 	cmp	r6, r3
80100fc8:	2a00007e 	bcs	801011c8 <_RME_Thd_Sched_Bind+0x2a0>
80100fcc:	e599200c 	ldr	r2, [r9, #12]
80100fd0:	e0826286 	add	r6, r2, r6, lsl #5
80100fd4:	e1a00006 	mov	r0, r6
80100fd8:	eb015dc8 	bl	80158700 <__RME_A7A_Read_Acquire>
80100fdc:	e7e73850 	ubfx	r3, r0, #16, #8
80100fe0:	e3530002 	cmp	r3, #2
80100fe4:	0a0000a7 	beq	80101288 <_RME_Thd_Sched_Bind+0x360>
80100fe8:	e1a00c20 	lsr	r0, r0, #24
80100fec:	e3500006 	cmp	r0, #6
80100ff0:	1a000092 	bne	80101240 <_RME_Thd_Sched_Bind+0x318>
80100ff4:	e5953008 	ldr	r3, [r5, #8]
80100ff8:	e3130002 	tst	r3, #2
80100ffc:	0a00009f 	beq	80101280 <_RME_Thd_Sched_Bind+0x358>
80101000:	e5963008 	ldr	r3, [r6, #8]
80101004:	e3130004 	tst	r3, #4
80101008:	0a00009c 	beq	80101280 <_RME_Thd_Sched_Bind+0x358>
8010100c:	e3570902 	cmp	r7, #32768	; 0x8000
80101010:	0a000058 	beq	80101178 <_RME_Thd_Sched_Bind+0x250>
80101014:	e3170080 	tst	r7, #128	; 0x80
80101018:	1a000058 	bne	80101180 <_RME_Thd_Sched_Bind+0x258>
8010101c:	e5943014 	ldr	r3, [r4, #20]
80101020:	e1570003 	cmp	r7, r3
80101024:	2a000067 	bcs	801011c8 <_RME_Thd_Sched_Bind+0x2a0>
80101028:	e594300c 	ldr	r3, [r4, #12]
8010102c:	e0837287 	add	r7, r3, r7, lsl #5
80101030:	e1a00007 	mov	r0, r7
80101034:	eb015db1 	bl	80158700 <__RME_A7A_Read_Acquire>
80101038:	e7e73850 	ubfx	r3, r0, #16, #8
8010103c:	e3530002 	cmp	r3, #2
80101040:	0a000090 	beq	80101288 <_RME_Thd_Sched_Bind+0x360>
80101044:	e1a00c20 	lsr	r0, r0, #24
80101048:	e3500008 	cmp	r0, #8
8010104c:	1a00007b 	bne	80101240 <_RME_Thd_Sched_Bind+0x318>
80101050:	e5973008 	ldr	r3, [r7, #8]
80101054:	e3130020 	tst	r3, #32
80101058:	0a000088 	beq	80101280 <_RME_Thd_Sched_Bind+0x358>
8010105c:	e595300c 	ldr	r3, [r5, #12]
80101060:	e5932014 	ldr	r2, [r3, #20]
80101064:	e3720001 	cmn	r2, #1
80101068:	1a00007f 	bne	8010126c <_RME_Thd_Sched_Bind+0x344>
8010106c:	e596100c 	ldr	r1, [r6, #12]
80101070:	e3090000 	movw	r0, #36864	; 0x9000
80101074:	e3480095 	movt	r0, #32917	; 0x8095
80101078:	e5912014 	ldr	r2, [r1, #20]
8010107c:	e1520000 	cmp	r2, r0
80101080:	1a000079 	bne	8010126c <_RME_Thd_Sched_Bind+0x344>
80101084:	e1530001 	cmp	r3, r1
80101088:	0a000082 	beq	80101298 <_RME_Thd_Sched_Bind+0x370>
8010108c:	e5912024 	ldr	r2, [r1, #36]	; 0x24
80101090:	e59dc024 	ldr	ip, [sp, #36]	; 0x24
80101094:	e152000c 	cmp	r2, ip
80101098:	3a00007c 	bcc	80101290 <_RME_Thd_Sched_Bind+0x368>
8010109c:	e5932044 	ldr	r2, [r3, #68]	; 0x44
801010a0:	e3d2c102 	bics	ip, r2, #-2147483648	; 0x80000000
801010a4:	1a000075 	bne	80101280 <_RME_Thd_Sched_Bind+0x358>
801010a8:	e258c000 	subs	ip, r8, #0
801010ac:	e1a02fa2 	lsr	r2, r2, #31
801010b0:	13a0c001 	movne	ip, #1
801010b4:	e11c0002 	tst	ip, r2
801010b8:	0a00002a 	beq	80101168 <_RME_Thd_Sched_Bind+0x240>
801010bc:	e2182003 	ands	r2, r8, #3
801010c0:	13a02001 	movne	r2, #1
801010c4:	e378021e 	cmn	r8, #-536870911	; 0xe0000001
801010c8:	83a0c000 	movhi	ip, #0
801010cc:	93a0c001 	movls	ip, #1
801010d0:	e192200c 	orrs	r2, r2, ip
801010d4:	1a000025 	bne	80101170 <_RME_Thd_Sched_Bind+0x248>
801010d8:	e3a02000 	mov	r2, #0
801010dc:	e288c044 	add	ip, r8, #68	; 0x44
801010e0:	e3422002 	movt	r2, #8194	; 0x2002
801010e4:	e15c0002 	cmp	ip, r2
801010e8:	9158000c 	cmpls	r8, ip
801010ec:	2a00001f 	bcs	80101170 <_RME_Thd_Sched_Bind+0x248>
801010f0:	e5932014 	ldr	r2, [r3, #20]
801010f4:	e3720001 	cmn	r2, #1
801010f8:	0a000034 	beq	801011d0 <_RME_Thd_Sched_Bind+0x2a8>
801010fc:	e3e000c9 	mvn	r0, #201	; 0xc9
80101100:	e8bd87f0 	pop	{r4, r5, r6, r7, r8, r9, sl, pc}
80101104:	e5902014 	ldr	r2, [r0, #20]
80101108:	e1a03421 	lsr	r3, r1, #8
8010110c:	e1530002 	cmp	r3, r2
80101110:	2a00002c 	bcs	801011c8 <_RME_Thd_Sched_Bind+0x2a0>
80101114:	e590900c 	ldr	r9, [r0, #12]
80101118:	e0899283 	add	r9, r9, r3, lsl #5
8010111c:	e1a00009 	mov	r0, r9
80101120:	eb015d76 	bl	80158700 <__RME_A7A_Read_Acquire>
80101124:	e7e73850 	ubfx	r3, r0, #16, #8
80101128:	e3530002 	cmp	r3, #2
8010112c:	0a000055 	beq	80101288 <_RME_Thd_Sched_Bind+0x360>
80101130:	e1a00c20 	lsr	r0, r0, #24
80101134:	e3500003 	cmp	r0, #3
80101138:	1a000040 	bne	80101240 <_RME_Thd_Sched_Bind+0x318>
8010113c:	e5993014 	ldr	r3, [r9, #20]
80101140:	e205507f 	and	r5, r5, #127	; 0x7f
80101144:	e1550003 	cmp	r5, r3
80101148:	2a00001e 	bcs	801011c8 <_RME_Thd_Sched_Bind+0x2a0>
8010114c:	e599100c 	ldr	r1, [r9, #12]
80101150:	eaffff80 	b	80100f58 <_RME_Thd_Sched_Bind+0x30>
80101154:	e5943014 	ldr	r3, [r4, #20]
80101158:	e1560003 	cmp	r6, r3
8010115c:	2a000019 	bcs	801011c8 <_RME_Thd_Sched_Bind+0x2a0>
80101160:	e594200c 	ldr	r2, [r4, #12]
80101164:	eaffff99 	b	80100fd0 <_RME_Thd_Sched_Bind+0xa8>
80101168:	e15c0002 	cmp	ip, r2
8010116c:	0affffdf 	beq	801010f0 <_RME_Thd_Sched_Bind+0x1c8>
80101170:	e3e000ca 	mvn	r0, #202	; 0xca
80101174:	e8bd87f0 	pop	{r4, r5, r6, r7, r8, r9, sl, pc}
80101178:	e3a07000 	mov	r7, #0
8010117c:	eaffffb6 	b	8010105c <_RME_Thd_Sched_Bind+0x134>
80101180:	e5942014 	ldr	r2, [r4, #20]
80101184:	e1a03427 	lsr	r3, r7, #8
80101188:	e1530002 	cmp	r3, r2
8010118c:	2a00000d 	bcs	801011c8 <_RME_Thd_Sched_Bind+0x2a0>
80101190:	e594400c 	ldr	r4, [r4, #12]
80101194:	e0844283 	add	r4, r4, r3, lsl #5
80101198:	e1a00004 	mov	r0, r4
8010119c:	eb015d57 	bl	80158700 <__RME_A7A_Read_Acquire>
801011a0:	e7e73850 	ubfx	r3, r0, #16, #8
801011a4:	e3530002 	cmp	r3, #2
801011a8:	0a000036 	beq	80101288 <_RME_Thd_Sched_Bind+0x360>
801011ac:	e1a00c20 	lsr	r0, r0, #24
801011b0:	e3500003 	cmp	r0, #3
801011b4:	1a000021 	bne	80101240 <_RME_Thd_Sched_Bind+0x318>
801011b8:	e5943014 	ldr	r3, [r4, #20]
801011bc:	e207707f 	and	r7, r7, #127	; 0x7f
801011c0:	e1570003 	cmp	r7, r3
801011c4:	3affff97 	bcc	80101028 <_RME_Thd_Sched_Bind+0x100>
801011c8:	e3e00002 	mvn	r0, #2
801011cc:	e8bd87f0 	pop	{r4, r5, r6, r7, r8, r9, sl, pc}
801011d0:	e5830014 	str	r0, [r3, #20]
801011d4:	e5912030 	ldr	r2, [r1, #48]	; 0x30
801011d8:	e2822001 	add	r2, r2, #1
801011dc:	e5812030 	str	r2, [r1, #48]	; 0x30
801011e0:	e593201c 	ldr	r2, [r3, #28]
801011e4:	e5831034 	str	r1, [r3, #52]	; 0x34
801011e8:	e59d1024 	ldr	r1, [sp, #36]	; 0x24
801011ec:	e2422002 	sub	r2, r2, #2
801011f0:	e3520001 	cmp	r2, #1
801011f4:	e5831020 	str	r1, [r3, #32]
801011f8:	e59d1020 	ldr	r1, [sp, #32]
801011fc:	e5831010 	str	r1, [r3, #16]
80101200:	8a000010 	bhi	80101248 <_RME_Thd_Sched_Bind+0x320>
80101204:	e3570000 	cmp	r7, #0
80101208:	05837038 	streq	r7, [r3, #56]	; 0x38
8010120c:	0a000006 	beq	8010122c <_RME_Thd_Sched_Bind+0x304>
80101210:	e1d720b0 	ldrh	r2, [r7]
80101214:	e3520000 	cmp	r2, #0
80101218:	15977004 	ldrne	r7, [r7, #4]
8010121c:	e5837038 	str	r7, [r3, #56]	; 0x38
80101220:	e5972004 	ldr	r2, [r7, #4]
80101224:	e2822001 	add	r2, r2, #1
80101228:	e5872004 	str	r2, [r7, #4]
8010122c:	e5932044 	ldr	r2, [r3, #68]	; 0x44
80101230:	e3520000 	cmp	r2, #0
80101234:	ba00000e 	blt	80101274 <_RME_Thd_Sched_Bind+0x34c>
80101238:	e3a00000 	mov	r0, #0
8010123c:	e8bd87f0 	pop	{r4, r5, r6, r7, r8, r9, sl, pc}
80101240:	e3e00001 	mvn	r0, #1
80101244:	e8bd87f0 	pop	{r4, r5, r6, r7, r8, r9, sl, pc}
80101248:	e30838d0 	movw	r3, #35024	; 0x88d0
8010124c:	e30828dc 	movw	r2, #35036	; 0x88dc
80101250:	e3483015 	movt	r3, #32789	; 0x8015
80101254:	e30808e8 	movw	r0, #35048	; 0x88e8
80101258:	e3482015 	movt	r2, #32789	; 0x8015
8010125c:	e3011620 	movw	r1, #5664	; 0x1620
80101260:	e3480015 	movt	r0, #32789	; 0x8015
80101264:	ebfffeaf 	bl	80100d28 <RME_Log>
80101268:	eafffffe 	b	80101268 <_RME_Thd_Sched_Bind+0x340>
8010126c:	e3e000cb 	mvn	r0, #203	; 0xcb
80101270:	e8bd87f0 	pop	{r4, r5, r6, r7, r8, r9, sl, pc}
80101274:	e5838048 	str	r8, [r3, #72]	; 0x48
80101278:	e3a00000 	mov	r0, #0
8010127c:	e8bd87f0 	pop	{r4, r5, r6, r7, r8, r9, sl, pc}
80101280:	e3e00006 	mvn	r0, #6
80101284:	e8bd87f0 	pop	{r4, r5, r6, r7, r8, r9, sl, pc}
80101288:	e3e00008 	mvn	r0, #8
8010128c:	e8bd87f0 	pop	{r4, r5, r6, r7, r8, r9, sl, pc}
80101290:	e3e000cc 	mvn	r0, #204	; 0xcc
80101294:	e8bd87f0 	pop	{r4, r5, r6, r7, r8, r9, sl, pc}
80101298:	e3e000ce 	mvn	r0, #206	; 0xce
8010129c:	e8bd87f0 	pop	{r4, r5, r6, r7, r8, r9, sl, pc}

801012a0 <_RME_Inv_Ret>:
801012a0:	e3093000 	movw	r3, #36864	; 0x9000
801012a4:	e3483095 	movt	r3, #32917	; 0x8095
801012a8:	e92d47f0 	push	{r4, r5, r6, r7, r8, r9, sl, lr}
801012ac:	e5936004 	ldr	r6, [r3, #4]
801012b0:	e1a05006 	mov	r5, r6
801012b4:	e5b5404c 	ldr	r4, [r5, #76]!	; 0x4c
801012b8:	e3540000 	cmp	r4, #0
801012bc:	11540005 	cmpne	r4, r5
801012c0:	03a0a001 	moveq	sl, #1
801012c4:	13a0a000 	movne	sl, #0
801012c8:	0a000053 	beq	8010141c <_RME_Inv_Ret+0x17c>
801012cc:	e3520000 	cmp	r2, #0
801012d0:	e1a08000 	mov	r8, r0
801012d4:	e1a09001 	mov	r9, r1
801012d8:	e1a07002 	mov	r7, r2
801012dc:	0a00002a 	beq	8010138c <_RME_Inv_Ret+0xec>
801012e0:	e5943018 	ldr	r3, [r4, #24]
801012e4:	e3530000 	cmp	r3, #0
801012e8:	0a00004e 	beq	80101428 <_RME_Inv_Ret+0x188>
801012ec:	e5943004 	ldr	r3, [r4, #4]
801012f0:	e1a01004 	mov	r1, r4
801012f4:	e491201c 	ldr	r2, [r1], #28
801012f8:	e5823004 	str	r3, [r2, #4]
801012fc:	e5832000 	str	r2, [r3]
80101300:	e5963054 	ldr	r3, [r6, #84]	; 0x54
80101304:	e2433001 	sub	r3, r3, #1
80101308:	e5863054 	str	r3, [r6, #84]	; 0x54
8010130c:	eb001016 	bl	8010536c <__RME_Inv_Reg_Restore>
80101310:	e1a01009 	mov	r1, r9
80101314:	e1a00008 	mov	r0, r8
80101318:	eb001018 	bl	80105380 <__RME_Inv_Retval_Set>
8010131c:	e1a0100a 	mov	r1, sl
80101320:	e284000c 	add	r0, r4, #12
80101324:	eb015cf8 	bl	8015870c <__RME_A7A_Write_Release>
80101328:	e30f1ed2 	movw	r1, #65234	; 0xfed2
8010132c:	e1a00008 	mov	r0, r8
80101330:	e34f1fff 	movt	r1, #65535	; 0xffff
80101334:	eb000fdf 	bl	801052b8 <__RME_Svc_Retval_Set>
80101338:	e596304c 	ldr	r3, [r6, #76]	; 0x4c
8010133c:	e1550003 	cmp	r5, r3
80101340:	13530000 	cmpne	r3, #0
80101344:	1a000026 	bne	801013e4 <_RME_Inv_Ret+0x144>
80101348:	e596302c 	ldr	r3, [r6, #44]	; 0x2c
8010134c:	e5930018 	ldr	r0, [r3, #24]
80101350:	e1d040b0 	ldrh	r4, [r0]
80101354:	e3540000 	cmp	r4, #0
80101358:	0a000008 	beq	80101380 <_RME_Inv_Ret+0xe0>
8010135c:	e30838d0 	movw	r3, #35024	; 0x88d0
80101360:	e30828dc 	movw	r2, #35036	; 0x88dc
80101364:	e3483015 	movt	r3, #32789	; 0x8015
80101368:	e30808e8 	movw	r0, #35048	; 0x88e8
8010136c:	e3482015 	movt	r2, #32789	; 0x8015
80101370:	e3011e4a 	movw	r1, #7754	; 0x1e4a
80101374:	e3480015 	movt	r0, #32789	; 0x8015
80101378:	ebfffe6a 	bl	80100d28 <RME_Log>
8010137c:	eafffffe 	b	8010137c <_RME_Inv_Ret+0xdc>
80101380:	eb00103e 	bl	80105480 <__RME_Pgt_Set>
80101384:	e1a00004 	mov	r0, r4
80101388:	e8bd87f0 	pop	{r4, r5, r6, r7, r8, r9, sl, pc}
8010138c:	e5943004 	ldr	r3, [r4, #4]
80101390:	e1a01004 	mov	r1, r4
80101394:	e491201c 	ldr	r2, [r1], #28
80101398:	e5823004 	str	r3, [r2, #4]
8010139c:	e5832000 	str	r2, [r3]
801013a0:	e5963054 	ldr	r3, [r6, #84]	; 0x54
801013a4:	e2433001 	sub	r3, r3, #1
801013a8:	e5863054 	str	r3, [r6, #84]	; 0x54
801013ac:	eb000fee 	bl	8010536c <__RME_Inv_Reg_Restore>
801013b0:	e1a01009 	mov	r1, r9
801013b4:	e1a00008 	mov	r0, r8
801013b8:	eb000ff0 	bl	80105380 <__RME_Inv_Retval_Set>
801013bc:	e1a01007 	mov	r1, r7
801013c0:	e284000c 	add	r0, r4, #12
801013c4:	eb015cd0 	bl	8015870c <__RME_A7A_Write_Release>
801013c8:	e1a01007 	mov	r1, r7
801013cc:	e1a00008 	mov	r0, r8
801013d0:	eb000fb8 	bl	801052b8 <__RME_Svc_Retval_Set>
801013d4:	e596304c 	ldr	r3, [r6, #76]	; 0x4c
801013d8:	e1550003 	cmp	r5, r3
801013dc:	13530000 	cmpne	r3, #0
801013e0:	0affffd8 	beq	80101348 <_RME_Inv_Ret+0xa8>
801013e4:	e5933008 	ldr	r3, [r3, #8]
801013e8:	e5930018 	ldr	r0, [r3, #24]
801013ec:	e1d040b0 	ldrh	r4, [r0]
801013f0:	e3540000 	cmp	r4, #0
801013f4:	0affffe1 	beq	80101380 <_RME_Inv_Ret+0xe0>
801013f8:	e30838d0 	movw	r3, #35024	; 0x88d0
801013fc:	e30828dc 	movw	r2, #35036	; 0x88dc
80101400:	e3483015 	movt	r3, #32789	; 0x8015
80101404:	e30808e8 	movw	r0, #35048	; 0x88e8
80101408:	e3482015 	movt	r2, #32789	; 0x8015
8010140c:	e3011e41 	movw	r1, #7745	; 0x1e41
80101410:	e3480015 	movt	r0, #32789	; 0x8015
80101414:	ebfffe43 	bl	80100d28 <RME_Log>
80101418:	eafffffe 	b	80101418 <_RME_Inv_Ret+0x178>
8010141c:	e30f0ed0 	movw	r0, #65232	; 0xfed0
80101420:	e34f0fff 	movt	r0, #65535	; 0xffff
80101424:	e8bd87f0 	pop	{r4, r5, r6, r7, r8, r9, sl, pc}
80101428:	e30f0ed2 	movw	r0, #65234	; 0xfed2
8010142c:	e34f0fff 	movt	r0, #65535	; 0xffff
80101430:	e8bd87f0 	pop	{r4, r5, r6, r7, r8, r9, sl, pc}

80101434 <_RME_Run_Del>:
80101434:	e5902014 	ldr	r2, [r0, #20]
80101438:	e5901020 	ldr	r1, [r0, #32]
8010143c:	e3720001 	cmn	r2, #1
80101440:	0a000012 	beq	80101490 <_RME_Run_Del+0x5c>
80101444:	e8900009 	ldm	r0, {r0, r3}
80101448:	e5803004 	str	r3, [r0, #4]
8010144c:	e5830000 	str	r0, [r3]
80101450:	e2813002 	add	r3, r1, #2
80101454:	e1a03183 	lsl	r3, r3, #3
80101458:	e0820003 	add	r0, r2, r3
8010145c:	e2833004 	add	r3, r3, #4
80101460:	e0823003 	add	r3, r2, r3
80101464:	e5900004 	ldr	r0, [r0, #4]
80101468:	e1500003 	cmp	r0, r3
8010146c:	112fff1e 	bxne	lr
80101470:	e1a032a1 	lsr	r3, r1, #5
80101474:	e3a00001 	mov	r0, #1
80101478:	e201101f 	and	r1, r1, #31
8010147c:	e0822103 	add	r2, r2, r3, lsl #2
80101480:	e5923010 	ldr	r3, [r2, #16]
80101484:	e1c31110 	bic	r1, r3, r0, lsl r1
80101488:	e5821010 	str	r1, [r2, #16]
8010148c:	e12fff1e 	bx	lr
80101490:	e30838d0 	movw	r3, #35024	; 0x88d0
80101494:	e30828dc 	movw	r2, #35036	; 0x88dc
80101498:	e3483015 	movt	r3, #32789	; 0x8015
8010149c:	e30808e8 	movw	r0, #35048	; 0x88e8
801014a0:	e3482015 	movt	r2, #32789	; 0x8015
801014a4:	e3011155 	movw	r1, #4437	; 0x1155
801014a8:	e3480015 	movt	r0, #32789	; 0x8015
801014ac:	e92d4010 	push	{r4, lr}
801014b0:	ebfffe1c 	bl	80100d28 <RME_Log>
801014b4:	eafffffe 	b	801014b4 <_RME_Run_Del+0x80>

801014b8 <_RME_Run_Ins>:
801014b8:	e5903014 	ldr	r3, [r0, #20]
801014bc:	e5902020 	ldr	r2, [r0, #32]
801014c0:	e3730001 	cmn	r3, #1
801014c4:	0a00000e 	beq	80101504 <_RME_Run_Ins+0x4c>
801014c8:	e0831182 	add	r1, r3, r2, lsl #3
801014cc:	e2811014 	add	r1, r1, #20
801014d0:	e591c004 	ldr	ip, [r1, #4]
801014d4:	e5810004 	str	r0, [r1, #4]
801014d8:	e5801000 	str	r1, [r0]
801014dc:	e1a012a2 	lsr	r1, r2, #5
801014e0:	e202201f 	and	r2, r2, #31
801014e4:	e580c004 	str	ip, [r0, #4]
801014e8:	e0833101 	add	r3, r3, r1, lsl #2
801014ec:	e58c0000 	str	r0, [ip]
801014f0:	e3a00001 	mov	r0, #1
801014f4:	e5931010 	ldr	r1, [r3, #16]
801014f8:	e1812210 	orr	r2, r1, r0, lsl r2
801014fc:	e5832010 	str	r2, [r3, #16]
80101500:	e12fff1e 	bx	lr
80101504:	e30838d0 	movw	r3, #35024	; 0x88d0
80101508:	e30828dc 	movw	r2, #35036	; 0x88dc
8010150c:	e3483015 	movt	r3, #32789	; 0x8015
80101510:	e30808e8 	movw	r0, #35048	; 0x88e8
80101514:	e3482015 	movt	r2, #32789	; 0x8015
80101518:	e301113b 	movw	r1, #4411	; 0x113b
8010151c:	e3480015 	movt	r0, #32789	; 0x8015
80101520:	e92d4010 	push	{r4, lr}
80101524:	ebfffdff 	bl	80100d28 <RME_Log>
80101528:	eafffffe 	b	80101528 <_RME_Run_Ins+0x70>

8010152c <_RME_Run_Swt.isra.0>:
8010152c:	e92d41f0 	push	{r4, r5, r6, r7, r8, lr}
80101530:	e1a06000 	mov	r6, r0
80101534:	e5927048 	ldr	r7, [r2, #72]	; 0x48
80101538:	e1a05001 	mov	r5, r1
8010153c:	e5910048 	ldr	r0, [r1, #72]	; 0x48
80101540:	e1a01006 	mov	r1, r6
80101544:	e1a04002 	mov	r4, r2
80101548:	eb000f61 	bl	801052d4 <__RME_Thd_Reg_Copy>
8010154c:	e1a01007 	mov	r1, r7
80101550:	e1a00006 	mov	r0, r6
80101554:	eb000f5e 	bl	801052d4 <__RME_Thd_Reg_Copy>
80101558:	e1a03005 	mov	r3, r5
8010155c:	e5b3204c 	ldr	r2, [r3, #76]!	; 0x4c
80101560:	e3520000 	cmp	r2, #0
80101564:	11520003 	cmpne	r2, r3
80101568:	15923008 	ldrne	r3, [r2, #8]
8010156c:	0595302c 	ldreq	r3, [r5, #44]	; 0x2c
80101570:	e5931018 	ldr	r1, [r3, #24]
80101574:	e1a03004 	mov	r3, r4
80101578:	e5b3204c 	ldr	r2, [r3, #76]!	; 0x4c
8010157c:	e3520000 	cmp	r2, #0
80101580:	11520003 	cmpne	r2, r3
80101584:	0594302c 	ldreq	r3, [r4, #44]	; 0x2c
80101588:	15923008 	ldrne	r3, [r2, #8]
8010158c:	e5930018 	ldr	r0, [r3, #24]
80101590:	e1d130b0 	ldrh	r3, [r1]
80101594:	e3530000 	cmp	r3, #0
80101598:	1a000011 	bne	801015e4 <_RME_Run_Swt.isra.0+0xb8>
8010159c:	e1d030b0 	ldrh	r3, [r0]
801015a0:	e3530000 	cmp	r3, #0
801015a4:	1a000005 	bne	801015c0 <_RME_Run_Swt.isra.0+0x94>
801015a8:	e591200c 	ldr	r2, [r1, #12]
801015ac:	e590300c 	ldr	r3, [r0, #12]
801015b0:	e1520003 	cmp	r2, r3
801015b4:	08bd81f0 	popeq	{r4, r5, r6, r7, r8, pc}
801015b8:	e8bd41f0 	pop	{r4, r5, r6, r7, r8, lr}
801015bc:	ea000faf 	b	80105480 <__RME_Pgt_Set>
801015c0:	e30838d0 	movw	r3, #35024	; 0x88d0
801015c4:	e30828dc 	movw	r2, #35036	; 0x88dc
801015c8:	e3483015 	movt	r3, #32789	; 0x8015
801015cc:	e30808e8 	movw	r0, #35048	; 0x88e8
801015d0:	e3482015 	movt	r2, #32789	; 0x8015
801015d4:	e301120c 	movw	r1, #4620	; 0x120c
801015d8:	e3480015 	movt	r0, #32789	; 0x8015
801015dc:	ebfffdd1 	bl	80100d28 <RME_Log>
801015e0:	eafffffe 	b	801015e0 <_RME_Run_Swt.isra.0+0xb4>
801015e4:	e30838d0 	movw	r3, #35024	; 0x88d0
801015e8:	e30828dc 	movw	r2, #35036	; 0x88dc
801015ec:	e3483015 	movt	r3, #32789	; 0x8015
801015f0:	e30808e8 	movw	r0, #35048	; 0x88e8
801015f4:	e3482015 	movt	r2, #32789	; 0x8015
801015f8:	e301120b 	movw	r1, #4619	; 0x120b
801015fc:	e3480015 	movt	r0, #32789	; 0x8015
80101600:	ebfffdc8 	bl	80100d28 <RME_Log>
80101604:	eafffffe 	b	80101604 <_RME_Run_Swt.isra.0+0xd8>

80101608 <_RME_Run_Notif>:
80101608:	e92d4070 	push	{r4, r5, r6, lr}
8010160c:	e2802008 	add	r2, r0, #8
80101610:	e5903008 	ldr	r3, [r0, #8]
80101614:	e1530002 	cmp	r3, r2
80101618:	0a000012 	beq	80101668 <_RME_Run_Notif+0x60>
8010161c:	e5904038 	ldr	r4, [r0, #56]	; 0x38
80101620:	e3540000 	cmp	r4, #0
80101624:	08bd8070 	popeq	{r4, r5, r6, pc}
80101628:	e5945018 	ldr	r5, [r4, #24]
8010162c:	e3550000 	cmp	r5, #0
80101630:	0a000004 	beq	80101648 <_RME_Run_Notif+0x40>
80101634:	e5952014 	ldr	r2, [r5, #20]
80101638:	e3093000 	movw	r3, #36864	; 0x9000
8010163c:	e3483095 	movt	r3, #32917	; 0x8095
80101640:	e1520003 	cmp	r2, r3
80101644:	0a00000f 	beq	80101688 <_RME_Run_Notif+0x80>
80101648:	e5943014 	ldr	r3, [r4, #20]
8010164c:	e373010a 	cmn	r3, #-2147483646	; 0x80000002
80101650:	e2833001 	add	r3, r3, #1
80101654:	e5843014 	str	r3, [r4, #20]
80101658:	85943014 	ldrhi	r3, [r4, #20]
8010165c:	82433001 	subhi	r3, r3, #1
80101660:	85843014 	strhi	r3, [r4, #20]
80101664:	e8bd8070 	pop	{r4, r5, r6, pc}
80101668:	e5902034 	ldr	r2, [r0, #52]	; 0x34
8010166c:	e5921040 	ldr	r1, [r2, #64]	; 0x40
80101670:	e282c03c 	add	ip, r2, #60	; 0x3c
80101674:	e5823040 	str	r3, [r2, #64]	; 0x40
80101678:	e580c008 	str	ip, [r0, #8]
8010167c:	e580100c 	str	r1, [r0, #12]
80101680:	e5813000 	str	r3, [r1]
80101684:	eaffffe4 	b	8010161c <_RME_Run_Notif+0x14>
80101688:	e5950048 	ldr	r0, [r5, #72]	; 0x48
8010168c:	e3a01001 	mov	r1, #1
80101690:	eb000f08 	bl	801052b8 <__RME_Svc_Retval_Set>
80101694:	e5953018 	ldr	r3, [r5, #24]
80101698:	e3530000 	cmp	r3, #0
8010169c:	0a000014 	beq	801016f4 <_RME_Run_Notif+0xec>
801016a0:	e5953014 	ldr	r3, [r5, #20]
801016a4:	e3a01000 	mov	r1, #0
801016a8:	e5952020 	ldr	r2, [r5, #32]
801016ac:	e585101c 	str	r1, [r5, #28]
801016b0:	e3730001 	cmn	r3, #1
801016b4:	0a000015 	beq	80101710 <_RME_Run_Notif+0x108>
801016b8:	e083c182 	add	ip, r3, r2, lsl #3
801016bc:	e1a012a2 	lsr	r1, r2, #5
801016c0:	e202201f 	and	r2, r2, #31
801016c4:	e59c0018 	ldr	r0, [ip, #24]
801016c8:	e0831101 	add	r1, r3, r1, lsl #2
801016cc:	e28c3014 	add	r3, ip, #20
801016d0:	e58c5018 	str	r5, [ip, #24]
801016d4:	e5850004 	str	r0, [r5, #4]
801016d8:	e5853000 	str	r3, [r5]
801016dc:	e5805000 	str	r5, [r0]
801016e0:	e3a00001 	mov	r0, #1
801016e4:	e5913010 	ldr	r3, [r1, #16]
801016e8:	e1832210 	orr	r2, r3, r0, lsl r2
801016ec:	e5812010 	str	r2, [r1, #16]
801016f0:	ea000003 	b	80101704 <_RME_Run_Notif+0xfc>
801016f4:	e3a03002 	mov	r3, #2
801016f8:	e1a00005 	mov	r0, r5
801016fc:	e585301c 	str	r3, [r5, #28]
80101700:	ebffffc0 	bl	80101608 <_RME_Run_Notif>
80101704:	e3a03000 	mov	r3, #0
80101708:	e5843018 	str	r3, [r4, #24]
8010170c:	e8bd8070 	pop	{r4, r5, r6, pc}
80101710:	e30838d0 	movw	r3, #35024	; 0x88d0
80101714:	e30828dc 	movw	r2, #35036	; 0x88dc
80101718:	e3483015 	movt	r3, #32789	; 0x8015
8010171c:	e30808e8 	movw	r0, #35048	; 0x88e8
80101720:	e3482015 	movt	r2, #32789	; 0x8015
80101724:	e301113b 	movw	r1, #4411	; 0x113b
80101728:	e3480015 	movt	r0, #32789	; 0x8015
8010172c:	ebfffd7d 	bl	80100d28 <RME_Log>
80101730:	eafffffe 	b	80101730 <_RME_Run_Notif+0x128>

80101734 <RME_Kmain>:
80101734:	e92d4010 	push	{r4, lr}
80101738:	eb015bf6 	bl	80158718 <__RME_Int_Disable>
8010173c:	eb000e48 	bl	80105064 <__RME_Lowlvl_Init>
80101740:	eb000ebe 	bl	80105240 <__RME_Pgt_Kom_Init>
80101744:	e3093000 	movw	r3, #36864	; 0x9000
80101748:	f2c00050 	vmov.i32	q8, #0	; 0x00000000
8010174c:	e3483015 	movt	r3, #32789	; 0x8015
80101750:	e2832502 	add	r2, r3, #8388608	; 0x800000
80101754:	f4430a8d 	vst1.32	{d16-d17}, [r3]!
80101758:	e1520003 	cmp	r2, r3
8010175c:	1afffffc 	bne	80101754 <RME_Kmain+0x20>
80101760:	eb000eb8 	bl	80105248 <__RME_Boot>
80101764:	e3a00000 	mov	r0, #0
80101768:	e8bd8010 	pop	{r4, pc}

8010176c <_RME_Kot_Mark>:
8010176c:	e310000f 	tst	r0, #15
80101770:	1a000061 	bne	801018fc <_RME_Kot_Mark+0x190>
80101774:	e7e4c250 	ubfx	ip, r0, #4, #5
80101778:	e281147f 	add	r1, r1, #2130706432	; 0x7f000000
8010177c:	e2411001 	sub	r1, r1, #1
80101780:	e280347f 	add	r3, r0, #2130706432	; 0x7f000000
80101784:	e0811000 	add	r1, r1, r0
80101788:	e3e00000 	mvn	r0, #0
8010178c:	e1a034a3 	lsr	r3, r3, #9
80101790:	e1e02221 	mvn	r2, r1, lsr #4
80101794:	e1a014a1 	lsr	r1, r1, #9
80101798:	e202201f 	and	r2, r2, #31
8010179c:	e1530001 	cmp	r3, r1
801017a0:	e92d4070 	push	{r4, r5, r6, lr}
801017a4:	e1a02230 	lsr	r2, r0, r2
801017a8:	e1a04c10 	lsl	r4, r0, ip
801017ac:	0a000037 	beq	80101890 <_RME_Kot_Mark+0x124>
801017b0:	e3095000 	movw	r5, #36864	; 0x9000
801017b4:	e3485015 	movt	r5, #32789	; 0x8015
801017b8:	e795c103 	ldr	ip, [r5, r3, lsl #2]
801017bc:	e114000c 	tst	r4, ip
801017c0:	18bd8070 	popne	{r4, r5, r6, pc}
801017c4:	e795e103 	ldr	lr, [r5, r3, lsl #2]
801017c8:	e15c000e 	cmp	ip, lr
801017cc:	18bd8070 	popne	{r4, r5, r6, pc}
801017d0:	e184c00c 	orr	ip, r4, ip
801017d4:	e785c103 	str	ip, [r5, r3, lsl #2]
801017d8:	e283c001 	add	ip, r3, #1
801017dc:	e151000c 	cmp	r1, ip
801017e0:	9a000047 	bls	80101904 <_RME_Kot_Mark+0x198>
801017e4:	e085e10c 	add	lr, r5, ip, lsl #2
801017e8:	e24ee004 	sub	lr, lr, #4
801017ec:	e5be6004 	ldr	r6, [lr, #4]!
801017f0:	e3560000 	cmp	r6, #0
801017f4:	1a000002 	bne	80101804 <_RME_Kot_Mark+0x98>
801017f8:	e795610c 	ldr	r6, [r5, ip, lsl #2]
801017fc:	e3560000 	cmp	r6, #0
80101800:	0a00002e 	beq	801018c0 <_RME_Kot_Mark+0x154>
80101804:	e24cc001 	sub	ip, ip, #1
80101808:	e15c0003 	cmp	ip, r3
8010180c:	9a00001a 	bls	8010187c <_RME_Kot_Mark+0x110>
80101810:	e1e02003 	mvn	r2, r3
80101814:	e082200c 	add	r2, r2, ip
80101818:	e04c0003 	sub	r0, ip, r3
8010181c:	e3520002 	cmp	r2, #2
80101820:	9a00000c 	bls	80101858 <_RME_Kot_Mark+0xec>
80101824:	e1a02120 	lsr	r2, r0, #2
80101828:	e24c110f 	sub	r1, ip, #-1073741821	; 0xc0000003
8010182c:	f2c00050 	vmov.i32	q8, #0	; 0x00000000
80101830:	e0851101 	add	r1, r5, r1, lsl #2
80101834:	e0412202 	sub	r2, r1, r2, lsl #4
80101838:	f4410a8f 	vst1.32	{d16-d17}, [r1]
8010183c:	e2411010 	sub	r1, r1, #16
80101840:	e1510002 	cmp	r1, r2
80101844:	1afffffb 	bne	80101838 <_RME_Kot_Mark+0xcc>
80101848:	e3c02003 	bic	r2, r0, #3
8010184c:	e1520000 	cmp	r2, r0
80101850:	e04cc002 	sub	ip, ip, r2
80101854:	0a000008 	beq	8010187c <_RME_Kot_Mark+0x110>
80101858:	e24c1001 	sub	r1, ip, #1
8010185c:	e3a02000 	mov	r2, #0
80101860:	e1530001 	cmp	r3, r1
80101864:	e785210c 	str	r2, [r5, ip, lsl #2]
80101868:	2a000003 	bcs	8010187c <_RME_Kot_Mark+0x110>
8010186c:	e7852101 	str	r2, [r5, r1, lsl #2]
80101870:	e24cc002 	sub	ip, ip, #2
80101874:	e153000c 	cmp	r3, ip
80101878:	3785210c 	strcc	r2, [r5, ip, lsl #2]
8010187c:	e7952103 	ldr	r2, [r5, r3, lsl #2]
80101880:	e3e00000 	mvn	r0, #0
80101884:	e1c22004 	bic	r2, r2, r4
80101888:	e7852103 	str	r2, [r5, r3, lsl #2]
8010188c:	e8bd8070 	pop	{r4, r5, r6, pc}
80101890:	e3091000 	movw	r1, #36864	; 0x9000
80101894:	e0022004 	and	r2, r2, r4
80101898:	e3481015 	movt	r1, #32789	; 0x8015
8010189c:	e791e103 	ldr	lr, [r1, r3, lsl #2]
801018a0:	e012400e 	ands	r4, r2, lr
801018a4:	18bd8070 	popne	{r4, r5, r6, pc}
801018a8:	e791c103 	ldr	ip, [r1, r3, lsl #2]
801018ac:	e15e000c 	cmp	lr, ip
801018b0:	0182200e 	orreq	r2, r2, lr
801018b4:	01a00004 	moveq	r0, r4
801018b8:	07812103 	streq	r2, [r1, r3, lsl #2]
801018bc:	e8bd8070 	pop	{r4, r5, r6, pc}
801018c0:	e785010c 	str	r0, [r5, ip, lsl #2]
801018c4:	e28c6001 	add	r6, ip, #1
801018c8:	e1510006 	cmp	r1, r6
801018cc:	11a0c006 	movne	ip, r6
801018d0:	1affffc5 	bne	801017ec <_RME_Kot_Mark+0x80>
801018d4:	e7950101 	ldr	r0, [r5, r1, lsl #2]
801018d8:	e1120000 	tst	r2, r0
801018dc:	1affffc9 	bne	80101808 <_RME_Kot_Mark+0x9c>
801018e0:	e795e101 	ldr	lr, [r5, r1, lsl #2]
801018e4:	e150000e 	cmp	r0, lr
801018e8:	1affffc6 	bne	80101808 <_RME_Kot_Mark+0x9c>
801018ec:	e1822000 	orr	r2, r2, r0
801018f0:	e3a00000 	mov	r0, #0
801018f4:	e7852101 	str	r2, [r5, r1, lsl #2]
801018f8:	e8bd8070 	pop	{r4, r5, r6, pc}
801018fc:	e3e00000 	mvn	r0, #0
80101900:	e12fff1e 	bx	lr
80101904:	e7950101 	ldr	r0, [r5, r1, lsl #2]
80101908:	e1120000 	tst	r2, r0
8010190c:	1affffda 	bne	8010187c <_RME_Kot_Mark+0x110>
80101910:	e795c101 	ldr	ip, [r5, r1, lsl #2]
80101914:	e150000c 	cmp	r0, ip
80101918:	1affffd7 	bne	8010187c <_RME_Kot_Mark+0x110>
8010191c:	eafffff2 	b	801018ec <_RME_Kot_Mark+0x180>

80101920 <_RME_Cpt_Crt>:
80101920:	e92d47f0 	push	{r4, r5, r6, r7, r8, r9, sl, lr}
80101924:	e1a07003 	mov	r7, r3
80101928:	e59d8024 	ldr	r8, [sp, #36]	; 0x24
8010192c:	e59d9020 	ldr	r9, [sp, #32]
80101930:	e2483001 	sub	r3, r8, #1
80101934:	e353007f 	cmp	r3, #127	; 0x7f
80101938:	8a000063 	bhi	80101acc <_RME_Cpt_Crt+0x1ac>
8010193c:	e3110080 	tst	r1, #128	; 0x80
80101940:	e1a06000 	mov	r6, r0
80101944:	e1a04001 	mov	r4, r1
80101948:	e1a05002 	mov	r5, r2
8010194c:	0a000047 	beq	80101a70 <_RME_Cpt_Crt+0x150>
80101950:	e5902014 	ldr	r2, [r0, #20]
80101954:	e1a03421 	lsr	r3, r1, #8
80101958:	e1530002 	cmp	r3, r2
8010195c:	2a00005a 	bcs	80101acc <_RME_Cpt_Crt+0x1ac>
80101960:	e590a00c 	ldr	sl, [r0, #12]
80101964:	e08aa283 	add	sl, sl, r3, lsl #5
80101968:	e1a0000a 	mov	r0, sl
8010196c:	eb015b63 	bl	80158700 <__RME_A7A_Read_Acquire>
80101970:	e7e73850 	ubfx	r3, r0, #16, #8
80101974:	e3530002 	cmp	r3, #2
80101978:	0a000073 	beq	80101b4c <_RME_Cpt_Crt+0x22c>
8010197c:	e1a00c20 	lsr	r0, r0, #24
80101980:	e3500003 	cmp	r0, #3
80101984:	1a00006c 	bne	80101b3c <_RME_Cpt_Crt+0x21c>
80101988:	e59a3014 	ldr	r3, [sl, #20]
8010198c:	e204407f 	and	r4, r4, #127	; 0x7f
80101990:	e1540003 	cmp	r4, r3
80101994:	2a00004c 	bcs	80101acc <_RME_Cpt_Crt+0x1ac>
80101998:	e59a100c 	ldr	r1, [sl, #12]
8010199c:	e0814284 	add	r4, r1, r4, lsl #5
801019a0:	e1a00004 	mov	r0, r4
801019a4:	eb015b55 	bl	80158700 <__RME_A7A_Read_Acquire>
801019a8:	e7e73850 	ubfx	r3, r0, #16, #8
801019ac:	e3530002 	cmp	r3, #2
801019b0:	0a000065 	beq	80101b4c <_RME_Cpt_Crt+0x22c>
801019b4:	e1a00c20 	lsr	r0, r0, #24
801019b8:	e3500003 	cmp	r0, #3
801019bc:	1a00005e 	bne	80101b3c <_RME_Cpt_Crt+0x21c>
801019c0:	e3150080 	tst	r5, #128	; 0x80
801019c4:	1a00002e 	bne	80101a84 <_RME_Cpt_Crt+0x164>
801019c8:	e5963014 	ldr	r3, [r6, #20]
801019cc:	e1550003 	cmp	r5, r3
801019d0:	2a00003d 	bcs	80101acc <_RME_Cpt_Crt+0x1ac>
801019d4:	e596200c 	ldr	r2, [r6, #12]
801019d8:	e0825285 	add	r5, r2, r5, lsl #5
801019dc:	e1a00005 	mov	r0, r5
801019e0:	eb015b46 	bl	80158700 <__RME_A7A_Read_Acquire>
801019e4:	e7e73850 	ubfx	r3, r0, #16, #8
801019e8:	e3530002 	cmp	r3, #2
801019ec:	0a000056 	beq	80101b4c <_RME_Cpt_Crt+0x22c>
801019f0:	e1a00c20 	lsr	r0, r0, #24
801019f4:	e3500002 	cmp	r0, #2
801019f8:	1a00004f 	bne	80101b3c <_RME_Cpt_Crt+0x21c>
801019fc:	e5943008 	ldr	r3, [r4, #8]
80101a00:	e3130001 	tst	r3, #1
80101a04:	0a00004e 	beq	80101b44 <_RME_Cpt_Crt+0x224>
80101a08:	e5953008 	ldr	r3, [r5, #8]
80101a0c:	e3130001 	tst	r3, #1
80101a10:	0a00004b 	beq	80101b44 <_RME_Cpt_Crt+0x224>
80101a14:	e5953014 	ldr	r3, [r5, #20]
80101a18:	e1530009 	cmp	r3, r9
80101a1c:	e0836009 	add	r6, r3, r9
80101a20:	31a03009 	movcc	r3, r9
80101a24:	e1530006 	cmp	r3, r6
80101a28:	8a000045 	bhi	80101b44 <_RME_Cpt_Crt+0x224>
80101a2c:	e1a01288 	lsl	r1, r8, #5
80101a30:	e0913006 	adds	r3, r1, r6
80101a34:	2a000042 	bcs	80101b44 <_RME_Cpt_Crt+0x224>
80101a38:	e5952018 	ldr	r2, [r5, #24]
80101a3c:	e2433001 	sub	r3, r3, #1
80101a40:	e1520003 	cmp	r2, r3
80101a44:	3a00003e 	bcc	80101b44 <_RME_Cpt_Crt+0x224>
80101a48:	e5943014 	ldr	r3, [r4, #20]
80101a4c:	e1530007 	cmp	r3, r7
80101a50:	9a00001d 	bls	80101acc <_RME_Cpt_Crt+0x1ac>
80101a54:	e594300c 	ldr	r3, [r4, #12]
80101a58:	e7934287 	ldr	r4, [r3, r7, lsl #5]
80101a5c:	e0835287 	add	r5, r3, r7, lsl #5
80101a60:	e3540000 	cmp	r4, #0
80101a64:	0a00001a 	beq	80101ad4 <_RME_Cpt_Crt+0x1b4>
80101a68:	e3e00004 	mvn	r0, #4
80101a6c:	e8bd87f0 	pop	{r4, r5, r6, r7, r8, r9, sl, pc}
80101a70:	e5903014 	ldr	r3, [r0, #20]
80101a74:	e1510003 	cmp	r1, r3
80101a78:	2a000013 	bcs	80101acc <_RME_Cpt_Crt+0x1ac>
80101a7c:	e590100c 	ldr	r1, [r0, #12]
80101a80:	eaffffc5 	b	8010199c <_RME_Cpt_Crt+0x7c>
80101a84:	e5962014 	ldr	r2, [r6, #20]
80101a88:	e1a03425 	lsr	r3, r5, #8
80101a8c:	e1530002 	cmp	r3, r2
80101a90:	2a00000d 	bcs	80101acc <_RME_Cpt_Crt+0x1ac>
80101a94:	e596600c 	ldr	r6, [r6, #12]
80101a98:	e0866283 	add	r6, r6, r3, lsl #5
80101a9c:	e1a00006 	mov	r0, r6
80101aa0:	eb015b16 	bl	80158700 <__RME_A7A_Read_Acquire>
80101aa4:	e7e73850 	ubfx	r3, r0, #16, #8
80101aa8:	e3530002 	cmp	r3, #2
80101aac:	0a000026 	beq	80101b4c <_RME_Cpt_Crt+0x22c>
80101ab0:	e1a00c20 	lsr	r0, r0, #24
80101ab4:	e3500003 	cmp	r0, #3
80101ab8:	1a00001f 	bne	80101b3c <_RME_Cpt_Crt+0x21c>
80101abc:	e5963014 	ldr	r3, [r6, #20]
80101ac0:	e205507f 	and	r5, r5, #127	; 0x7f
80101ac4:	e1550003 	cmp	r5, r3
80101ac8:	3affffc1 	bcc	801019d4 <_RME_Cpt_Crt+0xb4>
80101acc:	e3e00002 	mvn	r0, #2
80101ad0:	e8bd87f0 	pop	{r4, r5, r6, r7, r8, r9, sl, pc}
80101ad4:	e3092114 	movw	r2, #37140	; 0x9114
80101ad8:	e3a00801 	mov	r0, #65536	; 0x10000
80101adc:	e3482095 	movt	r2, #32917	; 0x8095
80101ae0:	e7830287 	str	r0, [r3, r7, lsl #5]
80101ae4:	e1a00006 	mov	r0, r6
80101ae8:	e5923000 	ldr	r3, [r2]
80101aec:	e5853010 	str	r3, [r5, #16]
80101af0:	ebffff1d 	bl	8010176c <_RME_Kot_Mark>
80101af4:	e3500000 	cmp	r0, #0
80101af8:	a1a03006 	movge	r3, r6
80101afc:	a1a02004 	movge	r2, r4
80101b00:	ba000013 	blt	80101b54 <_RME_Cpt_Crt+0x234>
80101b04:	e4832020 	str	r2, [r3], #32
80101b08:	e2844001 	add	r4, r4, #1
80101b0c:	e1580004 	cmp	r8, r4
80101b10:	8afffffb 	bhi	80101b04 <_RME_Cpt_Crt+0x1e4>
80101b14:	e5852004 	str	r2, [r5, #4]
80101b18:	e3a030ff 	mov	r3, #255	; 0xff
80101b1c:	e585600c 	str	r6, [r5, #12]
80101b20:	e1a00005 	mov	r0, r5
80101b24:	e5853008 	str	r3, [r5, #8]
80101b28:	e3a01403 	mov	r1, #50331648	; 0x3000000
80101b2c:	e5858014 	str	r8, [r5, #20]
80101b30:	eb015af5 	bl	8015870c <__RME_A7A_Write_Release>
80101b34:	e3a00000 	mov	r0, #0
80101b38:	e8bd87f0 	pop	{r4, r5, r6, r7, r8, r9, sl, pc}
80101b3c:	e3e00001 	mvn	r0, #1
80101b40:	e8bd87f0 	pop	{r4, r5, r6, r7, r8, r9, sl, pc}
80101b44:	e3e00006 	mvn	r0, #6
80101b48:	e8bd87f0 	pop	{r4, r5, r6, r7, r8, r9, sl, pc}
80101b4c:	e3e00008 	mvn	r0, #8
80101b50:	e8bd87f0 	pop	{r4, r5, r6, r7, r8, r9, sl, pc}
80101b54:	e1a00005 	mov	r0, r5
80101b58:	e1a01004 	mov	r1, r4
80101b5c:	eb015aea 	bl	8015870c <__RME_A7A_Write_Release>
80101b60:	e3e00003 	mvn	r0, #3
80101b64:	e8bd87f0 	pop	{r4, r5, r6, r7, r8, r9, sl, pc}

80101b68 <_RME_Pgt_Crt>:
80101b68:	e92d4ff0 	push	{r4, r5, r6, r7, r8, r9, sl, fp, lr}
80101b6c:	e24dd00c 	sub	sp, sp, #12
80101b70:	e59db03c 	ldr	fp, [sp, #60]	; 0x3c
80101b74:	e59d9040 	ldr	r9, [sp, #64]	; 0x40
80101b78:	e08b8009 	add	r8, fp, r9
80101b7c:	e3580020 	cmp	r8, #32
80101b80:	8a000098 	bhi	80101de8 <_RME_Pgt_Crt+0x280>
80101b84:	e3110080 	tst	r1, #128	; 0x80
80101b88:	e1a07000 	mov	r7, r0
80101b8c:	e1a04001 	mov	r4, r1
80101b90:	e1a0a002 	mov	sl, r2
80101b94:	e1a05003 	mov	r5, r3
80101b98:	0a000055 	beq	80101cf4 <_RME_Pgt_Crt+0x18c>
80101b9c:	e5902014 	ldr	r2, [r0, #20]
80101ba0:	e1a03421 	lsr	r3, r1, #8
80101ba4:	e1530002 	cmp	r3, r2
80101ba8:	2a000055 	bcs	80101d04 <_RME_Pgt_Crt+0x19c>
80101bac:	e590200c 	ldr	r2, [r0, #12]
80101bb0:	e0826283 	add	r6, r2, r3, lsl #5
80101bb4:	e1a00006 	mov	r0, r6
80101bb8:	eb015ad0 	bl	80158700 <__RME_A7A_Read_Acquire>
80101bbc:	e7e72850 	ubfx	r2, r0, #16, #8
80101bc0:	e3520002 	cmp	r2, #2
80101bc4:	0a000089 	beq	80101df0 <_RME_Pgt_Crt+0x288>
80101bc8:	e1a00c20 	lsr	r0, r0, #24
80101bcc:	e3500003 	cmp	r0, #3
80101bd0:	1a000080 	bne	80101dd8 <_RME_Pgt_Crt+0x270>
80101bd4:	e5962014 	ldr	r2, [r6, #20]
80101bd8:	e204407f 	and	r4, r4, #127	; 0x7f
80101bdc:	e1540002 	cmp	r4, r2
80101be0:	2a000047 	bcs	80101d04 <_RME_Pgt_Crt+0x19c>
80101be4:	e596100c 	ldr	r1, [r6, #12]
80101be8:	e0814284 	add	r4, r1, r4, lsl #5
80101bec:	e1a00004 	mov	r0, r4
80101bf0:	eb015ac2 	bl	80158700 <__RME_A7A_Read_Acquire>
80101bf4:	e7e73850 	ubfx	r3, r0, #16, #8
80101bf8:	e3530002 	cmp	r3, #2
80101bfc:	0a00007b 	beq	80101df0 <_RME_Pgt_Crt+0x288>
80101c00:	e1a00c20 	lsr	r0, r0, #24
80101c04:	e3500003 	cmp	r0, #3
80101c08:	1a000072 	bne	80101dd8 <_RME_Pgt_Crt+0x270>
80101c0c:	e31a0080 	tst	sl, #128	; 0x80
80101c10:	1a00003d 	bne	80101d0c <_RME_Pgt_Crt+0x1a4>
80101c14:	e5973014 	ldr	r3, [r7, #20]
80101c18:	e15a0003 	cmp	sl, r3
80101c1c:	2a000038 	bcs	80101d04 <_RME_Pgt_Crt+0x19c>
80101c20:	e597200c 	ldr	r2, [r7, #12]
80101c24:	e082a28a 	add	sl, r2, sl, lsl #5
80101c28:	e1a0000a 	mov	r0, sl
80101c2c:	eb015ab3 	bl	80158700 <__RME_A7A_Read_Acquire>
80101c30:	e7e73850 	ubfx	r3, r0, #16, #8
80101c34:	e3530002 	cmp	r3, #2
80101c38:	0a00006c 	beq	80101df0 <_RME_Pgt_Crt+0x288>
80101c3c:	e1a00c20 	lsr	r0, r0, #24
80101c40:	e3500002 	cmp	r0, #2
80101c44:	1a000063 	bne	80101dd8 <_RME_Pgt_Crt+0x270>
80101c48:	e5943008 	ldr	r3, [r4, #8]
80101c4c:	e3130001 	tst	r3, #1
80101c50:	0a000062 	beq	80101de0 <_RME_Pgt_Crt+0x278>
80101c54:	e59a3008 	ldr	r3, [sl, #8]
80101c58:	e3a06001 	mov	r6, #1
80101c5c:	e1a06916 	lsl	r6, r6, r9
80101c60:	e3130002 	tst	r3, #2
80101c64:	0a00005d 	beq	80101de0 <_RME_Pgt_Crt+0x278>
80101c68:	e59a3014 	ldr	r3, [sl, #20]
80101c6c:	e59d2030 	ldr	r2, [sp, #48]	; 0x30
80101c70:	e1530002 	cmp	r3, r2
80101c74:	e0837002 	add	r7, r3, r2
80101c78:	31a03002 	movcc	r3, r2
80101c7c:	e1570003 	cmp	r7, r3
80101c80:	3a000056 	bcc	80101de0 <_RME_Pgt_Crt+0x278>
80101c84:	e0963007 	adds	r3, r6, r7
80101c88:	2a000054 	bcs	80101de0 <_RME_Pgt_Crt+0x278>
80101c8c:	e59a2018 	ldr	r2, [sl, #24]
80101c90:	e2433001 	sub	r3, r3, #1
80101c94:	e1520003 	cmp	r2, r3
80101c98:	3a000050 	bcc	80101de0 <_RME_Pgt_Crt+0x278>
80101c9c:	e58d7000 	str	r7, [sp]
80101ca0:	e1a03009 	mov	r3, r9
80101ca4:	e1a0200b 	mov	r2, fp
80101ca8:	e2688020 	rsb	r8, r8, #32
80101cac:	e1cd03d4 	ldrd	r0, [sp, #52]	; 0x34
80101cb0:	eb000df3 	bl	80105484 <__RME_Pgt_Check>
80101cb4:	e59d2034 	ldr	r2, [sp, #52]	; 0x34
80101cb8:	e3e03000 	mvn	r3, #0
80101cbc:	e0123833 	ands	r3, r2, r3, lsr r8
80101cc0:	1a000048 	bne	80101de8 <_RME_Pgt_Crt+0x280>
80101cc4:	e5943014 	ldr	r3, [r4, #20]
80101cc8:	e1530005 	cmp	r3, r5
80101ccc:	9a00000c 	bls	80101d04 <_RME_Pgt_Crt+0x19c>
80101cd0:	e594300c 	ldr	r3, [r4, #12]
80101cd4:	e793a285 	ldr	sl, [r3, r5, lsl #5]
80101cd8:	e0838285 	add	r8, r3, r5, lsl #5
80101cdc:	e35a0000 	cmp	sl, #0
80101ce0:	13e04004 	mvnne	r4, #4
80101ce4:	0a00001d 	beq	80101d60 <_RME_Pgt_Crt+0x1f8>
80101ce8:	e1a00004 	mov	r0, r4
80101cec:	e28dd00c 	add	sp, sp, #12
80101cf0:	e8bd8ff0 	pop	{r4, r5, r6, r7, r8, r9, sl, fp, pc}
80101cf4:	e5903014 	ldr	r3, [r0, #20]
80101cf8:	e1510003 	cmp	r1, r3
80101cfc:	3590100c 	ldrcc	r1, [r0, #12]
80101d00:	3affffb8 	bcc	80101be8 <_RME_Pgt_Crt+0x80>
80101d04:	e3e04002 	mvn	r4, #2
80101d08:	eafffff6 	b	80101ce8 <_RME_Pgt_Crt+0x180>
80101d0c:	e5972014 	ldr	r2, [r7, #20]
80101d10:	e1a0342a 	lsr	r3, sl, #8
80101d14:	e1530002 	cmp	r3, r2
80101d18:	2afffff9 	bcs	80101d04 <_RME_Pgt_Crt+0x19c>
80101d1c:	e597700c 	ldr	r7, [r7, #12]
80101d20:	e0877283 	add	r7, r7, r3, lsl #5
80101d24:	e1a00007 	mov	r0, r7
80101d28:	eb015a74 	bl	80158700 <__RME_A7A_Read_Acquire>
80101d2c:	e7e73850 	ubfx	r3, r0, #16, #8
80101d30:	e3530002 	cmp	r3, #2
80101d34:	0a00002d 	beq	80101df0 <_RME_Pgt_Crt+0x288>
80101d38:	e1a00c20 	lsr	r0, r0, #24
80101d3c:	e3500003 	cmp	r0, #3
80101d40:	1a000024 	bne	80101dd8 <_RME_Pgt_Crt+0x270>
80101d44:	e5973014 	ldr	r3, [r7, #20]
80101d48:	e20a607f 	and	r6, sl, #127	; 0x7f
80101d4c:	e1560003 	cmp	r6, r3
80101d50:	2affffeb 	bcs	80101d04 <_RME_Pgt_Crt+0x19c>
80101d54:	e597200c 	ldr	r2, [r7, #12]
80101d58:	e082a286 	add	sl, r2, r6, lsl #5
80101d5c:	eaffffb1 	b	80101c28 <_RME_Pgt_Crt+0xc0>
80101d60:	e3092114 	movw	r2, #37140	; 0x9114
80101d64:	e3a00801 	mov	r0, #65536	; 0x10000
80101d68:	e3482095 	movt	r2, #32917	; 0x8095
80101d6c:	e1a01006 	mov	r1, r6
80101d70:	e7830285 	str	r0, [r3, r5, lsl #5]
80101d74:	e1a00007 	mov	r0, r7
80101d78:	e5923000 	ldr	r3, [r2]
80101d7c:	e5883010 	str	r3, [r8, #16]
80101d80:	ebfffe79 	bl	8010176c <_RME_Kot_Mark>
80101d84:	e2504000 	subs	r4, r0, #0
80101d88:	1a00001a 	bne	80101df8 <_RME_Pgt_Crt+0x290>
80101d8c:	e1cd23d4 	ldrd	r2, [sp, #52]	; 0x34
80101d90:	e189980b 	orr	r9, r9, fp, lsl #16
80101d94:	e1a00008 	mov	r0, r8
80101d98:	e1833002 	orr	r3, r3, r2
80101d9c:	e3a020ff 	mov	r2, #255	; 0xff
80101da0:	e34f2ff0 	movt	r2, #65520	; 0xfff0
80101da4:	e5882008 	str	r2, [r8, #8]
80101da8:	e5883018 	str	r3, [r8, #24]
80101dac:	e588700c 	str	r7, [r8, #12]
80101db0:	e5884004 	str	r4, [r8, #4]
80101db4:	e5889014 	str	r9, [r8, #20]
80101db8:	e588401c 	str	r4, [r8, #28]
80101dbc:	eb000dc6 	bl	801054dc <__RME_Pgt_Init>
80101dc0:	e1a00008 	mov	r0, r8
80101dc4:	e3a01301 	mov	r1, #67108864	; 0x4000000
80101dc8:	eb015a4f 	bl	8015870c <__RME_A7A_Write_Release>
80101dcc:	e1a00004 	mov	r0, r4
80101dd0:	e28dd00c 	add	sp, sp, #12
80101dd4:	e8bd8ff0 	pop	{r4, r5, r6, r7, r8, r9, sl, fp, pc}
80101dd8:	e3e04001 	mvn	r4, #1
80101ddc:	eaffffc1 	b	80101ce8 <_RME_Pgt_Crt+0x180>
80101de0:	e3e04006 	mvn	r4, #6
80101de4:	eaffffbf 	b	80101ce8 <_RME_Pgt_Crt+0x180>
80101de8:	e3e04066 	mvn	r4, #102	; 0x66
80101dec:	eaffffbd 	b	80101ce8 <_RME_Pgt_Crt+0x180>
80101df0:	e3e04008 	mvn	r4, #8
80101df4:	eaffffbb 	b	80101ce8 <_RME_Pgt_Crt+0x180>
80101df8:	e1a0100a 	mov	r1, sl
80101dfc:	e1a00008 	mov	r0, r8
80101e00:	e3e04003 	mvn	r4, #3
80101e04:	eb015a40 	bl	8015870c <__RME_A7A_Write_Release>
80101e08:	eaffffb6 	b	80101ce8 <_RME_Pgt_Crt+0x180>
80101e0c:	00000000 	andeq	r0, r0, r0

80101e10 <_RME_Thd_Crt>:
80101e10:	e92d4ff8 	push	{r3, r4, r5, r6, r7, r8, r9, sl, fp, lr}
80101e14:	e1a07003 	mov	r7, r3
80101e18:	e59d902c 	ldr	r9, [sp, #44]	; 0x2c
80101e1c:	e3093000 	movw	r3, #36864	; 0x9000
80101e20:	e3483095 	movt	r3, #32917	; 0x8095
80101e24:	e59da028 	ldr	sl, [sp, #40]	; 0x28
80101e28:	e5933004 	ldr	r3, [r3, #4]
80101e2c:	e59d8030 	ldr	r8, [sp, #48]	; 0x30
80101e30:	e5933024 	ldr	r3, [r3, #36]	; 0x24
80101e34:	e1530009 	cmp	r3, r9
80101e38:	3a0000ce 	bcc	80102178 <_RME_Thd_Crt+0x368>
80101e3c:	e3110080 	tst	r1, #128	; 0x80
80101e40:	e1a04000 	mov	r4, r0
80101e44:	e1a05001 	mov	r5, r1
80101e48:	e1a06002 	mov	r6, r2
80101e4c:	0a00005c 	beq	80101fc4 <_RME_Thd_Crt+0x1b4>
80101e50:	e5902014 	ldr	r2, [r0, #20]
80101e54:	e1a03421 	lsr	r3, r1, #8
80101e58:	e1530002 	cmp	r3, r2
80101e5c:	2a00005c 	bcs	80101fd4 <_RME_Thd_Crt+0x1c4>
80101e60:	e590b00c 	ldr	fp, [r0, #12]
80101e64:	e08bb283 	add	fp, fp, r3, lsl #5
80101e68:	e1a0000b 	mov	r0, fp
80101e6c:	eb015a23 	bl	80158700 <__RME_A7A_Read_Acquire>
80101e70:	e7e73850 	ubfx	r3, r0, #16, #8
80101e74:	e3530002 	cmp	r3, #2
80101e78:	0a0000bc 	beq	80102170 <_RME_Thd_Crt+0x360>
80101e7c:	e1a00c20 	lsr	r0, r0, #24
80101e80:	e3500003 	cmp	r0, #3
80101e84:	1a0000b5 	bne	80102160 <_RME_Thd_Crt+0x350>
80101e88:	e59b3014 	ldr	r3, [fp, #20]
80101e8c:	e205507f 	and	r5, r5, #127	; 0x7f
80101e90:	e1550003 	cmp	r5, r3
80101e94:	2a00004e 	bcs	80101fd4 <_RME_Thd_Crt+0x1c4>
80101e98:	e59b100c 	ldr	r1, [fp, #12]
80101e9c:	e0815285 	add	r5, r1, r5, lsl #5
80101ea0:	e1a00005 	mov	r0, r5
80101ea4:	eb015a15 	bl	80158700 <__RME_A7A_Read_Acquire>
80101ea8:	e7e73850 	ubfx	r3, r0, #16, #8
80101eac:	e3530002 	cmp	r3, #2
80101eb0:	0a0000ae 	beq	80102170 <_RME_Thd_Crt+0x360>
80101eb4:	e1a00c20 	lsr	r0, r0, #24
80101eb8:	e3500003 	cmp	r0, #3
80101ebc:	1a0000a7 	bne	80102160 <_RME_Thd_Crt+0x350>
80101ec0:	e3160080 	tst	r6, #128	; 0x80
80101ec4:	1a000044 	bne	80101fdc <_RME_Thd_Crt+0x1cc>
80101ec8:	e5943014 	ldr	r3, [r4, #20]
80101ecc:	e1560003 	cmp	r6, r3
80101ed0:	2a00003f 	bcs	80101fd4 <_RME_Thd_Crt+0x1c4>
80101ed4:	e594200c 	ldr	r2, [r4, #12]
80101ed8:	e0826286 	add	r6, r2, r6, lsl #5
80101edc:	e1a00006 	mov	r0, r6
80101ee0:	eb015a06 	bl	80158700 <__RME_A7A_Read_Acquire>
80101ee4:	e7e73850 	ubfx	r3, r0, #16, #8
80101ee8:	e3530002 	cmp	r3, #2
80101eec:	0a00009f 	beq	80102170 <_RME_Thd_Crt+0x360>
80101ef0:	e1a00c20 	lsr	r0, r0, #24
80101ef4:	e3500002 	cmp	r0, #2
80101ef8:	1a000098 	bne	80102160 <_RME_Thd_Crt+0x350>
80101efc:	e31a0080 	tst	sl, #128	; 0x80
80101f00:	1a000049 	bne	8010202c <_RME_Thd_Crt+0x21c>
80101f04:	e5943014 	ldr	r3, [r4, #20]
80101f08:	e15a0003 	cmp	sl, r3
80101f0c:	2a000030 	bcs	80101fd4 <_RME_Thd_Crt+0x1c4>
80101f10:	e594300c 	ldr	r3, [r4, #12]
80101f14:	e083a28a 	add	sl, r3, sl, lsl #5
80101f18:	e1a0000a 	mov	r0, sl
80101f1c:	eb0159f7 	bl	80158700 <__RME_A7A_Read_Acquire>
80101f20:	e7e73850 	ubfx	r3, r0, #16, #8
80101f24:	e3530002 	cmp	r3, #2
80101f28:	0a000090 	beq	80102170 <_RME_Thd_Crt+0x360>
80101f2c:	e1a00c20 	lsr	r0, r0, #24
80101f30:	e3500005 	cmp	r0, #5
80101f34:	1a000089 	bne	80102160 <_RME_Thd_Crt+0x350>
80101f38:	e5953008 	ldr	r3, [r5, #8]
80101f3c:	e3130001 	tst	r3, #1
80101f40:	0a000088 	beq	80102168 <_RME_Thd_Crt+0x358>
80101f44:	e59a3008 	ldr	r3, [sl, #8]
80101f48:	e3130002 	tst	r3, #2
80101f4c:	0a000085 	beq	80102168 <_RME_Thd_Crt+0x358>
80101f50:	e59d2038 	ldr	r2, [sp, #56]	; 0x38
80101f54:	e5963008 	ldr	r3, [r6, #8]
80101f58:	e3520000 	cmp	r2, #0
80101f5c:	03a0109c 	moveq	r1, #156	; 0x9c
80101f60:	13a01058 	movne	r1, #88	; 0x58
80101f64:	e3130004 	tst	r3, #4
80101f68:	0a00007e 	beq	80102168 <_RME_Thd_Crt+0x358>
80101f6c:	e5963014 	ldr	r3, [r6, #20]
80101f70:	e1530008 	cmp	r3, r8
80101f74:	e0834008 	add	r4, r3, r8
80101f78:	31a03008 	movcc	r3, r8
80101f7c:	e1530004 	cmp	r3, r4
80101f80:	8a000078 	bhi	80102168 <_RME_Thd_Crt+0x358>
80101f84:	e0913004 	adds	r3, r1, r4
80101f88:	2a000076 	bcs	80102168 <_RME_Thd_Crt+0x358>
80101f8c:	e5962018 	ldr	r2, [r6, #24]
80101f90:	e2433001 	sub	r3, r3, #1
80101f94:	e1520003 	cmp	r2, r3
80101f98:	3a000072 	bcc	80102168 <_RME_Thd_Crt+0x358>
80101f9c:	e5953014 	ldr	r3, [r5, #20]
80101fa0:	e1530007 	cmp	r3, r7
80101fa4:	9a00000a 	bls	80101fd4 <_RME_Thd_Crt+0x1c4>
80101fa8:	e595300c 	ldr	r3, [r5, #12]
80101fac:	e7935287 	ldr	r5, [r3, r7, lsl #5]
80101fb0:	e0836287 	add	r6, r3, r7, lsl #5
80101fb4:	e3550000 	cmp	r5, #0
80101fb8:	0a00002e 	beq	80102078 <_RME_Thd_Crt+0x268>
80101fbc:	e3e00004 	mvn	r0, #4
80101fc0:	e8bd8ff8 	pop	{r3, r4, r5, r6, r7, r8, r9, sl, fp, pc}
80101fc4:	e5903014 	ldr	r3, [r0, #20]
80101fc8:	e1510003 	cmp	r1, r3
80101fcc:	3590100c 	ldrcc	r1, [r0, #12]
80101fd0:	3affffb1 	bcc	80101e9c <_RME_Thd_Crt+0x8c>
80101fd4:	e3e00002 	mvn	r0, #2
80101fd8:	e8bd8ff8 	pop	{r3, r4, r5, r6, r7, r8, r9, sl, fp, pc}
80101fdc:	e5942014 	ldr	r2, [r4, #20]
80101fe0:	e1a03426 	lsr	r3, r6, #8
80101fe4:	e1530002 	cmp	r3, r2
80101fe8:	2afffff9 	bcs	80101fd4 <_RME_Thd_Crt+0x1c4>
80101fec:	e594b00c 	ldr	fp, [r4, #12]
80101ff0:	e08bb283 	add	fp, fp, r3, lsl #5
80101ff4:	e1a0000b 	mov	r0, fp
80101ff8:	eb0159c0 	bl	80158700 <__RME_A7A_Read_Acquire>
80101ffc:	e7e73850 	ubfx	r3, r0, #16, #8
80102000:	e3530002 	cmp	r3, #2
80102004:	0a000059 	beq	80102170 <_RME_Thd_Crt+0x360>
80102008:	e1a00c20 	lsr	r0, r0, #24
8010200c:	e3500003 	cmp	r0, #3
80102010:	1a000052 	bne	80102160 <_RME_Thd_Crt+0x350>
80102014:	e59b3014 	ldr	r3, [fp, #20]
80102018:	e206607f 	and	r6, r6, #127	; 0x7f
8010201c:	e1560003 	cmp	r6, r3
80102020:	2affffeb 	bcs	80101fd4 <_RME_Thd_Crt+0x1c4>
80102024:	e59b200c 	ldr	r2, [fp, #12]
80102028:	eaffffaa 	b	80101ed8 <_RME_Thd_Crt+0xc8>
8010202c:	e5942014 	ldr	r2, [r4, #20]
80102030:	e1a0342a 	lsr	r3, sl, #8
80102034:	e1530002 	cmp	r3, r2
80102038:	2affffe5 	bcs	80101fd4 <_RME_Thd_Crt+0x1c4>
8010203c:	e594400c 	ldr	r4, [r4, #12]
80102040:	e0844283 	add	r4, r4, r3, lsl #5
80102044:	e1a00004 	mov	r0, r4
80102048:	eb0159ac 	bl	80158700 <__RME_A7A_Read_Acquire>
8010204c:	e7e73850 	ubfx	r3, r0, #16, #8
80102050:	e3530002 	cmp	r3, #2
80102054:	0a000045 	beq	80102170 <_RME_Thd_Crt+0x360>
80102058:	e1a00c20 	lsr	r0, r0, #24
8010205c:	e3500003 	cmp	r0, #3
80102060:	1a00003e 	bne	80102160 <_RME_Thd_Crt+0x350>
80102064:	e5943014 	ldr	r3, [r4, #20]
80102068:	e20aa07f 	and	sl, sl, #127	; 0x7f
8010206c:	e15a0003 	cmp	sl, r3
80102070:	3affffa6 	bcc	80101f10 <_RME_Thd_Crt+0x100>
80102074:	eaffffd6 	b	80101fd4 <_RME_Thd_Crt+0x1c4>
80102078:	e3092114 	movw	r2, #37140	; 0x9114
8010207c:	e3a00801 	mov	r0, #65536	; 0x10000
80102080:	e3482095 	movt	r2, #32917	; 0x8095
80102084:	e7830287 	str	r0, [r3, r7, lsl #5]
80102088:	e1a00004 	mov	r0, r4
8010208c:	e5923000 	ldr	r3, [r2]
80102090:	e5863010 	str	r3, [r6, #16]
80102094:	ebfffdb4 	bl	8010176c <_RME_Kot_Mark>
80102098:	e3500000 	cmp	r0, #0
8010209c:	ba000037 	blt	80102180 <_RME_Thd_Crt+0x370>
801020a0:	eddf0b3c 	vldr	d16, [pc, #240]	; 80102198 <_RME_Thd_Crt+0x388>
801020a4:	e5845010 	str	r5, [r4, #16]
801020a8:	e2843018 	add	r3, r4, #24
801020ac:	e2842008 	add	r2, r4, #8
801020b0:	e3a01000 	mov	r1, #0
801020b4:	f443078f 	vst1.32	{d16}, [r3]
801020b8:	ee802b90 	vdup.32	d16, r2
801020bc:	e1da30b0 	ldrh	r3, [sl]
801020c0:	e3e00000 	mvn	r0, #0
801020c4:	e3a05000 	mov	r5, #0
801020c8:	e3530000 	cmp	r3, #0
801020cc:	e59d3038 	ldr	r3, [sp, #56]	; 0x38
801020d0:	159aa004 	ldrne	sl, [sl, #4]
801020d4:	e5840014 	str	r0, [r4, #20]
801020d8:	e3530000 	cmp	r3, #0
801020dc:	e5841028 	str	r1, [r4, #40]	; 0x28
801020e0:	e284303c 	add	r3, r4, #60	; 0x3c
801020e4:	e5841030 	str	r1, [r4, #48]	; 0x30
801020e8:	e1a00006 	mov	r0, r6
801020ec:	e5841038 	str	r1, [r4, #56]	; 0x38
801020f0:	e3a01406 	mov	r1, #100663296	; 0x6000000
801020f4:	e584a02c 	str	sl, [r4, #44]	; 0x2c
801020f8:	e5849024 	str	r9, [r4, #36]	; 0x24
801020fc:	f442078f 	vst1.32	{d16}, [r2]
80102100:	e5843040 	str	r3, [r4, #64]	; 0x40
80102104:	e584303c 	str	r3, [r4, #60]	; 0x3c
80102108:	02843058 	addeq	r3, r4, #88	; 0x58
8010210c:	159d3034 	ldrne	r3, [sp, #52]	; 0x34
80102110:	e5845054 	str	r5, [r4, #84]	; 0x54
80102114:	13833102 	orrne	r3, r3, #-2147483648	; 0x80000000
80102118:	158d3034 	strne	r3, [sp, #52]	; 0x34
8010211c:	13a03202 	movne	r3, #536870912	; 0x20000000
80102120:	e5843048 	str	r3, [r4, #72]	; 0x48
80102124:	e59d3034 	ldr	r3, [sp, #52]	; 0x34
80102128:	e5843044 	str	r3, [r4, #68]	; 0x44
8010212c:	e284304c 	add	r3, r4, #76	; 0x4c
80102130:	e5843050 	str	r3, [r4, #80]	; 0x50
80102134:	e584304c 	str	r3, [r4, #76]	; 0x4c
80102138:	e30031ff 	movw	r3, #511	; 0x1ff
8010213c:	e5865004 	str	r5, [r6, #4]
80102140:	e586400c 	str	r4, [r6, #12]
80102144:	e5863008 	str	r3, [r6, #8]
80102148:	e59a3004 	ldr	r3, [sl, #4]
8010214c:	e2833001 	add	r3, r3, #1
80102150:	e58a3004 	str	r3, [sl, #4]
80102154:	eb01596c 	bl	8015870c <__RME_A7A_Write_Release>
80102158:	e1a00005 	mov	r0, r5
8010215c:	e8bd8ff8 	pop	{r3, r4, r5, r6, r7, r8, r9, sl, fp, pc}
80102160:	e3e00001 	mvn	r0, #1
80102164:	e8bd8ff8 	pop	{r3, r4, r5, r6, r7, r8, r9, sl, fp, pc}
80102168:	e3e00006 	mvn	r0, #6
8010216c:	e8bd8ff8 	pop	{r3, r4, r5, r6, r7, r8, r9, sl, fp, pc}
80102170:	e3e00008 	mvn	r0, #8
80102174:	e8bd8ff8 	pop	{r3, r4, r5, r6, r7, r8, r9, sl, fp, pc}
80102178:	e3e000cc 	mvn	r0, #204	; 0xcc
8010217c:	e8bd8ff8 	pop	{r3, r4, r5, r6, r7, r8, r9, sl, fp, pc}
80102180:	e1a00006 	mov	r0, r6
80102184:	e1a01005 	mov	r1, r5
80102188:	eb01595f 	bl	8015870c <__RME_A7A_Write_Release>
8010218c:	e3e00003 	mvn	r0, #3
80102190:	e8bd8ff8 	pop	{r3, r4, r5, r6, r7, r8, r9, sl, fp, pc}
80102194:	e320f000 	nop	{0}
80102198:	00000000 	.word	0x00000000
8010219c:	00000002 	.word	0x00000002

801021a0 <_RME_Inv_Crt>:
801021a0:	e3110080 	tst	r1, #128	; 0x80
801021a4:	e92d47f0 	push	{r4, r5, r6, r7, r8, r9, sl, lr}
801021a8:	e1a05001 	mov	r5, r1
801021ac:	e59d9020 	ldr	r9, [sp, #32]
801021b0:	e1a04000 	mov	r4, r0
801021b4:	e59d8024 	ldr	r8, [sp, #36]	; 0x24
801021b8:	e1a06002 	mov	r6, r2
801021bc:	e1a07003 	mov	r7, r3
801021c0:	1a000061 	bne	8010234c <_RME_Inv_Crt+0x1ac>
801021c4:	e5903014 	ldr	r3, [r0, #20]
801021c8:	e1510003 	cmp	r1, r3
801021cc:	3590100c 	ldrcc	r1, [r0, #12]
801021d0:	2a000083 	bcs	801023e4 <_RME_Inv_Crt+0x244>
801021d4:	e0815285 	add	r5, r1, r5, lsl #5
801021d8:	e1a00005 	mov	r0, r5
801021dc:	eb015947 	bl	80158700 <__RME_A7A_Read_Acquire>
801021e0:	e7e73850 	ubfx	r3, r0, #16, #8
801021e4:	e3530002 	cmp	r3, #2
801021e8:	0a0000a1 	beq	80102474 <_RME_Inv_Crt+0x2d4>
801021ec:	e1a00c20 	lsr	r0, r0, #24
801021f0:	e3500003 	cmp	r0, #3
801021f4:	1a00009a 	bne	80102464 <_RME_Inv_Crt+0x2c4>
801021f8:	e3190080 	tst	r9, #128	; 0x80
801021fc:	0a00004d 	beq	80102338 <_RME_Inv_Crt+0x198>
80102200:	e5942014 	ldr	r2, [r4, #20]
80102204:	e1a03429 	lsr	r3, r9, #8
80102208:	e1530002 	cmp	r3, r2
8010220c:	2a000074 	bcs	801023e4 <_RME_Inv_Crt+0x244>
80102210:	e594a00c 	ldr	sl, [r4, #12]
80102214:	e08aa283 	add	sl, sl, r3, lsl #5
80102218:	e1a0000a 	mov	r0, sl
8010221c:	eb015937 	bl	80158700 <__RME_A7A_Read_Acquire>
80102220:	e7e73850 	ubfx	r3, r0, #16, #8
80102224:	e3530002 	cmp	r3, #2
80102228:	0a000091 	beq	80102474 <_RME_Inv_Crt+0x2d4>
8010222c:	e1a00c20 	lsr	r0, r0, #24
80102230:	e3500003 	cmp	r0, #3
80102234:	1a00008a 	bne	80102464 <_RME_Inv_Crt+0x2c4>
80102238:	e59a3014 	ldr	r3, [sl, #20]
8010223c:	e209907f 	and	r9, r9, #127	; 0x7f
80102240:	e1590003 	cmp	r9, r3
80102244:	2a000066 	bcs	801023e4 <_RME_Inv_Crt+0x244>
80102248:	e59a300c 	ldr	r3, [sl, #12]
8010224c:	e0839289 	add	r9, r3, r9, lsl #5
80102250:	e1a00009 	mov	r0, r9
80102254:	eb015929 	bl	80158700 <__RME_A7A_Read_Acquire>
80102258:	e7e73850 	ubfx	r3, r0, #16, #8
8010225c:	e3530002 	cmp	r3, #2
80102260:	0a000083 	beq	80102474 <_RME_Inv_Crt+0x2d4>
80102264:	e1a00c20 	lsr	r0, r0, #24
80102268:	e3500005 	cmp	r0, #5
8010226c:	1a00007c 	bne	80102464 <_RME_Inv_Crt+0x2c4>
80102270:	e3160080 	tst	r6, #128	; 0x80
80102274:	1a000048 	bne	8010239c <_RME_Inv_Crt+0x1fc>
80102278:	e5943014 	ldr	r3, [r4, #20]
8010227c:	e1560003 	cmp	r6, r3
80102280:	2a000057 	bcs	801023e4 <_RME_Inv_Crt+0x244>
80102284:	e594200c 	ldr	r2, [r4, #12]
80102288:	e0826286 	add	r6, r2, r6, lsl #5
8010228c:	e1a00006 	mov	r0, r6
80102290:	eb01591a 	bl	80158700 <__RME_A7A_Read_Acquire>
80102294:	e7e73850 	ubfx	r3, r0, #16, #8
80102298:	e3530002 	cmp	r3, #2
8010229c:	0a000074 	beq	80102474 <_RME_Inv_Crt+0x2d4>
801022a0:	e1a00c20 	lsr	r0, r0, #24
801022a4:	e3500002 	cmp	r0, #2
801022a8:	1a00006d 	bne	80102464 <_RME_Inv_Crt+0x2c4>
801022ac:	e5953008 	ldr	r3, [r5, #8]
801022b0:	e3130001 	tst	r3, #1
801022b4:	0a00006c 	beq	8010246c <_RME_Inv_Crt+0x2cc>
801022b8:	e5993008 	ldr	r3, [r9, #8]
801022bc:	e3130001 	tst	r3, #1
801022c0:	0a000069 	beq	8010246c <_RME_Inv_Crt+0x2cc>
801022c4:	e5963008 	ldr	r3, [r6, #8]
801022c8:	e3130008 	tst	r3, #8
801022cc:	0a000066 	beq	8010246c <_RME_Inv_Crt+0x2cc>
801022d0:	e5963014 	ldr	r3, [r6, #20]
801022d4:	e0834008 	add	r4, r3, r8
801022d8:	e1530008 	cmp	r3, r8
801022dc:	31a03008 	movcc	r3, r8
801022e0:	e3740025 	cmn	r4, #37	; 0x25
801022e4:	93a02000 	movls	r2, #0
801022e8:	83a02001 	movhi	r2, #1
801022ec:	e1540003 	cmp	r4, r3
801022f0:	33822001 	orrcc	r2, r2, #1
801022f4:	e3520000 	cmp	r2, #0
801022f8:	1a00005b 	bne	8010246c <_RME_Inv_Crt+0x2cc>
801022fc:	e5962018 	ldr	r2, [r6, #24]
80102300:	e2843023 	add	r3, r4, #35	; 0x23
80102304:	e1520003 	cmp	r2, r3
80102308:	3a000057 	bcc	8010246c <_RME_Inv_Crt+0x2cc>
8010230c:	e5953014 	ldr	r3, [r5, #20]
80102310:	e1530007 	cmp	r3, r7
80102314:	9a000032 	bls	801023e4 <_RME_Inv_Crt+0x244>
80102318:	e595300c 	ldr	r3, [r5, #12]
8010231c:	e7938287 	ldr	r8, [r3, r7, lsl #5]
80102320:	e0836287 	add	r6, r3, r7, lsl #5
80102324:	e3580000 	cmp	r8, #0
80102328:	13e05004 	mvnne	r5, #4
8010232c:	0a00002e 	beq	801023ec <_RME_Inv_Crt+0x24c>
80102330:	e1a00005 	mov	r0, r5
80102334:	e8bd87f0 	pop	{r4, r5, r6, r7, r8, r9, sl, pc}
80102338:	e5943014 	ldr	r3, [r4, #20]
8010233c:	e1590003 	cmp	r9, r3
80102340:	2a000027 	bcs	801023e4 <_RME_Inv_Crt+0x244>
80102344:	e594300c 	ldr	r3, [r4, #12]
80102348:	eaffffbf 	b	8010224c <_RME_Inv_Crt+0xac>
8010234c:	e5902014 	ldr	r2, [r0, #20]
80102350:	e1a03421 	lsr	r3, r1, #8
80102354:	e1530002 	cmp	r3, r2
80102358:	2a000021 	bcs	801023e4 <_RME_Inv_Crt+0x244>
8010235c:	e590a00c 	ldr	sl, [r0, #12]
80102360:	e08aa283 	add	sl, sl, r3, lsl #5
80102364:	e1a0000a 	mov	r0, sl
80102368:	eb0158e4 	bl	80158700 <__RME_A7A_Read_Acquire>
8010236c:	e7e73850 	ubfx	r3, r0, #16, #8
80102370:	e3530002 	cmp	r3, #2
80102374:	0a00003e 	beq	80102474 <_RME_Inv_Crt+0x2d4>
80102378:	e1a00c20 	lsr	r0, r0, #24
8010237c:	e3500003 	cmp	r0, #3
80102380:	1a000037 	bne	80102464 <_RME_Inv_Crt+0x2c4>
80102384:	e59a3014 	ldr	r3, [sl, #20]
80102388:	e205507f 	and	r5, r5, #127	; 0x7f
8010238c:	e1550003 	cmp	r5, r3
80102390:	2a000013 	bcs	801023e4 <_RME_Inv_Crt+0x244>
80102394:	e59a100c 	ldr	r1, [sl, #12]
80102398:	eaffff8d 	b	801021d4 <_RME_Inv_Crt+0x34>
8010239c:	e5942014 	ldr	r2, [r4, #20]
801023a0:	e1a03426 	lsr	r3, r6, #8
801023a4:	e1530002 	cmp	r3, r2
801023a8:	2a00000d 	bcs	801023e4 <_RME_Inv_Crt+0x244>
801023ac:	e594400c 	ldr	r4, [r4, #12]
801023b0:	e0844283 	add	r4, r4, r3, lsl #5
801023b4:	e1a00004 	mov	r0, r4
801023b8:	eb0158d0 	bl	80158700 <__RME_A7A_Read_Acquire>
801023bc:	e7e73850 	ubfx	r3, r0, #16, #8
801023c0:	e3530002 	cmp	r3, #2
801023c4:	0a00002a 	beq	80102474 <_RME_Inv_Crt+0x2d4>
801023c8:	e1a00c20 	lsr	r0, r0, #24
801023cc:	e3500003 	cmp	r0, #3
801023d0:	1a000023 	bne	80102464 <_RME_Inv_Crt+0x2c4>
801023d4:	e5943014 	ldr	r3, [r4, #20]
801023d8:	e206607f 	and	r6, r6, #127	; 0x7f
801023dc:	e1560003 	cmp	r6, r3
801023e0:	3affffa7 	bcc	80102284 <_RME_Inv_Crt+0xe4>
801023e4:	e3e05002 	mvn	r5, #2
801023e8:	eaffffd0 	b	80102330 <_RME_Inv_Crt+0x190>
801023ec:	e3092114 	movw	r2, #37140	; 0x9114
801023f0:	e3a01801 	mov	r1, #65536	; 0x10000
801023f4:	e3482095 	movt	r2, #32917	; 0x8095
801023f8:	e1a00004 	mov	r0, r4
801023fc:	e7831287 	str	r1, [r3, r7, lsl #5]
80102400:	e3a01024 	mov	r1, #36	; 0x24
80102404:	e5923000 	ldr	r3, [r2]
80102408:	e5863010 	str	r3, [r6, #16]
8010240c:	ebfffcd6 	bl	8010176c <_RME_Kot_Mark>
80102410:	e2505000 	subs	r5, r0, #0
80102414:	1a000018 	